#define crypto_aead_encrypt crypto_aead_pi64cipher256v1_optimized_SSE_encrypt
#define crypto_aead_decrypt crypto_aead_pi64cipher256v1_optimized_SSE_decrypt

# SSE2 version made by Rune E. Jensen
# Version 1
# CRYPTO_KEYBYTES 32
# CRYPTO_NSECBYTES 64
# CRYPTO_NPUBBYTES 16
# CRYPTO_ABYTES 64
	.file	"encrypt_SSE.s"
	.text
	.p2align 4,,15
	.globl	crypto_aead_encrypt
	.type	crypto_aead_encrypt, @function
crypto_aead_encrypt:
.LFB2300:
	.cfi_startproc
	pushq	%rbp
	.cfi_def_cfa_offset 16
	.cfi_offset 6, -16
	xorl	%eax, %eax
	pxor	%xmm0, %xmm0
	movq	%rsp, %rbp
	.cfi_def_cfa_register 6
	pushq	%r15
	pushq	%r14
	pushq	%r13
	pushq	%r12
	pushq	%rbx
	andq	$-128, %rsp
	subq	$1416, %rsp
	.cfi_offset 15, -24
	.cfi_offset 14, -32
	.cfi_offset 13, -40
	.cfi_offset 12, -48
	.cfi_offset 3, -56
	movq	%rsi, -104(%rsp)
	movq	%rdx, -88(%rsp)
	leaq	776(%rsp), %rdx
	movq	32(%rbp), %rsi
	movq	%rdi, 72(%rsp)
	movq	%rcx, 16(%rsp)
	movq	%rdx, %rdi
	movl	$8, %ecx
	rep stosq
	leaq	16(%rsi), %rax
	movq	%r8, -96(%rsp)
	movq	%r9, -80(%rsp)
	movq	24(%rbp), %r8
	cmpq	$InternalState, %rax
	movdqa	%xmm0, 1032(%rsp)
	movdqa	%xmm0, 1048(%rsp)
	movdqa	%xmm0, 1064(%rsp)
	movdqa	%xmm0, 1080(%rsp)
	movdqa	%xmm0, 1096(%rsp)
	movdqa	%xmm0, 1112(%rsp)
	movdqa	%xmm0, 1128(%rsp)
	movdqa	%xmm0, 1144(%rsp)
	movdqa	%xmm0, InternalState(%rip)
	movdqa	%xmm0, InternalState+16(%rip)
	movdqa	%xmm0, InternalState+32(%rip)
	movdqa	%xmm0, InternalState+48(%rip)
	movdqa	%xmm0, InternalState+64(%rip)
	movdqa	%xmm0, InternalState+80(%rip)
	movdqa	%xmm0, InternalState+96(%rip)
	movdqa	%xmm0, InternalState+112(%rip)
	ja	.L47
.L33:
	movdqu	(%rsi), %xmm0
	movdqa	%xmm0, InternalState(%rip)
	movdqu	16(%rsi), %xmm0
	movdqa	%xmm0, InternalState+16(%rip)
.L4:
	leaq	16(%r8), %rax
	cmpq	$InternalState+32, %rax
	ja	.L48
.L34:
	movdqu	(%r8), %xmm0
	movdqa	%xmm0, InternalState+32(%rip)
.L7:
	movq	InternalState(%rip), %rdx
	movq	InternalState+8(%rip), %r10
	movabsq	$-8247349341179448980, %rcx
	movq	InternalState+16(%rip), %rdi
	movq	InternalState+24(%rip), %r9
	movabsq	$7667772426219706969, %rsi
	movabsq	$4195444129992158507, %rbx
	movabsq	$-1376848230519552085, %r11
	movabsq	$-6792583489299504353, %r12
	leaq	(%r10,%rdx), %r8
	addq	%rcx, %rdx
	addq	%rsi, %r10
	leaq	(%r9,%rdi), %rax
	addq	%rbx, %r9
	movq	InternalState+56(%rip), %r14
	leaq	(%r9,%r8), %rbx
	movb	$1, InternalState+48(%rip)
	movabsq	$-3329063056561552456, %r15
	addq	%rax, %rdx
	addq	%rax, %r10
	movabsq	$6220970056051541820, %rax
	addq	%rax, %rdi
	rolq	$23, %r10
	rolq	$59, %rbx
	addq	%r8, %rdi
	rolq	$11, %rdx
	movq	%rbx, %r8
	rolq	$37, %rdi
	movq	%r10, %r9
	xorq	%rdi, %r8
	xorq	%rdx, %r9
	xorq	%r8, %r10
	xorq	%r8, %rdx
	xorq	%r9, %rbx
	movabsq	$-9209400399786843361, %r8
	addq	%r11, %rdx
	xorq	%rdi, %r9
	addq	%r8, %rbx
	movabsq	$-3463520432737951897, %r11
	movabsq	$-369815132508846929, %r8
	leaq	(%rbx,%rdx), %rdi
	addq	%r8, %r9
	addq	%r10, %r11
	movabsq	$-1087367646907149102, %r8
	addq	%r9, %r11
	addq	%r12, %r10
	addq	%r8, %r9
	leaq	(%r10,%rdi), %r13
	addq	%rdi, %r9
	movabsq	$-5426079245872290139, %rdi
	addq	%rdi, %rdx
	rolq	$19, %r13
	rolq	$7, %r9
	leaq	(%rdx,%r11), %r10
	movabsq	$-6657276164713376882, %rdx
	addq	%rdx, %rbx
	addq	%rbx, %r11
	rolq	$31, %r10
	movq	%r13, %rbx
	rolq	$53, %r11
	xorq	%r9, %rbx
	movq	%r11, %r12
	xorq	%r10, %r12
	xorq	%rbx, %r11
	xorq	%r10, %rbx
	xorq	%r12, %r13
	xorq	%r9, %r12
	movq	InternalState+32(%rip), %r10
	movq	%r13, 488(%rsp)
	movq	InternalState+48(%rip), %r13
	movq	%r12, 472(%rsp)
	movq	InternalState+40(%rip), %r12
	movq	%rbx, 504(%rsp)
	movq	%r11, 552(%rsp)
	leaq	(%r14,%r13), %r9
	leaq	(%r12,%r10), %rbx
	addq	%rcx, %r10
	leaq	(%r9,%r10), %r11
	leaq	(%r12,%rsi), %r10
	movabsq	$4195444129992158507, %r12
	addq	%r14, %r12
	movq	InternalState+88(%rip), %r14
	addq	%r9, %r10
	leaq	0(%r13,%rax), %r9
	addq	%rbx, %r12
	rolq	$23, %r10
	rolq	$59, %r12
	rolq	$11, %r11
	addq	%rbx, %r9
	movq	%r12, %r13
	movq	%r10, %rbx
	rolq	$37, %r9
	xorq	%r11, %rbx
	xorq	%r9, %r13
	xorq	%rbx, %r12
	xorq	%rbx, %r9
	xorq	%r13, %r11
	addq	472(%rsp), %r9
	addq	504(%rsp), %r11
	addq	488(%rsp), %r12
	xorq	%r10, %r13
	addq	552(%rsp), %r13
	leaq	(%r11,%r12), %r10
	leaq	(%r9,%r13), %rbx
	addq	%rdi, %r11
	addq	%r15, %r13
	addq	%r8, %r9
	addq	%r10, %r9
	addq	%rbx, %r11
	addq	%r13, %r10
	rolq	$7, %r9
	rolq	$31, %r11
	rolq	$19, %r10
	addq	%rdx, %r12
	movq	%r10, %r13
	addq	%r12, %rbx
	xorq	%r9, %r13
	rolq	$53, %rbx
	movq	%rbx, %r12
	xorq	%r13, %rbx
	xorq	%r11, %r13
	xorq	%r11, %r12
	movq	%r13, 664(%rsp)
	movq	InternalState+80(%rip), %r13
	xorq	%r12, %r10
	xorq	%r9, %r12
	movq	%rbx, 696(%rsp)
	movq	%r10, 584(%rsp)
	movq	%r12, 568(%rsp)
	movq	InternalState+64(%rip), %r10
	movq	InternalState+72(%rip), %r12
	leaq	0(%r13,%r14), %r9
	leaq	(%r12,%r10), %rbx
	addq	%rcx, %r10
	leaq	(%r10,%r9), %r11
	leaq	(%r12,%rsi), %r10
	movabsq	$4195444129992158507, %r12
	addq	%r14, %r12
	movq	InternalState+120(%rip), %r14
	addq	%r9, %r10
	leaq	0(%r13,%rax), %r9
	addq	%rbx, %r12
	rolq	$23, %r10
	rolq	$11, %r11
	rolq	$59, %r12
	addq	%rbx, %r9
	movq	%r10, %rbx
	rolq	$37, %r9
	xorq	%r11, %rbx
	movq	%r9, %r13
	xorq	%rbx, %r9
	addq	568(%rsp), %r9
	xorq	%r12, %r13
	xorq	%rbx, %r12
	addq	584(%rsp), %r12
	xorq	%r13, %r11
	addq	664(%rsp), %r11
	xorq	%r10, %r13
	addq	696(%rsp), %r13
	leaq	(%r12,%r11), %r10
	leaq	(%r9,%r13), %rbx
	addq	%r15, %r13
	addq	%r8, %r9
	addq	%r10, %r9
	addq	%r13, %r10
	rolq	$7, %r9
	rolq	$19, %r10
	addq	%rdx, %r12
	addq	%rdi, %r11
	movq	%r10, %r13
	addq	%rbx, %r11
	addq	%r12, %rbx
	xorq	%r9, %r13
	rolq	$53, %rbx
	rolq	$31, %r11
	movq	%rbx, %r12
	xorq	%r13, %rbx
	xorq	%r11, %r13
	xorq	%r11, %r12
	movq	%r13, 520(%rsp)
	movq	InternalState+112(%rip), %r13
	xorq	%r12, %r10
	xorq	%r9, %r12
	movq	%rbx, 648(%rsp)
	movq	%r10, 632(%rsp)
	movq	%r12, 728(%rsp)
	movq	InternalState+96(%rip), %r10
	movq	InternalState+104(%rip), %r12
	leaq	(%r14,%r13), %r9
	leaq	(%r12,%r10), %r11
	addq	%rcx, %r10
	leaq	(%r9,%r10), %rbx
	leaq	(%r12,%rsi), %r10
	movabsq	$4195444129992158507, %r12
	addq	%r14, %r12
	addq	%r10, %r9
	leaq	0(%r13,%rax), %r10
	rolq	$11, %rbx
	rolq	$23, %r9
	addq	%r11, %r10
	addq	%r12, %r11
	movq	%r9, %r13
	rolq	$59, %r11
	rolq	$37, %r10
	xorq	%rbx, %r13
	movq	%r11, %r12
	xorq	%r13, %r11
	addq	632(%rsp), %r11
	xorq	%r10, %r12
	xorq	%r13, %r10
	movq	648(%rsp), %r13
	xorq	%r12, %rbx
	addq	520(%rsp), %rbx
	addq	728(%rsp), %r10
	xorq	%r12, %r9
	addq	%r9, %r13
	leaq	(%r11,%rbx), %r12
	leaq	0(%r13,%r10), %r9
	addq	%r8, %r10
	leaq	(%r10,%r12), %r14
	leaq	(%rbx,%rdi), %r10
	rolq	$7, %r14
	addq	%r15, %r13
	addq	%rdx, %r11
	addq	%r13, %r12
	leaq	(%r11,%r9), %rbx
	addq	%r9, %r10
	rolq	$19, %r12
	rolq	$31, %r10
	movq	%r12, %r11
	rolq	$53, %rbx
	xorq	%r14, %r11
	movq	%rbx, %r9
	movq	%r11, %r13
	xorq	%r10, %r9
	xorq	%r10, %r11
	xorq	%rbx, %r13
	movabsq	$-7999569951748836447, %rbx
	xorq	%r9, %r12
	addq	%rbx, %r11
	xorq	%r14, %r9
	movabsq	$-1568322642145848418, %rbx
	addq	%rbx, %r9
	movabsq	$-4849728007900573903, %r10
	movabsq	$-1642314245251606934, %rbx
	addq	%r10, %r12
	addq	%r13, %rbx
	movabsq	$4195444129992158507, %r14
	addq	%r9, %rbx
	leaq	(%r11,%r12), %r10
	addq	%rsi, %r12
	addq	%rcx, %r11
	addq	%rax, %r9
	addq	%rbx, %r11
	addq	%r12, %rbx
	movabsq	$2553129884740551573, %r12
	addq	%r13, %r12
	addq	%r10, %r9
	rolq	$23, %rbx
	rolq	$37, %r9
	addq	%r12, %r10
	rolq	$11, %r11
	rolq	$59, %r10
	movq	%r9, %r12
	movq	%rbx, %r13
	xorq	%r10, %r12
	xorq	%r11, %r13
	xorq	%r12, %rbx
	xorq	%r13, %r10
	xorq	%r9, %r13
	movq	%rbx, 712(%rsp)
	xorq	%r12, %r11
	movq	%r13, 744(%rsp)
	movq	%rbx, %r12
	movq	744(%rsp), %r9
	addq	648(%rsp), %r12
	addq	728(%rsp), %r9
	movq	%r11, 616(%rsp)
	movq	%r10, %r13
	addq	520(%rsp), %r11
	addq	632(%rsp), %r13
	movq	%r10, 600(%rsp)
	leaq	(%r9,%r12), %rbx
	addq	%rax, %r9
	leaq	(%r11,%r13), %r10
	addq	%rsi, %r13
	addq	%rcx, %r11
	addq	%rbx, %r11
	addq	%r13, %rbx
	movabsq	$4195444129992158507, %r13
	addq	%r13, %r12
	addq	%r10, %r9
	rolq	$11, %r11
	rolq	$37, %r9
	addq	%r12, %r10
	rolq	$23, %rbx
	rolq	$59, %r10
	movq	%r9, %r13
	movq	%r11, %r12
	xorq	%r10, %r13
	xorq	%rbx, %r12
	xorq	%r12, %r10
	xorq	%r13, %rbx
	xorq	%r9, %r12
	xorq	%r13, %r11
	movq	%r12, 408(%rsp)
	movq	%r12, %r9
	movq	%rbx, %r12
	addq	568(%rsp), %r9
	addq	696(%rsp), %r12
	movq	%r11, 456(%rsp)
	movq	%r10, %r13
	addq	664(%rsp), %r11
	addq	584(%rsp), %r13
	movq	%rbx, 680(%rsp)
	movq	%r10, 536(%rsp)
	leaq	(%r12,%r9), %rbx
	leaq	0(%r13,%r11), %r10
	addq	%rcx, %r11
	addq	%rbx, %r11
	rolq	$11, %r11
	addq	%rsi, %r13
	addq	%r14, %r12
	addq	%rax, %r9
	addq	%r13, %rbx
	addq	%r10, %r9
	addq	%r12, %r10
	rolq	$23, %rbx
	rolq	$59, %r10
	rolq	$37, %r9
	movq	%rbx, %r12
	movq	%r10, %r13
	xorq	%r11, %r12
	xorq	%r9, %r13
	xorq	%r12, %r10
	xorq	%r9, %r12
	xorq	%r13, %r11
	xorq	%r13, %rbx
	movq	%r12, %r9
	movq	%rbx, 648(%rsp)
	addq	472(%rsp), %r9
	movq	%r11, %rbx
	movq	%r11, 520(%rsp)
	addq	504(%rsp), %rbx
	movq	%r10, %r13
	movq	648(%rsp), %r11
	addq	488(%rsp), %r13
	addq	552(%rsp), %r11
	movq	%r10, 632(%rsp)
	movq	%r12, 728(%rsp)
	leaq	0(%r13,%rbx), %r10
	addq	%rsi, %r13
	addq	%rcx, %rbx
	leaq	(%r11,%r9), %r12
	addq	%r14, %r11
	addq	%rax, %r9
	addq	%r10, %r11
	addq	%r10, %r9
	movabsq	$-2292595471992902602, %r14
	addq	%r12, %r13
	addq	%r12, %rbx
	rolq	$59, %r11
	rolq	$23, %r13
	rolq	$11, %rbx
	rolq	$37, %r9
	movq	%r11, %r12
	movq	%r13, %r10
	xorq	%rbx, %r10
	xorq	%r9, %r12
	xorq	%r12, %r13
	xorq	%r12, %rbx
	xorq	%r10, %r11
	movabsq	$8467826889434979867, %r12
	addq	%r14, %rbx
	xorq	%r10, %r9
	addq	%r12, %r11
	movabsq	$6028102484886760763, %r10
	movabsq	$-5006043190370284386, %r12
	addq	%r12, %r9
	addq	%r13, %r10
	leaq	(%rbx,%r11), %r12
	movabsq	$2699039428325208307, %r14
	addq	%r9, %r10
	addq	%rdi, %rbx
	addq	%r14, %r13
	addq	%r8, %r9
	addq	%rdx, %r11
	addq	%r12, %r9
	addq	%r10, %rbx
	addq	%r13, %r12
	rolq	$31, %rbx
	rolq	$19, %r12
	addq	%r11, %r10
	rolq	$7, %r9
	rolq	$53, %r10
	movq	%r12, %r13
	movq	%rbx, %r11
	xorq	%r9, %r13
	xorq	%r10, %r11
	xorq	%r13, %r10
	xorq	%rbx, %r13
	xorq	%r11, %r12
	xorq	%r9, %r11
	movq	%r13, 440(%rsp)
	movq	%r11, 504(%rsp)
	movq	%r12, 552(%rsp)
	movq	%r13, %r11
	addq	632(%rsp), %r12
	addq	520(%rsp), %r11
	movq	504(%rsp), %r9
	movq	648(%rsp), %r13
	addq	728(%rsp), %r9
	movq	%r10, 424(%rsp)
	addq	%r10, %r13
	leaq	(%r12,%r11), %r10
	leaq	(%r9,%r13), %rbx
	addq	%r8, %r9
	addq	%r10, %r9
	rolq	$7, %r9
	addq	%rdx, %r12
	addq	%rdi, %r11
	addq	%r15, %r13
	addq	%rbx, %r11
	addq	%r12, %rbx
	addq	%r13, %r10
	rolq	$53, %rbx
	rolq	$31, %r11
	rolq	$19, %r10
	movq	%r9, %r13
	movq	%rbx, %r12
	xorq	%r10, %r13
	xorq	%r11, %r12
	xorq	%r13, %rbx
	xorq	%r12, %r10
	xorq	%r11, %r13
	xorq	%r9, %r12
	movq	%rbx, 696(%rsp)
	movq	%r13, %r11
	movq	%r12, 568(%rsp)
	addq	456(%rsp), %r11
	movq	%r10, %r12
	movq	%r13, 584(%rsp)
	addq	536(%rsp), %r12
	movq	%rbx, %r13
	movq	568(%rsp), %r9
	addq	680(%rsp), %r13
	addq	408(%rsp), %r9
	movq	%r10, 664(%rsp)
	leaq	(%r11,%r12), %r10
	addq	%rdx, %r12
	addq	%rdi, %r11
	leaq	0(%r13,%r9), %rbx
	addq	%r15, %r13
	addq	%r8, %r9
	addq	%r10, %r9
	addq	%r13, %r10
	addq	%rbx, %r11
	addq	%r12, %rbx
	rolq	$19, %r10
	rolq	$53, %rbx
	rolq	$7, %r9
	rolq	$31, %r11
	movq	%r10, %r13
	movq	%rbx, %r12
	xorq	%r9, %r13
	xorq	%r11, %r12
	xorq	%r12, %r10
	xorq	%r13, %rbx
	xorq	%r11, %r13
	xorq	%r9, %r12
	movq	%r10, 632(%rsp)
	movq	%r13, %r11
	addq	600(%rsp), %r10
	addq	616(%rsp), %r11
	movq	%r13, 520(%rsp)
	movq	%r12, 728(%rsp)
	movq	%r12, %r13
	movq	%rbx, %r12
	addq	744(%rsp), %r13
	addq	712(%rsp), %r12
	movq	%rbx, 648(%rsp)
	leaq	(%r10,%r11), %rbx
	addq	%rdx, %r10
	addq	%rdi, %r11
	leaq	(%r12,%r13), %r9
	addq	%r15, %r12
	addq	%r8, %r13
	addq	%rbx, %r13
	addq	%r12, %rbx
	rolq	$19, %rbx
	rolq	$7, %r13
	addq	%r9, %r10
	movq	%rbx, %r12
	rolq	$53, %r10
	addq	%r9, %r11
	xorq	%r13, %r12
	rolq	$31, %r11
	movq	%r10, %r9
	movq	%r12, %r14
	xorq	%r11, %r9
	xorq	%r12, %r11
	xorq	%r10, %r14
	movabsq	$5953845371152580681, %r10
	xorq	%r9, %rbx
	addq	%r10, %r11
	movabsq	$-7646712092252898442, %r10
	xorq	%r13, %r9
	leaq	(%rbx,%r10), %r12
	movabsq	$-2842268575306187841, %r10
	movabsq	$-7946738593435294165, %rbx
	addq	%r10, %r9
	addq	%r14, %rbx
	addq	%r9, %rbx
	leaq	(%r11,%r12), %r10
	addq	%rcx, %r11
	addq	%rbx, %r11
	rolq	$11, %r11
	addq	%rsi, %r12
	addq	%rax, %r9
	addq	%r12, %rbx
	movabsq	$-3751294463443135658, %r12
	addq	%r10, %r9
	addq	%r14, %r12
	rolq	$37, %r9
	rolq	$23, %rbx
	addq	%r12, %r10
	movq	%rbx, %r13
	movq	%r9, %r12
	rolq	$59, %r10
	xorq	%r11, %r13
	movabsq	$4195444129992158507, %r14
	xorq	%r10, %r12
	xorq	%r13, %r10
	xorq	%r9, %r13
	xorq	%r12, %rbx
	xorq	%r12, %r11
	movq	%r13, 600(%rsp)
	movq	%rbx, %r12
	movq	600(%rsp), %r9
	addq	648(%rsp), %r12
	addq	728(%rsp), %r9
	movq	%r11, 712(%rsp)
	movq	%r10, %r13
	addq	520(%rsp), %r11
	addq	632(%rsp), %r13
	movq	%rbx, 408(%rsp)
	movq	%r10, 488(%rsp)
	leaq	(%r9,%r12), %rbx
	addq	%rax, %r9
	leaq	(%r11,%r13), %r10
	addq	%rsi, %r13
	addq	%rcx, %r11
	addq	%rbx, %r11
	addq	%r13, %rbx
	movabsq	$4195444129992158507, %r13
	addq	%r13, %r12
	addq	%r10, %r9
	rolq	$23, %rbx
	addq	%r12, %r10
	rolq	$37, %r9
	rolq	$11, %r11
	rolq	$59, %r10
	movq	%rbx, %r12
	movq	%r10, %r13
	xorq	%r9, %r13
	xorq	%r11, %r12
	xorq	%r12, %r10
	xorq	%r13, %rbx
	xorq	%r13, %r11
	xorq	%r9, %r12
	movq	%r11, 680(%rsp)
	movq	%r10, %r13
	addq	584(%rsp), %r11
	addq	664(%rsp), %r13
	movq	%r12, %r9
	movq	%r12, 456(%rsp)
	addq	568(%rsp), %r9
	movq	%rbx, %r12
	addq	696(%rsp), %r12
	movq	%rbx, 744(%rsp)
	movq	%r10, 472(%rsp)
	leaq	(%r11,%r13), %r10
	addq	%rsi, %r13
	addq	%rcx, %r11
	leaq	(%r12,%r9), %rbx
	addq	%r14, %r12
	addq	%rax, %r9
	addq	%r10, %r9
	addq	%r12, %r10
	addq	%rbx, %r11
	addq	%r13, %rbx
	rolq	$59, %r10
	rolq	$23, %rbx
	rolq	$37, %r9
	rolq	$11, %r11
	movq	%r10, %r13
	movq	%rbx, %r12
	xorq	%r9, %r13
	xorq	%r11, %r12
	xorq	%r12, %r10
	xorq	%r13, %r11
	xorq	%r13, %rbx
	xorq	%r9, %r12
	movq	%rbx, 648(%rsp)
	movq	%r11, 520(%rsp)
	movq	%r11, %rbx
	movq	%r12, %r9
	movq	648(%rsp), %r11
	addq	504(%rsp), %r9
	addq	424(%rsp), %r11
	movq	%r10, %r13
	addq	440(%rsp), %rbx
	addq	552(%rsp), %r13
	movq	%r12, 728(%rsp)
	movq	%r10, 632(%rsp)
	leaq	(%r11,%r9), %r12
	leaq	0(%r13,%rbx), %r10
	addq	%rcx, %rbx
	addq	%r12, %rbx
	rolq	$11, %rbx
	addq	%rsi, %r13
	addq	%r14, %r11
	addq	%r12, %r13
	addq	%rax, %r9
	addq	%r10, %r11
	rolq	$23, %r13
	addq	%r10, %r9
	rolq	$59, %r11
	rolq	$37, %r9
	movq	%r11, %r12
	movq	%r13, %r10
	xorq	%r9, %r12
	xorq	%rbx, %r10
	movabsq	$-824919486193887165, %r14
	xorq	%r12, %r13
	xorq	%r12, %rbx
	xorq	%r10, %r11
	movabsq	$-1914029582460860148, %r12
	addq	%r14, %rbx
	xorq	%r10, %r9
	addq	%r12, %r11
	movabsq	$-7632797540959622777, %r10
	movabsq	$6609752215332129920, %r12
	addq	%r12, %r9
	addq	%r13, %r10
	leaq	(%r11,%rbx), %r12
	addq	%r9, %r10
	addq	%rdi, %rbx
	addq	%r8, %r9
	movabsq	$7484883476188376383, %r14
	addq	%rdx, %r11
	addq	%r12, %r9
	addq	%r14, %r13
	addq	%r10, %rbx
	rolq	$7, %r9
	rolq	$31, %rbx
	addq	%r13, %r12
	addq	%r11, %r10
	rolq	$53, %r10
	rolq	$19, %r12
	movq	%r9, %r13
	movq	%rbx, %r11
	xorq	%r12, %r13
	movq	%rcx, %r14
	xorq	%r10, %r11
	xorq	%r13, %r10
	xorq	%rbx, %r13
	xorq	%r11, %r12
	xorq	%r9, %r11
	movq	%r13, 536(%rsp)
	movq	%r11, 504(%rsp)
	movq	%r12, 552(%rsp)
	movq	%r13, %r11
	addq	632(%rsp), %r12
	addq	520(%rsp), %r11
	movq	%r10, %r13
	movq	504(%rsp), %r9
	addq	648(%rsp), %r13
	addq	728(%rsp), %r9
	movq	%r10, 568(%rsp)
	leaq	(%r11,%r12), %r10
	addq	%rdi, %r11
	addq	%rdx, %r12
	leaq	(%r9,%r13), %rbx
	addq	%r15, %r13
	addq	%r8, %r9
	addq	%r10, %r9
	addq	%r13, %r10
	addq	%rbx, %r11
	rolq	$19, %r10
	addq	%r12, %rbx
	rolq	$31, %r11
	rolq	$7, %r9
	rolq	$53, %rbx
	movq	%r10, %r13
	movq	%r11, %r12
	xorq	%r9, %r13
	xorq	%rbx, %r12
	xorq	%r12, %r10
	xorq	%r13, %rbx
	xorq	%r9, %r12
	xorq	%r11, %r13
	movq	%r12, 584(%rsp)
	movq	%r10, %r12
	movq	%r13, %r11
	addq	472(%rsp), %r12
	addq	680(%rsp), %r11
	movq	%r13, 664(%rsp)
	movq	584(%rsp), %r9
	movq	%rbx, %r13
	addq	456(%rsp), %r9
	addq	744(%rsp), %r13
	movq	%r10, 616(%rsp)
	movq	%rbx, 696(%rsp)
	leaq	(%r11,%r12), %r10
	leaq	(%r9,%r13), %rbx
	addq	%r8, %r9
	addq	%r10, %r9
	addq	%r15, %r13
	addq	%rdx, %r12
	addq	%rdi, %r11
	addq	%r13, %r10
	rolq	$7, %r9
	addq	%rbx, %r11
	addq	%r12, %rbx
	rolq	$19, %r10
	rolq	$53, %rbx
	rolq	$31, %r11
	movq	%r10, %r13
	movq	%rbx, %r12
	xorq	%r9, %r13
	xorq	%r11, %r12
	xorq	%r13, %rbx
	xorq	%r11, %r13
	xorq	%r12, %r10
	movq	%r13, %r11
	xorq	%r9, %r12
	addq	712(%rsp), %r11
	movq	%r10, 632(%rsp)
	addq	488(%rsp), %r10
	movq	%r13, 520(%rsp)
	movq	%r12, %r13
	movq	%r12, 728(%rsp)
	addq	600(%rsp), %r13
	movq	%rbx, %r12
	addq	408(%rsp), %r12
	movq	%rbx, 648(%rsp)
	leaq	(%r10,%r11), %rbx
	addq	%rdx, %r10
	addq	%rdi, %r11
	leaq	(%r12,%r13), %r9
	addq	%r15, %r12
	addq	%r8, %r13
	addq	%rbx, %r12
	addq	%rbx, %r13
	rolq	$19, %r12
	rolq	$7, %r13
	addq	%r9, %r11
	movq	%r12, %rbx
	addq	%r10, %r9
	rolq	$31, %r11
	rolq	$53, %r9
	xorq	%r13, %rbx
	movq	%r9, %r10
	xorq	%rbx, %r9
	movq	%r9, 712(%rsp)
	xorq	%r11, %r10
	movabsq	$-1139829817207230181, %r9
	xorq	%rbx, %r11
	xorq	%r10, %r12
	xorq	%r13, %r10
	addq	%r11, %r9
	movabsq	$3054837738180890943, %r11
	movabsq	$4195444129992158507, %r13
	addq	%r11, %r12
	movabsq	$2588290990126348949, %r11
	leaq	(%r9,%rcx), %rcx
	leaq	(%r10,%r11), %rbx
	movabsq	$-938319195649413462, %r10
	addq	712(%rsp), %r10
	leaq	(%r12,%r9), %r11
	movq	%rsi, %r9
	leaq	(%r12,%rsi), %rsi
	addq	%rbx, %r10
	addq	%r10, %rcx
	addq	%r10, %rsi
	movq	%rax, %r10
	leaq	(%rbx,%rax), %rax
	movabsq	$3257124934342745045, %rbx
	addq	712(%rsp), %rbx
	rolq	$11, %rcx
	rolq	$23, %rsi
	addq	%r11, %rax
	rolq	$37, %rax
	addq	%rbx, %r11
	movq	%rcx, %rbx
	rolq	$59, %r11
	xorq	%rsi, %rbx
	movq	%r11, %r12
	xorq	%rbx, %r11
	xorq	%rax, %rbx
	xorq	%rax, %r12
	movq	%r11, 440(%rsp)
	movq	%rbx, 744(%rsp)
	xorq	%r12, %rsi
	xorq	%r12, %rcx
	movq	%r11, %r12
	movq	%rsi, 600(%rsp)
	movq	%rbx, %r11
	addq	648(%rsp), %rsi
	addq	728(%rsp), %r11
	addq	632(%rsp), %r12
	movq	%rcx, %rax
	addq	520(%rsp), %rax
	movq	%rcx, 472(%rsp)
	leaq	(%r11,%rsi), %rbx
	leaq	(%r12,%rax), %rcx
	addq	%r14, %rax
	addq	%r9, %r12
	addq	%rbx, %rax
	rolq	$11, %rax
	addq	%r12, %rbx
	addq	%r13, %rsi
	addq	%r10, %r11
	rolq	$23, %rbx
	addq	%rcx, %r11
	addq	%rsi, %rcx
	movq	%rbx, %r12
	rolq	$59, %rcx
	rolq	$37, %r11
	xorq	%rax, %r12
	movq	%rcx, %rsi
	xorq	%r12, %rcx
	xorq	%r11, %r12
	xorq	%r11, %rsi
	movq	%r12, 456(%rsp)
	movq	%rcx, %r12
	xorq	%rsi, %rbx
	xorq	%rsi, %rax
	addq	616(%rsp), %r12
	movq	%rbx, 680(%rsp)
	movq	%rax, 712(%rsp)
	movq	%rax, %rsi
	addq	696(%rsp), %rbx
	addq	664(%rsp), %rsi
	movq	456(%rsp), %rax
	addq	584(%rsp), %rax
	movq	%rcx, 488(%rsp)
	leaq	(%r12,%rsi), %rcx
	addq	%r9, %r12
	addq	%r14, %rsi
	leaq	(%rax,%rbx), %r11
	addq	%r13, %rbx
	addq	%r10, %rax
	addq	%rcx, %rax
	addq	%rbx, %rcx
	addq	%r11, %rsi
	addq	%r12, %r11
	rolq	$59, %rcx
	rolq	$23, %r11
	rolq	$37, %rax
	rolq	$11, %rsi
	movq	%rcx, %r12
	movq	%r11, %rbx
	xorq	%rax, %r12
	xorq	%rsi, %rbx
	xorq	%r12, %r11
	xorq	%r12, %rsi
	xorq	%rbx, %rcx
	movq	%r11, 648(%rsp)
	xorq	%rax, %rbx
	movq	%rsi, %r11
	movq	%rcx, %r12
	addq	536(%rsp), %r11
	addq	552(%rsp), %r12
	movq	%rsi, 520(%rsp)
	movq	%rbx, %rax
	movq	648(%rsp), %rsi
	addq	504(%rsp), %rax
	addq	568(%rsp), %rsi
	movq	%rcx, 632(%rsp)
	movq	%rbx, 728(%rsp)
	leaq	(%r12,%r11), %rcx
	addq	%r9, %r12
	addq	%r14, %r11
	leaq	(%rsi,%rax), %rbx
	addq	%r13, %rsi
	addq	%r10, %rax
	addq	%rcx, %rsi
	addq	%rcx, %rax
	addq	%rbx, %r12
	rolq	$59, %rsi
	addq	%rbx, %r11
	rolq	$23, %r12
	rolq	$37, %rax
	movq	%rsi, %rbx
	xorq	%rax, %rbx
	rolq	$11, %r11
	movq	%r12, %rcx
	xorq	%r11, %rcx
	xorq	%rbx, %r12
	xorq	%rbx, %r11
	movabsq	$-6097248013946911484, %rbx
	xorq	%rcx, %rsi
	xorq	%rcx, %rax
	addq	%rbx, %r11
	movabsq	$3174302594670681997, %rbx
	movabsq	$-8739574512844769069, %rcx
	addq	%rbx, %rsi
	movabsq	$-496885038275669880, %rbx
	addq	%r12, %rcx
	addq	%rbx, %rax
	leaq	(%r11,%rsi), %rbx
	movq	%r12, 696(%rsp)
	addq	%rax, %rcx
	addq	%r8, %rax
	movabsq	$6378106504303230091, %r12
	addq	%rbx, %rax
	rolq	$7, %rax
	addq	696(%rsp), %r12
	addq	%rdx, %rsi
	addq	%rdi, %r11
	addq	%rcx, %r11
	addq	%rsi, %rcx
	rolq	$53, %rcx
	rolq	$31, %r11
	addq	%r12, %rbx
	movq	%rcx, %rsi
	rolq	$19, %rbx
	xorq	%r11, %rsi
	movq	%rbx, %r12
	xorq	%rsi, %rbx
	xorq	%rax, %rsi
	xorq	%rax, %r12
	movq	%rbx, 552(%rsp)
	xorq	%r12, %rcx
	xorq	%r11, %r12
	movq	%rcx, 568(%rsp)
	movq	%r12, 536(%rsp)
	movq	%rsi, 504(%rsp)
	addq	632(%rsp), %rbx
	movq	%r12, %rsi
	movq	504(%rsp), %rax
	addq	520(%rsp), %rsi
	movq	%rcx, %r12
	addq	728(%rsp), %rax
	addq	648(%rsp), %r12
	leaq	(%rsi,%rbx), %rcx
	addq	%rdx, %rbx
	addq	%rdi, %rsi
	leaq	(%rax,%r12), %r11
	addq	%r15, %r12
	addq	%r8, %rax
	addq	%rcx, %rax
	addq	%r12, %rcx
	addq	%r11, %rsi
	addq	%rbx, %r11
	rolq	$19, %rcx
	rolq	$53, %r11
	rolq	$7, %rax
	rolq	$31, %rsi
	movq	%rcx, %r12
	movq	%r11, %rbx
	xorq	%rsi, %rbx
	xorq	%rax, %r12
	xorq	%r12, %r11
	xorq	%rbx, %rcx
	xorq	%rsi, %r12
	xorq	%rax, %rbx
	movq	%r12, 664(%rsp)
	movq	%r12, %rsi
	movq	%rbx, 584(%rsp)
	addq	712(%rsp), %rsi
	movq	%rcx, %rbx
	movq	584(%rsp), %rax
	addq	488(%rsp), %rbx
	movq	%r11, %r12
	addq	456(%rsp), %rax
	addq	680(%rsp), %r12
	movq	%r11, 696(%rsp)
	movq	%rcx, 616(%rsp)
	leaq	(%rsi,%rbx), %rcx
	addq	%rdx, %rbx
	addq	%rdi, %rsi
	leaq	(%rax,%r12), %r11
	addq	%r15, %r12
	addq	%r8, %rax
	addq	%rcx, %rax
	addq	%r12, %rcx
	addq	%r11, %rsi
	addq	%rbx, %r11
	rolq	$19, %rcx
	rolq	$53, %r11
	rolq	$7, %rax
	rolq	$31, %rsi
	movq	%rcx, %r12
	movq	%r11, %rbx
	xorq	%rax, %r12
	xorq	%rsi, %rbx
	xorq	%r12, %r11
	xorq	%rbx, %rcx
	xorq	%rsi, %r12
	xorq	%rax, %rbx
	movq	%rcx, 632(%rsp)
	movq	%r12, %rsi
	addq	440(%rsp), %rcx
	addq	472(%rsp), %rsi
	movq	%r12, 520(%rsp)
	movq	%rbx, %r12
	addq	744(%rsp), %r12
	movq	%rbx, 728(%rsp)
	movq	%r11, %rbx
	addq	600(%rsp), %rbx
	movq	%r11, 648(%rsp)
	leaq	(%rcx,%rsi), %r11
	addq	%r12, %r8
	addq	%r11, %r8
	leaq	(%rbx,%r12), %rax
	rolq	$7, %r8
	addq	%r15, %rbx
	addq	%rcx, %rdx
	addq	%rbx, %r11
	addq	%rdi, %rsi
	rolq	$19, %r11
	addq	%rax, %rsi
	addq	%rdx, %rax
	rolq	$53, %rax
	movq	%r11, %rcx
	rolq	$31, %rsi
	xorq	%r8, %rcx
	movq	%rax, %rdx
	xorq	%rsi, %rdx
	movq	%rcx, %rbx
	xorq	%rcx, %rsi
	xorq	%rax, %rbx
	xorq	%rdx, %r8
	movabsq	$853475092736589577, %rax
	movabsq	$-4925106476758491821, %rcx
	addq	%rax, %rsi
	xorq	%rdx, %r11
	leaq	(%r8,%rcx), %rdi
	movabsq	$-5486504877919021346, %rax
	movabsq	$1906713845121804688, %rcx
	addq	%r11, %rax
	addq	%rbx, %rcx
	movq	%rsi, InternalState+96(%rip)
	leaq	(%rsi,%rax), %rdx
	movq	%rax, InternalState+104(%rip)
	movq	%rcx, InternalState+120(%rip)
	addq	%r9, %rax
	addq	%rdi, %rcx
	addq	%r14, %rsi
	addq	%rcx, %rsi
	movq	%rdi, InternalState+112(%rip)
	addq	%rax, %rcx
	leaq	(%rdi,%r10), %rax
	movabsq	$6102157975113963195, %rdi
	rolq	$11, %rsi
	addq	%rbx, %rdi
	rolq	$23, %rcx
	movq	%rsi, %r8
	addq	%rdx, %rax
	addq	%rdi, %rdx
	movq	632(%rsp), %rdi
	rolq	$59, %rdx
	rolq	$37, %rax
	xorq	%rcx, %r8
	movq	%rdx, %r11
	xorq	%rax, %r11
	xorq	%r11, %rcx
	xorq	%rsi, %r11
	xorq	%r8, %rdx
	addq	520(%rsp), %r11
	addq	%rdx, %rdi
	addq	648(%rsp), %rcx
	movq	728(%rsp), %rdx
	xorq	%r8, %rax
	movq	%rdi, InternalState+72(%rip)
	addq	%rax, %rdx
	leaq	(%r11,%rdi), %rsi
	movq	%r11, InternalState+64(%rip)
	leaq	(%rcx,%rdx), %r8
	movq	%rdx, InternalState+80(%rip)
	leaq	(%r11,%r14), %rax
	movq	%rcx, InternalState+88(%rip)
	addq	%r13, %rcx
	addq	%r9, %rdi
	leaq	(%rcx,%rsi), %r11
	addq	%r8, %rax
	addq	%r10, %rdx
	addq	%rdi, %r8
	addq	%rsi, %rdx
	rolq	$11, %rax
	rolq	$23, %r8
	rolq	$59, %r11
	rolq	$37, %rdx
	movq	%r11, %rsi
	movq	%r8, %rcx
	movq	-80(%rsp), %r15
	xorq	%rdx, %rsi
	xorq	%rax, %rcx
	xorq	%rsi, %r8
	xorq	%rsi, %rax
	addq	696(%rsp), %r8
	addq	664(%rsp), %rax
	xorq	%rcx, %rdx
	addq	584(%rsp), %rdx
	xorq	%rcx, %r11
	addq	616(%rsp), %r11
	movq	%r8, InternalState+56(%rip)
	leaq	(%r8,%rdx), %rdi
	leaq	(%rax,%r14), %rsi
	movq	%rdx, InternalState+48(%rip)
	movq	%r11, InternalState+40(%rip)
	leaq	(%rax,%r11), %rcx
	addq	%r9, %r11
	addq	%rdi, %rsi
	addq	%r10, %rdx
	addq	%r11, %rdi
	rolq	$11, %rsi
	rolq	$23, %rdi
	addq	%rcx, %rdx
	addq	%r13, %r8
	rolq	$37, %rdx
	movq	%rax, InternalState+32(%rip)
	addq	%r8, %rcx
	movq	%rdi, %r8
	shrq	$6, %r15
	rolq	$59, %rcx
	xorq	%rsi, %r8
	movq	%rax, 520(%rsp)
	movq	%rcx, %r11
	xorq	%r8, %rcx
	addq	552(%rsp), %rcx
	xorq	%rdx, %r11
	xorq	%r8, %rdx
	addq	504(%rsp), %rdx
	xorq	%r11, %rsi
	addq	536(%rsp), %rsi
	xorq	%r11, %rdi
	addq	568(%rsp), %rdi
	testq	%r15, %r15
	movq	%rcx, InternalState+8(%rip)
	movq	%rdx, InternalState+16(%rip)
	movq	%rsi, InternalState(%rip)
	movdqa	InternalState(%rip), %xmm0
	movq	%rdi, InternalState+24(%rip)
	movdqa	%xmm0, 904(%rsp)
	movdqa	InternalState+16(%rip), %xmm0
	movdqa	%xmm0, 920(%rsp)
	movdqa	InternalState+32(%rip), %xmm0
	movdqa	%xmm0, 936(%rsp)
	movdqa	InternalState+48(%rip), %xmm0
	movdqa	%xmm0, 952(%rsp)
	movdqa	InternalState+64(%rip), %xmm0
	movdqa	%xmm0, 968(%rsp)
	movdqa	InternalState+80(%rip), %xmm0
	movdqa	%xmm0, 984(%rsp)
	movdqa	InternalState+96(%rip), %xmm0
	movdqa	%xmm0, 1000(%rsp)
	movdqa	InternalState+112(%rip), %xmm0
	movdqa	%xmm0, 1016(%rsp)
	movq	%r15, -72(%rsp)
	je	.L49
	movq	912(%rsp), %r12
	movq	920(%rsp), %r8
	movq	928(%rsp), %r11
	movq	792(%rsp), %rdx
	movq	800(%rsp), %rcx
	movq	808(%rsp), %rbx
	movq	%r12, %rax
	movq	%r8, -64(%rsp)
	movq	816(%rsp), %rsi
	movq	%r11, -56(%rsp)
	addq	%r9, %rax
	addq	%r8, %r11
	addq	%r11, %rax
	movq	-56(%rsp), %r15
	addq	%r10, %r8
	rorq	$41, %rax
	movq	824(%rsp), %rdi
	movq	%r11, 328(%rsp)
	movq	%rax, 504(%rsp)
	movq	832(%rsp), %rax
	addq	%r13, %r15
	movq	784(%rsp), %r11
	movq	%r12, 360(%rsp)
	movq	%r8, 296(%rsp)
	movq	904(%rsp), %r12
	movq	776(%rsp), %r8
	movq	%r15, 280(%rsp)
	movq	%rax, 488(%rsp)
	movq	936(%rsp), %r15
	movq	944(%rsp), %rax
	movq	%rdx, 456(%rsp)
	movq	952(%rsp), %rdx
	movq	%rcx, 440(%rsp)
	movq	%rbx, 424(%rsp)
	movq	%rsi, 376(%rsp)
	movq	%rdi, 408(%rsp)
	movq	%r8, 392(%rsp)
	movq	%r11, 472(%rsp)
	movq	%r12, 344(%rsp)
	movq	%r15, -40(%rsp)
	movq	%rax, -8(%rsp)
	movq	%rdx, -16(%rsp)
	movq	960(%rsp), %rcx
	movq	1024(%rsp), %rax
	movq	976(%rsp), %rsi
	movq	992(%rsp), %r8
	movq	984(%rsp), %rdi
	movq	%rcx, -24(%rsp)
	addq	%rdx, %rcx
	movq	-8(%rsp), %rdx
	movq	%rax, -48(%rsp)
	addq	-40(%rsp), %rdx
	movq	-16(%rsp), %rax
	movq	%rsi, 80(%rsp)
	movq	-8(%rsp), %rsi
	movq	%rcx, 48(%rsp)
	movq	-40(%rsp), %rcx
	movq	%r8, 56(%rsp)
	addq	%r10, %rax
	movq	%rdx, 32(%rsp)
	movq	%rdi, 64(%rsp)
	addq	%rdx, %rax
	movq	-24(%rsp), %rdx
	addq	%r9, %rsi
	addq	48(%rsp), %rsi
	addq	%r14, %rcx
	addq	48(%rsp), %rcx
	rorq	$27, %rax
	movq	968(%rsp), %rbx
	movq	1000(%rsp), %r11
	addq	%r13, %rdx
	addq	32(%rsp), %rdx
	movq	1016(%rsp), %r15
	movq	1008(%rsp), %r12
	rorq	$41, %rsi
	rorq	$53, %rcx
	movq	%rbx, 96(%rsp)
	movq	%rsi, %rdi
	movq	%r11, -32(%rsp)
	movq	%r15, (%rsp)
	rorq	$5, %rdx
	xorq	%rcx, %rdi
	movq	%r12, 8(%rsp)
	movq	%rdx, %r8
	xorq	%rdi, %rdx
	xorq	%rax, %rdi
	xorq	%rax, %r8
	movq	56(%rsp), %rax
	addq	64(%rsp), %rax
	xorq	%r8, %rsi
	xorq	%rcx, %r8
	movq	%rbx, %rcx
	movq	%rsi, 264(%rsp)
	movq	80(%rsp), %rsi
	addq	%r14, %rcx
	movq	%rdx, 232(%rsp)
	movq	%rdi, 216(%rsp)
	addq	%rax, %rcx
	movq	80(%rsp), %rdx
	movq	56(%rsp), %rdi
	addq	%r9, %rsi
	rorq	$53, %rcx
	movq	%r8, 248(%rsp)
	addq	%rax, %rsi
	movq	64(%rsp), %rax
	addq	%rbx, %rdx
	rorq	$41, %rsi
	addq	%r13, %rdi
	addq	%r11, %r12
	addq	%r10, %rax
	addq	%rdx, %rax
	addq	%rdi, %rdx
	movq	%rsi, %rdi
	rorq	$5, %rdx
	rorq	$27, %rax
	xorq	%rcx, %rdi
	movq	%rdx, %r8
	xorq	%rdi, %rdx
	xorq	%rax, %rdi
	xorq	%rax, %r8
	movq	%r15, %rax
	xorq	%r8, %rsi
	xorq	%rcx, %r8
	addq	%r10, %rax
	movq	%rsi, 200(%rsp)
	movq	-48(%rsp), %rcx
	addq	%r12, %rax
	movq	8(%rsp), %rsi
	movq	%rdx, 112(%rsp)
	rorq	$27, %rax
	movq	-48(%rsp), %rdx
	movq	%r8, 184(%rsp)
	addq	%r15, %rcx
	movq	%rdi, 168(%rsp)
	movq	-96(%rsp), %rbx
	movq	%rcx, 24(%rsp)
	addq	%r9, %rsi
	movq	%r11, %rcx
	addq	24(%rsp), %rsi
	addq	%r14, %rcx
	addq	%r13, %rdx
	addq	24(%rsp), %rcx
	addq	%r12, %rdx
	movq	%r12, 40(%rsp)
	rorq	$5, %rdx
	movq	%rbx, 648(%rsp)
	movq	%rdx, %r8
	rorq	$41, %rsi
	xorq	%rax, %r8
	rorq	$53, %rcx
	movq	%rsi, %rdi
	xorq	%r8, %rsi
	xorq	%rcx, %rdi
	xorq	%rcx, %r8
	movq	%rsi, 104(%rsp)
	xorq	%rdi, %rdx
	movq	-72(%rsp), %rsi
	xorq	%rax, %rdi
	addq	520(%rsp), %rsi
	movq	%r8, 152(%rsp)
	movq	%rdx, 136(%rsp)
	movq	%rdi, 120(%rsp)
	movq	%rsi, 312(%rsp)
	.p2align 4,,10
	.p2align 3
.L10:
	addq	$1, 520(%rsp)
	movq	344(%rsp), %rcx
	movabsq	$-8247349341179448980, %rdi
	xorq	520(%rsp), %rcx
	movq	360(%rsp), %rsi
	movabsq	$7860495443403156170, %r9
	movq	296(%rsp), %rax
	movq	504(%rsp), %rdx
	movabsq	$-6792583489299504353, %r12
	movabsq	$-3833335565246798826, %r10
	movabsq	$2580067509209331373, %r14
	movabsq	$-1457182779415996031, %r11
	movabsq	$-6802927476391842224, %r13
	addq	%rcx, %rsi
	addq	328(%rsp), %rcx
	addq	%rsi, %rax
	addq	280(%rsp), %rsi
	rolq	$37, %rax
	addq	%rdi, %rcx
	movq	504(%rsp), %rdi
	rolq	$59, %rsi
	rolq	$11, %rcx
	movq	%rsi, %r8
	xorq	%rcx, %rdx
	xorq	%rax, %r8
	xorq	%rdx, %rsi
	xorq	%rdx, %rax
	xorq	%r8, %rcx
	xorq	%r8, %rdi
	leaq	(%rcx,%rsi), %r8
	leaq	(%rdi,%rax), %rdx
	addq	%r12, %rdi
	addq	%r14, %rsi
	addq	%r11, %rax
	addq	%r13, %rcx
	addq	%r9, %r8
	addq	%r10, %rdx
	movabsq	$-6657276164713376882, %r9
	leaq	(%rdi,%r8), %r15
	addq	%rdx, %rsi
	addq	%r8, %rax
	addq	%rdx, %rcx
	rolq	$53, %rsi
	rolq	$7, %rax
	rolq	$19, %r15
	rolq	$31, %rcx
	movq	%rsi, %rdx
	movq	%r15, %rdi
	xorq	%rcx, %rdx
	movabsq	$-5426079245872290139, %r8
	xorq	%rax, %rdi
	movq	200(%rsp), %r10
	movabsq	$-3329063056561552456, %r11
	xorq	%rdi, %rsi
	xorq	%rcx, %rdi
	xorq	%rdx, %r15
	xorq	%rax, %rdx
	movq	%r15, %r12
	addq	232(%rsp), %r12
	movq	%rdx, 696(%rsp)
	movq	%rdi, %rdx
	addq	248(%rsp), %rdx
	movq	696(%rsp), %rax
	movq	%rsi, %rbx
	addq	216(%rsp), %rax
	addq	264(%rsp), %rbx
	movq	%rsi, 632(%rsp)
	movabsq	$-5426079245872290139, %r14
	movq	%rdi, 728(%rsp)
	movabsq	$-3329063056561552456, %rdi
	movq	%r15, 712(%rsp)
	leaq	(%r12,%rdx), %rsi
	movabsq	$-1087367646907149102, %r15
	addq	%r9, %r12
	addq	%r8, %rdx
	movq	112(%rsp), %r8
	leaq	(%rbx,%rax), %rcx
	addq	%rdi, %rbx
	addq	%r15, %rax
	addq	%rsi, %rbx
	addq	%rsi, %rax
	rolq	$19, %rbx
	addq	%rcx, %r12
	rolq	$7, %rax
	addq	%rcx, %rdx
	rolq	$53, %r12
	movq	%rbx, %r13
	rolq	$31, %rdx
	xorq	%rax, %r13
	movq	%r12, %rdi
	xorq	%rdx, %rdi
	xorq	%r13, %r12
	xorq	%rdx, %r13
	movq	184(%rsp), %rdx
	xorq	%rdi, %rbx
	xorq	%rax, %rdi
	movq	168(%rsp), %rax
	addq	%rbx, %r8
	addq	%r12, %r10
	addq	%r13, %rdx
	leaq	(%r8,%rdx), %rsi
	addq	%rdi, %rax
	leaq	(%r10,%rax), %rcx
	addq	%r15, %rax
	addq	%r11, %r10
	addq	%rsi, %rax
	addq	%rsi, %r10
	movq	104(%rsp), %r15
	rolq	$7, %rax
	rolq	$19, %r10
	addq	%r9, %r8
	addq	%r14, %rdx
	addq	%rcx, %r8
	movq	%r10, %r11
	addq	%rcx, %rdx
	rolq	$53, %r8
	xorq	%rax, %r11
	rolq	$31, %rdx
	movq	%r8, %r9
	movq	152(%rsp), %rcx
	xorq	%r11, %r8
	xorq	%rdx, %r9
	xorq	%rdx, %r11
	movq	136(%rsp), %rdx
	addq	%r8, %r15
	movq	120(%rsp), %rsi
	movq	%r15, 744(%rsp)
	xorq	%r9, %r10
	movq	744(%rsp), %r14
	xorq	%rax, %r9
	addq	%r11, %rcx
	movabsq	$-1087367646907149102, %rax
	addq	%r10, %rdx
	addq	%r9, %rsi
	leaq	(%rdx,%rcx), %r15
	addq	%rsi, %r14
	addq	%rax, %rsi
	leaq	(%rsi,%r15), %rax
	movabsq	$-3329063056561552456, %rsi
	addq	744(%rsp), %rsi
	rolq	$7, %rax
	addq	%r15, %rsi
	movabsq	$-5426079245872290139, %r15
	addq	%r15, %rcx
	movabsq	$-6657276164713376882, %r15
	rolq	$19, %rsi
	addq	%r15, %rdx
	addq	%r14, %rcx
	movq	%rsi, %r15
	addq	%r14, %rdx
	rolq	$31, %rcx
	xorq	%rax, %r15
	rolq	$53, %rdx
	movq	%rdx, %r14
	xorq	%r15, %rdx
	xorq	%rcx, %r14
	xorq	%r15, %rcx
	xorq	%r14, %rsi
	xorq	%r14, %rax
	movabsq	$-3210636887397455352, %r14
	leaq	(%rdx,%rax), %r15
	addq	%r14, %r15
	leaq	(%rcx,%rsi), %r14
	movq	%r14, 744(%rsp)
	movabsq	$5597446114060141266, %r14
	addq	744(%rsp), %r14
	movq	%r14, 744(%rsp)
	movabsq	$2199824780781266189, %r14
	addq	%r14, %rcx
	movabsq	$2818044418319133066, %r14
	addq	%r14, %rsi
	movabsq	$2553129884740551573, %r14
	addq	%r15, %rcx
	addq	%r15, %rsi
	addq	%r14, %rdx
	movabsq	$4652647413905693402, %r15
	addq	744(%rsp), %rdx
	addq	%r15, %rax
	addq	744(%rsp), %rax
	rolq	$23, %rsi
	rolq	$11, %rcx
	movq	%rsi, %r14
	xorq	%rcx, %r14
	rolq	$59, %rdx
	rolq	$37, %rax
	movq	%rdx, %r15
	xorq	%r14, %rdx
	xorq	%rax, %r14
	xorq	%rax, %r15
	addq	%r14, %r9
	addq	%rdx, %r10
	xorq	%r15, %rsi
	xorq	%rcx, %r15
	movq	%rsi, 664(%rsp)
	addq	%r8, %rsi
	movq	%r15, 616(%rsp)
	leaq	(%rsi,%r9), %rax
	addq	%r15, %r11
	movabsq	$7667772426219706969, %r8
	movabsq	$-8247349341179448980, %r15
	leaq	(%r10,%r11), %rcx
	addq	%r10, %r8
	addq	%r15, %r11
	movq	%rdx, 600(%rsp)
	addq	%rax, %r8
	leaq	(%r11,%rax), %rdx
	movabsq	$6220970056051541820, %rax
	movabsq	$4195444129992158507, %r10
	addq	%rax, %r9
	rolq	$23, %r8
	movq	%r14, 744(%rsp)
	leaq	(%r9,%rcx), %rax
	rolq	$11, %rdx
	movq	%r8, %r9
	movq	712(%rsp), %r14
	rolq	$37, %rax
	addq	%rsi, %r10
	xorq	%rdx, %r9
	addq	%rcx, %r10
	rolq	$59, %r10
	movq	%r10, %r11
	xorq	%r9, %r10
	xorq	%rax, %r9
	xorq	%rax, %r11
	leaq	(%r9,%rdi), %rax
	leaq	(%r10,%rbx), %rsi
	xorq	%r11, %r8
	xorq	%rdx, %r11
	movabsq	$7667772426219706969, %rbx
	leaq	(%r11,%r13), %rdx
	addq	%r8, %r12
	movabsq	$4195444129992158507, %r13
	leaq	(%r12,%rax), %rdi
	addq	%r13, %r12
	leaq	(%rsi,%rdx), %rcx
	addq	%rbx, %rsi
	addq	%r15, %rdx
	addq	%rdi, %rdx
	addq	%rsi, %rdi
	movabsq	$6220970056051541820, %rsi
	rolq	$23, %rdi
	addq	%rsi, %rax
	addq	%rcx, %r12
	rolq	$11, %rdx
	addq	%rcx, %rax
	rolq	$59, %r12
	movq	%rdi, %rbx
	rolq	$37, %rax
	movq	%r12, %r13
	xorq	%rdx, %rbx
	xorq	%rax, %r13
	movq	632(%rsp), %rsi
	xorq	%rbx, %r12
	xorq	%rax, %rbx
	movq	696(%rsp), %rax
	movq	728(%rsp), %r15
	addq	%r12, %r14
	xorq	%r13, %rdi
	movq	%r14, 728(%rsp)
	xorq	%rdx, %r13
	movq	728(%rsp), %rdx
	addq	%rbx, %rax
	addq	%rdi, %rsi
	movabsq	$-8247349341179448980, %rcx
	leaq	(%rsi,%rax), %r14
	addq	%r13, %r15
	addq	%r15, %rdx
	addq	%rcx, %r15
	leaq	(%r15,%r14), %rcx
	movabsq	$7667772426219706969, %r15
	addq	728(%rsp), %r15
	rolq	$11, %rcx
	addq	%r14, %r15
	movabsq	$6220970056051541820, %r14
	addq	%r14, %rax
	movabsq	$4195444129992158507, %r14
	rolq	$23, %r15
	addq	%r14, %rsi
	addq	%rdx, %rax
	movq	%r15, %r14
	addq	%rdx, %rsi
	rolq	$37, %rax
	xorq	%rcx, %r14
	rolq	$59, %rsi
	movq	%rsi, %rdx
	xorq	%r14, %rsi
	xorq	%rax, %rdx
	xorq	%r14, %rax
	movabsq	$6175231417442077265, %r14
	xorq	%rdx, %rcx
	xorq	%rdx, %r15
	leaq	(%rcx,%rsi), %rdx
	addq	%r14, %rdx
	leaq	(%r15,%rax), %r14
	movq	%r14, 728(%rsp)
	movabsq	$1022059294516476377, %r14
	addq	728(%rsp), %r14
	movq	%r14, 728(%rsp)
	movabsq	$-6093410837277433488, %r14
	addq	%r14, %rax
	movabsq	$2699039428325208307, %r14
	addq	%r14, %r15
	movabsq	$1810550724721602985, %r14
	addq	%rdx, %rax
	addq	%r14, %rsi
	addq	%r15, %rdx
	addq	728(%rsp), %rsi
	movabsq	$-7718674717865192741, %r15
	rolq	$19, %rdx
	rolq	$7, %rax
	addq	%r15, %rcx
	addq	728(%rsp), %rcx
	movq	%rdx, %r15
	xorq	%rax, %r15
	rolq	$53, %rsi
	movq	%rsi, %r14
	rolq	$31, %rcx
	xorq	%rcx, %r14
	xorq	%r15, %rsi
	xorq	%rcx, %r15
	xorq	%r14, %rdx
	addq	%r15, %r13
	xorq	%rax, %r14
	movq	%rdx, %rcx
	addq	%r14, %rbx
	addq	%rsi, %rdi
	addq	%r12, %rcx
	movq	%r15, 728(%rsp)
	movq	%rdx, 712(%rsp)
	movabsq	$-1087367646907149102, %r15
	leaq	(%rcx,%r13), %rdx
	movq	%rsi, 632(%rsp)
	leaq	(%rdi,%rbx), %rsi
	addq	%r15, %rbx
	movq	%r14, 696(%rsp)
	leaq	(%rbx,%rdx), %rax
	movabsq	$-3329063056561552456, %rbx
	movabsq	$-5426079245872290139, %r14
	addq	%rbx, %rdi
	leaq	(%rdi,%rdx), %r12
	movabsq	$-5426079245872290139, %rdi
	rolq	$7, %rax
	addq	%rdi, %r13
	movabsq	$-6657276164713376882, %rdi
	addq	%rcx, %rdi
	leaq	0(%r13,%rsi), %rdx
	rolq	$19, %r12
	addq	%rsi, %rdi
	movq	%r12, %r13
	rolq	$53, %rdi
	rolq	$31, %rdx
	xorq	%rax, %r13
	movq	%rdi, %rbx
	xorq	%r13, %rdi
	xorq	%rdx, %r13
	xorq	%rdx, %rbx
	addq	%r13, %r11
	addq	%rdi, %r8
	xorq	%rbx, %r12
	xorq	%rax, %rbx
	leaq	(%r12,%r10), %rcx
	addq	%rbx, %r9
	leaq	(%r8,%r9), %rsi
	addq	%r15, %r9
	movq	664(%rsp), %r15
	leaq	(%rcx,%r11), %rdx
	addq	%r14, %r11
	leaq	(%r9,%rdx), %rax
	movabsq	$-3329063056561552456, %r9
	addq	%r9, %r8
	leaq	(%r8,%rdx), %r10
	leaq	(%r11,%rsi), %rdx
	movabsq	$-6657276164713376882, %r8
	addq	%rcx, %r8
	rolq	$7, %rax
	movq	616(%rsp), %rcx
	rolq	$31, %rdx
	rolq	$19, %r10
	addq	%rsi, %r8
	rolq	$53, %r8
	movq	%r10, %r11
	movq	744(%rsp), %rsi
	xorq	%rax, %r11
	movq	%r8, %r9
	xorq	%rdx, %r9
	xorq	%r11, %r8
	xorq	%rdx, %r11
	movq	600(%rsp), %rdx
	addq	%r8, %r15
	xorq	%r9, %r10
	movq	%r15, 744(%rsp)
	movq	744(%rsp), %r14
	xorq	%rax, %r9
	addq	%r11, %rcx
	addq	%r9, %rsi
	movabsq	$-1087367646907149102, %rax
	addq	%r10, %rdx
	leaq	(%rdx,%rcx), %r15
	addq	%rsi, %r14
	addq	%rax, %rsi
	leaq	(%rsi,%r15), %rax
	movabsq	$-3329063056561552456, %rsi
	addq	744(%rsp), %rsi
	rolq	$7, %rax
	addq	%r15, %rsi
	movabsq	$-5426079245872290139, %r15
	addq	%r15, %rcx
	movabsq	$-6657276164713376882, %r15
	rolq	$19, %rsi
	addq	%r15, %rdx
	addq	%r14, %rcx
	movq	%rsi, %r15
	addq	%r14, %rdx
	rolq	$31, %rcx
	xorq	%rax, %r15
	rolq	$53, %rdx
	movq	%rdx, %r14
	xorq	%r15, %rdx
	xorq	%rcx, %r14
	xorq	%r15, %rcx
	xorq	%r14, %rax
	xorq	%r14, %rsi
	movabsq	$7657736904968069610, %r14
	leaq	(%rdx,%rax), %r15
	addq	%r14, %r15
	leaq	(%rcx,%rsi), %r14
	movq	%r14, 744(%rsp)
	movabsq	$-1692866721100317761, %r14
	addq	744(%rsp), %r14
	movq	%r14, 744(%rsp)
	movabsq	$-2293503970026868299, %r14
	addq	%r14, %rcx
	movabsq	$21060333966808527, %r14
	addq	%r15, %rcx
	addq	%r14, %rsi
	movabsq	$-3751294463443135658, %r14
	addq	%r15, %rsi
	addq	%r14, %rdx
	movabsq	$3378701480745353979, %r15
	addq	744(%rsp), %rdx
	addq	%r15, %rax
	addq	744(%rsp), %rax
	rolq	$23, %rsi
	rolq	$11, %rcx
	movq	%rsi, %r14
	xorq	%rcx, %r14
	rolq	$59, %rdx
	rolq	$37, %rax
	movq	%rdx, %r15
	xorq	%r14, %rdx
	xorq	%rax, %r14
	xorq	%rax, %r15
	addq	%r14, %r9
	addq	%rdx, %r10
	xorq	%r15, %rsi
	xorq	%rcx, %r15
	movq	%rsi, 664(%rsp)
	addq	%r8, %rsi
	addq	%r15, %r11
	leaq	(%rsi,%r9), %rax
	movq	%r15, 616(%rsp)
	movabsq	$7667772426219706969, %r8
	movabsq	$-8247349341179448980, %r15
	leaq	(%r10,%r11), %rcx
	addq	%r10, %r8
	addq	%r15, %r11
	movq	%rdx, 600(%rsp)
	addq	%rax, %r8
	leaq	(%r11,%rax), %rdx
	movabsq	$4195444129992158507, %r10
	movabsq	$6220970056051541820, %rax
	addq	%rax, %r9
	addq	%rsi, %r10
	rolq	$23, %r8
	leaq	(%r9,%rcx), %rax
	addq	%rcx, %r10
	rolq	$11, %rdx
	rolq	$59, %r10
	movq	%r8, %r9
	movq	%r14, 744(%rsp)
	rolq	$37, %rax
	movq	%r10, %r11
	xorq	%rdx, %r9
	xorq	%rax, %r11
	movq	712(%rsp), %r14
	xorq	%r11, %r8
	xorq	%rdx, %r11
	xorq	%r9, %r10
	leaq	(%r8,%rdi), %rsi
	xorq	%rax, %r9
	addq	%r10, %r12
	addq	%r11, %r13
	addq	%r9, %rbx
	movabsq	$7667772426219706969, %rdi
	leaq	(%rsi,%rbx), %rax
	leaq	(%r12,%r13), %rcx
	addq	%r12, %rdi
	movabsq	$6220970056051541820, %r12
	addq	%r15, %r13
	movq	728(%rsp), %r15
	addq	%r12, %rbx
	movabsq	$4195444129992158507, %r12
	leaq	0(%r13,%rax), %rdx
	addq	%rax, %rdi
	addq	%rsi, %r12
	leaq	(%rbx,%rcx), %rax
	rolq	$23, %rdi
	addq	%rcx, %r12
	rolq	$11, %rdx
	rolq	$59, %r12
	movq	%rdi, %rbx
	rolq	$37, %rax
	xorq	%rdx, %rbx
	movq	%r12, %r13
	movq	632(%rsp), %rsi
	xorq	%rax, %r13
	xorq	%rbx, %r12
	xorq	%rax, %rbx
	movq	696(%rsp), %rax
	xorq	%r13, %rdi
	xorq	%rdx, %r13
	addq	%rdi, %rsi
	addq	%r13, %r15
	addq	%r12, %r14
	movabsq	$-8247349341179448980, %rcx
	movq	%r14, 728(%rsp)
	addq	%r15, %r14
	addq	%rbx, %rax
	addq	%rcx, %r15
	leaq	(%rsi,%rax), %rdx
	leaq	(%r15,%rdx), %rcx
	movabsq	$7667772426219706969, %r15
	addq	728(%rsp), %r15
	rolq	$11, %rcx
	addq	%rdx, %r15
	movabsq	$6220970056051541820, %rdx
	rolq	$23, %r15
	addq	%rdx, %rax
	movabsq	$4195444129992158507, %rdx
	addq	%rdx, %rsi
	addq	%r14, %rax
	addq	%r14, %rsi
	rolq	$37, %rax
	movq	%r15, %r14
	rolq	$59, %rsi
	xorq	%rcx, %r14
	movq	%rsi, %rdx
	xorq	%r14, %rsi
	xorq	%rax, %rdx
	xorq	%r14, %rax
	movabsq	$-2738949068654747313, %r14
	xorq	%rdx, %rcx
	xorq	%rdx, %r15
	leaq	(%rcx,%rsi), %rdx
	addq	%r14, %rdx
	leaq	(%r15,%rax), %r14
	movq	%r14, 728(%rsp)
	movabsq	$-1023045325627492857, %r14
	addq	728(%rsp), %r14
	movq	%r14, 728(%rsp)
	movabsq	$5522384568424980818, %r14
	addq	%r14, %rax
	movabsq	$7484883476188376383, %r14
	addq	%r14, %r15
	movabsq	$-8571305747174237030, %r14
	addq	%rdx, %rax
	addq	%r14, %rsi
	addq	%r15, %rdx
	addq	728(%rsp), %rsi
	movabsq	$-6250998732066177304, %r15
	rolq	$19, %rdx
	rolq	$7, %rax
	addq	%r15, %rcx
	addq	728(%rsp), %rcx
	movq	%rdx, %r15
	xorq	%rax, %r15
	rolq	$53, %rsi
	movq	%rsi, %r14
	xorq	%r15, %rsi
	rolq	$31, %rcx
	movq	%rsi, 632(%rsp)
	xorq	%rcx, %r14
	xorq	%rcx, %r15
	xorq	%r14, %rdx
	addq	%r15, %r13
	xorq	%rax, %r14
	addq	%rdx, %r12
	movq	%r15, 728(%rsp)
	addq	%r14, %rbx
	addq	%rsi, %rdi
	movq	%rdx, 712(%rsp)
	movabsq	$-1087367646907149102, %r15
	leaq	(%r12,%r13), %rdx
	leaq	(%rdi,%rbx), %rcx
	addq	%r15, %rbx
	movabsq	$-5426079245872290139, %rsi
	movq	%r14, 696(%rsp)
	movabsq	$-3329063056561552456, %r14
	leaq	(%rbx,%rdx), %rax
	movabsq	$-3329063056561552456, %rbx
	addq	%rsi, %r13
	addq	%rbx, %rdi
	addq	%rdx, %rdi
	leaq	0(%r13,%rcx), %rdx
	movabsq	$-6657276164713376882, %r13
	addq	%r13, %r12
	rolq	$19, %rdi
	rolq	$7, %rax
	addq	%r12, %rcx
	rolq	$31, %rdx
	movq	%rdi, %r12
	rolq	$53, %rcx
	xorq	%rax, %r12
	movq	%rcx, %rsi
	xorq	%r12, %rcx
	xorq	%rdx, %r12
	xorq	%rdx, %rsi
	addq	%r12, %r11
	addq	%rcx, %r8
	xorq	%rsi, %rdi
	xorq	%rax, %rsi
	addq	%rdi, %r10
	addq	%rsi, %r9
	leaq	(%r10,%r11), %rdx
	leaq	(%r8,%r9), %rbx
	addq	%r14, %r8
	addq	%r15, %r9
	movabsq	$-5426079245872290139, %r15
	leaq	(%r8,%rdx), %r14
	movq	%r13, %r8
	addq	%r15, %r11
	addq	%r10, %r8
	leaq	(%r9,%rdx), %rax
	leaq	(%r11,%rbx), %rdx
	addq	%rbx, %r8
	rolq	$19, %r14
	movq	600(%rsp), %r9
	rolq	$53, %r8
	rolq	$7, %rax
	rolq	$31, %rdx
	movq	%r14, %r15
	movq	%r8, %r13
	movq	744(%rsp), %r11
	xorq	%rax, %r15
	xorq	%rdx, %r13
	xorq	%r13, %r14
	xorq	%r15, %r8
	xorq	%rax, %r13
	xorq	%rdx, %r15
	movq	664(%rsp), %rax
	movq	616(%rsp), %rdx
	addq	%r14, %r9
	addq	%r13, %r11
	addq	%r8, %rax
	addq	%r15, %rdx
	movq	%rax, 744(%rsp)
	leaq	(%r9,%rdx), %rbx
	movq	%rax, %r10
	movabsq	$-1087367646907149102, %rax
	addq	%r11, %r10
	addq	%rax, %r11
	leaq	(%r11,%rbx), %rax
	movabsq	$-3329063056561552456, %r11
	addq	744(%rsp), %r11
	rolq	$7, %rax
	addq	%rbx, %r11
	movabsq	$-5426079245872290139, %rbx
	addq	%rbx, %rdx
	movabsq	$-6657276164713376882, %rbx
	rolq	$19, %r11
	addq	%rbx, %r9
	addq	%r10, %rdx
	movq	%r11, %rbx
	addq	%r10, %r9
	rolq	$31, %rdx
	xorq	%rax, %rbx
	rolq	$53, %r9
	movq	%r9, %r10
	xorq	%rbx, %r9
	xorq	%rdx, %r10
	xorq	%rbx, %rdx
	xorq	%r10, %rax
	xorq	%r10, %r11
	movabsq	$1649971794476935487, %r10
	leaq	(%r9,%rax), %rbx
	addq	%r10, %rbx
	leaq	(%rdx,%r11), %r10
	movq	%r10, 744(%rsp)
	movabsq	$1915007920973660762, %r10
	addq	744(%rsp), %r10
	movq	%r10, 744(%rsp)
	movabsq	$9059564915322872455, %r10
	addq	%r10, %rdx
	movabsq	$-7724133909308953704, %r10
	addq	%rbx, %rdx
	addq	%r10, %r11
	movabsq	$3257124934342745045, %r10
	rolq	$11, %rdx
	addq	%rbx, %r11
	addq	%r10, %r9
	movabsq	$8809261046177890769, %rbx
	addq	744(%rsp), %r9
	rolq	$23, %r11
	addq	%rbx, %rax
	addq	744(%rsp), %rax
	movq	%r11, %r10
	xorq	%rdx, %r10
	rolq	$59, %r9
	rolq	$37, %rax
	movq	%r9, %rbx
	xorq	%r10, %r9
	xorq	%rax, %rbx
	xorq	%rax, %r10
	addq	%r9, %r14
	xorq	%rbx, %r11
	xorq	%rdx, %rbx
	addq	%r10, %r13
	addq	%rbx, %r15
	addq	%r11, %r8
	movq	%r11, 664(%rsp)
	leaq	(%r8,%r13), %rax
	leaq	(%r14,%r15), %r11
	movq	%rbx, 616(%rsp)
	movq	%r9, 600(%rsp)
	movabsq	$6220970056051541820, %rbx
	movq	%r10, 744(%rsp)
	movabsq	$-8247349341179448980, %rdx
	movabsq	$4195444129992158507, %r10
	movabsq	$7667772426219706969, %r9
	addq	%rbx, %r13
	addq	%r10, %r8
	addq	%rdx, %r15
	addq	%r14, %r9
	leaq	(%r15,%rax), %rdx
	movabsq	$-8247349341179448980, %r14
	addq	%rax, %r9
	leaq	0(%r13,%r11), %rax
	addq	%r8, %r11
	rolq	$23, %r9
	rolq	$59, %r11
	rolq	$11, %rdx
	rolq	$37, %rax
	movq	%r11, %r8
	movq	%r9, %r10
	xorq	%rax, %r8
	xorq	%rdx, %r10
	movabsq	$7667772426219706969, %r15
	xorq	%r8, %r9
	xorq	%r10, %r11
	xorq	%rdx, %r8
	xorq	%rax, %r10
	addq	%r9, %rcx
	addq	%r8, %r12
	leaq	(%r10,%rsi), %rax
	addq	%r11, %rdi
	leaq	(%rdi,%r12), %r13
	addq	%r14, %r12
	addq	%r15, %rdi
	leaq	(%rcx,%rax), %rsi
	addq	%rbx, %rax
	movabsq	$4195444129992158507, %rbx
	addq	%rbx, %rcx
	addq	%r13, %rax
	movq	728(%rsp), %r15
	leaq	(%r12,%rsi), %rdx
	addq	%rdi, %rsi
	addq	%rcx, %r13
	rolq	$23, %rsi
	movq	712(%rsp), %r12
	rolq	$59, %r13
	rolq	$11, %rdx
	movq	%rsi, %rbx
	movq	%r13, %rdi
	xorq	%rdx, %rbx
	rolq	$37, %rax
	xorq	%rbx, %r13
	xorq	%rax, %rdi
	xorq	%rax, %rbx
	addq	%r13, %r12
	xorq	%rdi, %rsi
	xorq	%rdx, %rdi
	movq	%r12, 728(%rsp)
	movq	696(%rsp), %rax
	addq	%rdi, %r15
	movq	632(%rsp), %r12
	movq	728(%rsp), %r14
	movabsq	$-8247349341179448980, %rdx
	addq	%rbx, %rax
	addq	%rsi, %r12
	addq	%r15, %r14
	addq	%rdx, %r15
	leaq	(%r12,%rax), %rcx
	leaq	(%r15,%rcx), %rdx
	movabsq	$7667772426219706969, %r15
	addq	728(%rsp), %r15
	rolq	$11, %rdx
	addq	%rcx, %r15
	movabsq	$6220970056051541820, %rcx
	addq	%rcx, %rax
	rolq	$23, %r15
	leaq	(%rax,%r14), %rcx
	movabsq	$4195444129992158507, %rax
	rolq	$37, %rcx
	addq	%rax, %r12
	addq	%r14, %r12
	movq	%r15, %r14
	rolq	$59, %r12
	xorq	%rdx, %r14
	movq	%r12, %rax
	xorq	%r14, %r12
	xorq	%rcx, %rax
	xorq	%r14, %rcx
	movabsq	$-2922945419276229487, %r14
	xorq	%rax, %rdx
	xorq	%rax, %r15
	leaq	(%rdx,%r12), %rax
	addq	%r14, %rax
	leaq	(%r15,%rcx), %r14
	movq	%r14, 728(%rsp)
	movabsq	$9210284522589112667, %r14
	addq	728(%rsp), %r14
	movq	%r14, 728(%rsp)
	movabsq	$-1584252685182818982, %r14
	addq	%r14, %rcx
	movabsq	$6378106504303230091, %r14
	addq	%r14, %r15
	movabsq	$-3482973570042694885, %r14
	addq	%rax, %rcx
	addq	%r14, %r12
	addq	%r15, %rax
	addq	728(%rsp), %r12
	movabsq	$6923416813890349993, %r15
	rolq	$19, %rax
	rolq	$7, %rcx
	addq	%r15, %rdx
	addq	728(%rsp), %rdx
	movq	%rax, %r15
	xorq	%rcx, %r15
	rolq	$53, %r12
	movq	%r12, %r14
	xorq	%r15, %r12
	rolq	$31, %rdx
	addq	%r12, %rsi
	movq	%r12, 632(%rsp)
	xorq	%rdx, %r14
	xorq	%r15, %rdx
	movq	%r12, preCompInternalState(%rip)
	xorq	%r14, %rax
	movq	%r14, %r15
	addq	%rdx, %rdi
	xorq	%rcx, %r15
	addq	%rax, %r13
	movabsq	$-1087367646907149102, %rcx
	leaq	0(%r13,%rdi), %r14
	addq	%r15, %rbx
	movq	%rdx, preCompInternalState+8(%rip)
	leaq	(%rsi,%rbx), %r12
	addq	%rcx, %rbx
	movq	%rax, preCompInternalState+16(%rip)
	leaq	(%rbx,%r14), %rcx
	movabsq	$-3329063056561552456, %rbx
	movq	%r15, preCompInternalState+24(%rip)
	addq	%rbx, %rsi
	movabsq	$-6657276164713376882, %rbx
	addq	%rbx, %r13
	addq	%r14, %rsi
	movabsq	$-5426079245872290139, %r14
	leaq	0(%r13,%r12), %rbx
	addq	%r14, %rdi
	rolq	$19, %rsi
	addq	%r12, %rdi
	rolq	$7, %rcx
	movq	%rsi, %r14
	rolq	$53, %rbx
	rolq	$31, %rdi
	xorq	%rcx, %r14
	movq	%rbx, %r12
	xorq	%r14, %rbx
	xorq	%rdi, %r14
	xorq	%rdi, %r12
	addq	%rbx, %r9
	addq	%r14, %r8
	xorq	%r12, %rsi
	xorq	%rcx, %r12
	movabsq	$-3329063056561552456, %rdi
	addq	%r12, %r10
	addq	%rsi, %r11
	movq	%rsi, 568(%rsp)
	movabsq	$-1087367646907149102, %rsi
	leaq	(%r9,%r10), %rcx
	addq	%r9, %rdi
	addq	%r10, %rsi
	movq	%rbx, 680(%rsp)
	movabsq	$-5426079245872290139, %r9
	leaq	(%r11,%r8), %rbx
	movabsq	$-6657276164713376882, %r10
	addq	%r9, %r8
	addq	%r10, %r11
	addq	%rcx, %r8
	movq	%r14, 584(%rsp)
	addq	%rbx, %rdi
	addq	%r11, %rcx
	addq	%rbx, %rsi
	rolq	$19, %rdi
	rolq	$53, %rcx
	rolq	$7, %rsi
	rolq	$31, %r8
	movq	%rdi, %r10
	movq	%rcx, %r9
	xorq	%rsi, %r10
	xorq	%r8, %r9
	movq	616(%rsp), %rbx
	xorq	%r10, %rcx
	xorq	%r9, %rdi
	xorq	%r9, %rsi
	movq	600(%rsp), %r9
	xorq	%r10, %r8
	movq	%rcx, %r11
	movq	744(%rsp), %r10
	addq	664(%rsp), %r11
	addq	%r8, %rbx
	movq	%rcx, 552(%rsp)
	movabsq	$-1087367646907149102, %r14
	movabsq	$-3329063056561552456, %rcx
	addq	%rdi, %r9
	movq	%r12, 536(%rsp)
	leaq	(%r9,%rbx), %r13
	addq	%rsi, %r10
	leaq	(%r11,%r10), %r12
	addq	%r14, %r10
	addq	%rcx, %r11
	movabsq	$-6657276164713376882, %r14
	addq	%r13, %r10
	addq	%r13, %r11
	addq	%r14, %r9
	movabsq	$-5426079245872290139, %r13
	rolq	$19, %r11
	addq	%r13, %rbx
	addq	%r12, %r9
	rolq	$7, %r10
	addq	%r12, %rbx
	rolq	$53, %r9
	movq	%r11, %r13
	rolq	$31, %rbx
	movq	%r9, %r12
	xorq	%r10, %r13
	xorq	%rbx, %r12
	xorq	%r13, %r9
	xorq	%r13, %rbx
	xorq	%r12, %r11
	xorq	%r12, %r10
	movabsq	$-5486504877919021346, %r13
	movabsq	$853475092736589577, %r12
	movabsq	$-4925106476758491821, %r14
	movabsq	$1906713845121804688, %rcx
	addq	%r11, %r13
	addq	%r9, %rcx
	addq	%r10, %r14
	addq	%rbx, %r12
	movq	%r13, InternalState+104(%rip)
	movq	%r14, InternalState+112(%rip)
	movq	%r12, InternalState+96(%rip)
	addq	%rcx, %r14
	addq	%r13, %r12
	movq	%rcx, InternalState+120(%rip)
	movabsq	$2181267548300685623, %r13
	movabsq	$-7393874248442859403, %rcx
	addq	%rcx, %rbx
	addq	%r13, %r11
	movabsq	$1295863579293049999, %rcx
	addq	%r14, %rbx
	addq	%r11, %r14
	movabsq	$6102157975113963195, %r11
	addq	%r11, %r9
	addq	%rcx, %r10
	rolq	$23, %r14
	addq	%r12, %r10
	addq	%r9, %r12
	rolq	$11, %rbx
	rolq	$59, %r12
	rolq	$37, %r10
	movq	%r14, %r9
	movq	%r12, %r11
	xorq	%rbx, %r9
	xorq	%r10, %r11
	xorq	%r9, %r12
	xorq	%r10, %r9
	xorq	%r11, %r14
	xorq	%rbx, %r11
	movq	%r12, 696(%rsp)
	movq	%r14, 728(%rsp)
	movq	%r14, preCompInternalState+96(%rip)
	movq	%r14, %rcx
	movq	%r11, 712(%rsp)
	movq	%r11, preCompInternalState+104(%rip)
	addq	%r9, %rsi
	movq	%r12, preCompInternalState+112(%rip)
	movq	%r9, 664(%rsp)
	addq	%r11, %r8
	addq	552(%rsp), %rcx
	addq	%r12, %rdi
	movq	%r9, preCompInternalState+120(%rip)
	movabsq	$-8247349341179448980, %r11
	movabsq	$7667772426219706969, %rbx
	leaq	(%rdi,%r8), %r10
	addq	%r8, %r11
	addq	%rdi, %rbx
	movabsq	$4195444129992158507, %r12
	movq	%r8, InternalState+64(%rip)
	movq	%rdi, InternalState+72(%rip)
	leaq	(%rcx,%rsi), %r9
	addq	%rcx, %r12
	movq	%rsi, InternalState+80(%rip)
	movq	%rcx, InternalState+88(%rip)
	addq	%r9, %r11
	addq	%r9, %rbx
	movabsq	$6220970056051541820, %r9
	addq	%rsi, %r9
	rolq	$11, %r11
	rolq	$23, %rbx
	addq	%r10, %r9
	addq	%r12, %r10
	movq	%rbx, %r12
	rolq	$37, %r9
	rolq	$59, %r10
	xorq	%r11, %r12
	movq	%r10, %r13
	xorq	%r12, %r10
	xorq	%r9, %r13
	xorq	%r12, %r9
	movq	536(%rsp), %r12
	xorq	%r13, %rbx
	xorq	%r13, %r11
	movq	%r10, preCompInternalState+80(%rip)
	movq	%rbx, preCompInternalState+64(%rip)
	addq	680(%rsp), %rbx
	movabsq	$-8247349341179448980, %r13
	movq	%r11, preCompInternalState+72(%rip)
	addq	568(%rsp), %r10
	addq	%r9, %r12
	addq	584(%rsp), %r11
	movq	%r9, preCompInternalState+88(%rip)
	movq	%r12, InternalState+48(%rip)
	leaq	(%rbx,%r12), %r9
	movq	%rbx, InternalState+56(%rip)
	movq	%r10, InternalState+40(%rip)
	movq	%r11, InternalState+32(%rip)
	leaq	(%r10,%r11), %r14
	addq	%r13, %r11
	leaq	(%r11,%r9), %r13
	movabsq	$7667772426219706969, %r11
	addq	%r11, %r10
	movabsq	$4195444129992158507, %r11
	addq	%r10, %r9
	addq	%rbx, %r11
	movabsq	$6220970056051541820, %r10
	rolq	$23, %r9
	addq	%r12, %r10
	addq	%r14, %r11
	rolq	$11, %r13
	addq	%r14, %r10
	rolq	$59, %r11
	movq	%r9, %r12
	rolq	$37, %r10
	movq	%r11, %rbx
	xorq	%r13, %r12
	xorq	%r10, %rbx
	movq	648(%rsp), %r14
	xorq	%r12, %r11
	xorq	%r12, %r10
	movq	632(%rsp), %r12
	xorq	%rbx, %r9
	xorq	%r13, %rbx
	leaq	(%r10,%r15), %r13
	addq	%rbx, %rdx
	addq	%r11, %rax
	movq	%r9, preCompInternalState+32(%rip)
	addq	%r9, %r12
	movq	%rbx, preCompInternalState+40(%rip)
	movq	%r11, preCompInternalState+48(%rip)
	movq	%r10, preCompInternalState+56(%rip)
	movq	%rdx, InternalState(%rip)
	movq	%rax, InternalState+8(%rip)
	movq	%r12, InternalState+24(%rip)
	movq	%r13, InternalState+16(%rip)
	xorq	(%r14), %rdx
	movq	%rdx, InternalState(%rip)
	xorq	8(%r14), %rax
	movq	%rax, InternalState+8(%rip)
	xorq	16(%r14), %r13
	movq	%rax, 680(%rsp)
	movq	%r13, InternalState+16(%rip)
	xorq	24(%r14), %r12
	movq	%r12, InternalState+24(%rip)
	xorq	32(%r14), %r8
	leaq	0(%r13,%r12), %r15
	movq	%r8, InternalState+64(%rip)
	xorq	40(%r14), %rdi
	movq	%rdi, InternalState+72(%rip)
	xorq	48(%r14), %rsi
	movq	%rsi, InternalState+80(%rip)
	xorq	56(%r14), %rcx
	movq	%rax, %r14
	movabsq	$-8247349341179448980, %rax
	addq	%rdx, %r14
	addq	%rdx, %rax
	leaq	(%rax,%r15), %rdx
	movabsq	$7667772426219706969, %rax
	addq	680(%rsp), %rax
	rolq	$11, %rdx
	addq	%rax, %r15
	movabsq	$6220970056051541820, %rax
	addq	%rax, %r13
	movabsq	$4195444129992158507, %rax
	rolq	$23, %r15
	addq	%rax, %r12
	addq	%r14, %r13
	movq	%r15, %rax
	addq	%r12, %r14
	rolq	$37, %r13
	xorq	%rdx, %rax
	rolq	$59, %r14
	movq	%r14, %r12
	xorq	%rax, %r14
	xorq	%r13, %rax
	xorq	%r13, %r12
	xorq	%r12, %rdx
	xorq	%r12, %r15
	movabsq	$7860495443403156170, %r12
	leaq	(%rdx,%r14), %r13
	addq	%r12, %r13
	leaq	(%r15,%rax), %r12
	movq	%r12, 744(%rsp)
	movabsq	$-3833335565246798826, %r12
	addq	744(%rsp), %r12
	movq	%r12, 744(%rsp)
	movabsq	$-1457182779415996031, %r12
	addq	%r12, %rax
	movabsq	$-6792583489299504353, %r12
	addq	%r12, %r15
	addq	%r13, %rax
	movabsq	$2580067509209331373, %r12
	addq	%r13, %r15
	movabsq	$-6802927476391842224, %r13
	rolq	$7, %rax
	rolq	$19, %r15
	addq	%r13, %rdx
	addq	744(%rsp), %rdx
	addq	%r12, %r14
	movq	744(%rsp), %r12
	addq	%r14, %r12
	movq	%r15, %r14
	rolq	$31, %rdx
	rolq	$53, %r12
	xorq	%rax, %r14
	movq	%r12, %r13
	xorq	%r14, %r12
	xorq	%rdx, %r14
	xorq	%rdx, %r13
	movq	%r12, 632(%rsp)
	addq	632(%rsp), %r9
	xorq	%r13, %r15
	addq	%r14, %rbx
	xorq	%rax, %r13
	movq	%r15, %r12
	addq	%r13, %r10
	movq	%r14, 616(%rsp)
	addq	%r11, %r12
	movq	%r15, 600(%rsp)
	movabsq	$-1087367646907149102, %r14
	leaq	(%r12,%rbx), %rdx
	movabsq	$-3329063056561552456, %r15
	movq	%r13, 744(%rsp)
	leaq	(%r9,%r10), %r13
	addq	%r14, %r10
	addq	%r15, %r9
	leaq	(%r10,%rdx), %rax
	leaq	(%r9,%rdx), %r11
	movabsq	$-5426079245872290139, %rdx
	addq	%rdx, %rbx
	movabsq	$-8247349341179448980, %r9
	movabsq	$7667772426219706969, %r10
	leaq	(%rbx,%r13), %rdx
	movabsq	$-6657276164713376882, %rbx
	rolq	$19, %r11
	addq	%rbx, %r12
	rolq	$7, %rax
	movq	%r11, %rbx
	addq	%r12, %r13
	rolq	$31, %rdx
	xorq	%rax, %rbx
	rolq	$53, %r13
	movabsq	$4195444129992158507, %r14
	movabsq	$6220970056051541820, %r12
	movq	%r13, %r15
	xorq	%rbx, %r13
	xorq	%rdx, %rbx
	xorq	%rdx, %r15
	leaq	(%rcx,%rsi), %rdx
	xorq	%r15, %r11
	xorq	%rax, %r15
	leaq	(%rdi,%r8), %rax
	addq	%r9, %r8
	addq	%rdx, %r8
	rolq	$11, %r8
	addq	%r10, %rdi
	addq	%r14, %rcx
	addq	%r12, %rsi
	addq	%rax, %rcx
	addq	%rdx, %rdi
	addq	%rax, %rsi
	rolq	$59, %rcx
	rolq	$23, %rdi
	rolq	$37, %rsi
	movq	%rcx, %r9
	movq	%rdi, %r10
	xorq	%rsi, %r9
	xorq	%r8, %r10
	movabsq	$-1087367646907149102, %rax
	xorq	%r9, %r8
	xorq	%r9, %rdi
	xorq	%r10, %rcx
	leaq	(%rbx,%r8), %rdx
	leaq	0(%r13,%rdi), %r9
	xorq	%r10, %rsi
	addq	%r11, %rcx
	addq	%r15, %rsi
	movabsq	$-5426079245872290139, %rdi
	leaq	(%rcx,%rdx), %r14
	leaq	(%r9,%rsi), %r12
	addq	%rsi, %rax
	addq	%rdi, %rdx
	movabsq	$-3329063056561552456, %rsi
	movabsq	$-6657276164713376882, %rdi
	addq	%rsi, %r9
	addq	%rcx, %rdi
	addq	%r14, %rax
	addq	%r14, %r9
	addq	%r12, %rdi
	addq	%r12, %rdx
	rolq	$53, %rdi
	rolq	$19, %r9
	rolq	$7, %rax
	rolq	$31, %rdx
	movq	%r9, %r10
	movq	%rdi, %r8
	xorq	%rax, %r10
	xorq	%rdx, %r8
	movq	712(%rsp), %rcx
	xorq	%r10, %rdi
	movq	696(%rsp), %r12
	xorq	%rdx, %r10
	xorq	%r8, %r9
	xorq	%rax, %r8
	movq	728(%rsp), %rax
	movq	664(%rsp), %r14
	addq	%r10, %rcx
	addq	%r9, %r12
	addq	%rdi, %rax
	leaq	(%r12,%rcx), %rsi
	movq	%rax, 728(%rsp)
	addq	%r8, %r14
	movq	%rax, %rdx
	movabsq	$-1087367646907149102, %rax
	addq	%r14, %rdx
	addq	%rax, %r14
	leaq	(%r14,%rsi), %rax
	movabsq	$-3329063056561552456, %r14
	addq	728(%rsp), %r14
	rolq	$7, %rax
	addq	%r14, %rsi
	movabsq	$-5426079245872290139, %r14
	addq	%r14, %rcx
	movabsq	$-6657276164713376882, %r14
	rolq	$19, %rsi
	addq	%r14, %r12
	addq	%rdx, %rcx
	movq	%rsi, %r14
	addq	%r12, %rdx
	rolq	$31, %rcx
	xorq	%rax, %r14
	rolq	$53, %rdx
	movq	%rdx, %r12
	xorq	%r14, %rdx
	xorq	%rcx, %r12
	xorq	%r14, %rcx
	xorq	%r12, %rax
	xorq	%r12, %rsi
	movabsq	$-3210636887397455352, %r12
	leaq	(%rdx,%rax), %r14
	addq	%r12, %r14
	leaq	(%rcx,%rsi), %r12
	movq	%r12, 728(%rsp)
	movabsq	$5597446114060141266, %r12
	addq	728(%rsp), %r12
	movq	%r12, 728(%rsp)
	movabsq	$2199824780781266189, %r12
	addq	%r12, %rcx
	movabsq	$2818044418319133066, %r12
	addq	%r12, %rsi
	addq	%r14, %rcx
	movabsq	$2553129884740551573, %r12
	addq	%r14, %rsi
	movabsq	$4652647413905693402, %r14
	rolq	$11, %rcx
	rolq	$23, %rsi
	addq	%r14, %rax
	addq	728(%rsp), %rax
	addq	%r12, %rdx
	addq	728(%rsp), %rdx
	movq	%rsi, %r12
	xorq	%rcx, %r12
	rolq	$37, %rax
	rolq	$59, %rdx
	movq	%rdx, %r14
	xorq	%r12, %rdx
	xorq	%rax, %r12
	xorq	%rax, %r14
	addq	%r12, %r8
	addq	%rdx, %r9
	xorq	%r14, %rsi
	xorq	%rcx, %r14
	movq	%rsi, 728(%rsp)
	addq	%rdi, %rsi
	addq	%r14, %r10
	leaq	(%rsi,%r8), %rax
	movq	%r14, 712(%rsp)
	movabsq	$7667772426219706969, %rdi
	movabsq	$-8247349341179448980, %r14
	leaq	(%r9,%r10), %rcx
	addq	%r9, %rdi
	addq	%r14, %r10
	movq	%rdx, 696(%rsp)
	addq	%rax, %rdi
	leaq	(%r10,%rax), %rdx
	movabsq	$4195444129992158507, %r9
	movabsq	$6220970056051541820, %rax
	addq	%rax, %r8
	addq	%rsi, %r9
	rolq	$23, %rdi
	leaq	(%r8,%rcx), %rax
	addq	%rcx, %r9
	rolq	$11, %rdx
	rolq	$59, %r9
	movq	%rdi, %r8
	movq	%r12, 664(%rsp)
	rolq	$37, %rax
	movq	%r9, %r10
	xorq	%rdx, %r8
	xorq	%rax, %r10
	xorq	%r8, %r9
	xorq	%rax, %r8
	xorq	%r10, %rdi
	xorq	%rdx, %r10
	addq	%r9, %r11
	addq	%r10, %rbx
	addq	%r8, %r15
	addq	%rdi, %r13
	leaq	0(%r13,%r15), %rax
	leaq	(%r11,%rbx), %rcx
	addq	%r14, %rbx
	movabsq	$6220970056051541820, %rsi
	movabsq	$4195444129992158507, %r12
	movq	600(%rsp), %r14
	leaq	(%rbx,%rax), %rdx
	movabsq	$7667772426219706969, %rbx
	addq	%rsi, %r15
	addq	%rbx, %r11
	addq	%r13, %r12
	movq	632(%rsp), %rsi
	addq	%rax, %r11
	addq	%rcx, %r12
	leaq	(%r15,%rcx), %rax
	rolq	$23, %r11
	rolq	$11, %rdx
	rolq	$59, %r12
	movq	%r11, %rbx
	rolq	$37, %rax
	movq	%r12, %r13
	xorq	%rdx, %rbx
	xorq	%rax, %r13
	movq	616(%rsp), %r15
	xorq	%rbx, %r12
	xorq	%rax, %rbx
	movq	744(%rsp), %rax
	xorq	%r13, %r11
	xorq	%rdx, %r13
	addq	%r12, %r14
	addq	%r11, %rsi
	addq	%r13, %r15
	movabsq	$-8247349341179448980, %rcx
	addq	%rbx, %rax
	movq	%r14, 680(%rsp)
	addq	%r15, %r14
	leaq	(%rsi,%rax), %rdx
	addq	%rcx, %r15
	leaq	(%r15,%rdx), %rcx
	movabsq	$7667772426219706969, %r15
	addq	680(%rsp), %r15
	rolq	$11, %rcx
	addq	%rdx, %r15
	movabsq	$6220970056051541820, %rdx
	addq	%rdx, %rax
	movabsq	$4195444129992158507, %rdx
	rolq	$23, %r15
	addq	%rdx, %rsi
	addq	%r14, %rax
	addq	%r14, %rsi
	rolq	$37, %rax
	movq	%r15, %r14
	rolq	$59, %rsi
	xorq	%rcx, %r14
	movq	%rsi, %rdx
	xorq	%r14, %rsi
	xorq	%rax, %rdx
	xorq	%r14, %rax
	movabsq	$6175231417442077265, %r14
	xorq	%rdx, %rcx
	xorq	%rdx, %r15
	leaq	(%rcx,%rsi), %rdx
	addq	%r14, %rdx
	leaq	(%r15,%rax), %r14
	movq	%r14, 744(%rsp)
	movabsq	$1022059294516476377, %r14
	addq	744(%rsp), %r14
	movq	%r14, 744(%rsp)
	movabsq	$-6093410837277433488, %r14
	addq	%r14, %rax
	movabsq	$2699039428325208307, %r14
	addq	%r14, %r15
	movabsq	$1810550724721602985, %r14
	addq	%rdx, %rax
	addq	%r14, %rsi
	addq	%r15, %rdx
	addq	744(%rsp), %rsi
	movabsq	$-7718674717865192741, %r15
	rolq	$19, %rdx
	rolq	$7, %rax
	addq	%r15, %rcx
	addq	744(%rsp), %rcx
	movq	%rdx, %r15
	xorq	%rax, %r15
	rolq	$53, %rsi
	movq	%rsi, %r14
	xorq	%r15, %rsi
	rolq	$31, %rcx
	addq	%rsi, %r11
	movq	%rsi, 632(%rsp)
	xorq	%rcx, %r14
	xorq	%rcx, %r15
	xorq	%r14, %rdx
	addq	%r15, %r13
	xorq	%rax, %r14
	movq	%rdx, %rcx
	addq	%r14, %rbx
	movq	%r15, 616(%rsp)
	addq	%r12, %rcx
	movq	%rdx, 600(%rsp)
	movabsq	$-1087367646907149102, %r15
	leaq	(%rcx,%r13), %rdx
	leaq	(%r11,%rbx), %rsi
	addq	%r15, %rbx
	movq	%r14, 744(%rsp)
	movabsq	$-3329063056561552456, %r14
	leaq	(%rbx,%rdx), %rax
	movabsq	$-3329063056561552456, %rbx
	rolq	$7, %rax
	addq	%rbx, %r11
	leaq	(%r11,%rdx), %r12
	movabsq	$-5426079245872290139, %r11
	addq	%r11, %r13
	movabsq	$-6657276164713376882, %r11
	addq	%rcx, %r11
	leaq	0(%r13,%rsi), %rdx
	rolq	$19, %r12
	addq	%rsi, %r11
	movq	%r12, %r13
	rolq	$53, %r11
	rolq	$31, %rdx
	xorq	%rax, %r13
	movq	%r11, %rbx
	xorq	%r13, %r11
	xorq	%rdx, %r13
	xorq	%rdx, %rbx
	addq	%r13, %r10
	addq	%r11, %rdi
	xorq	%rbx, %r12
	xorq	%rax, %rbx
	leaq	(%r12,%r9), %rcx
	addq	%rbx, %r8
	leaq	(%rdi,%r8), %rsi
	addq	%r14, %rdi
	addq	%r15, %r8
	leaq	(%rcx,%r10), %rdx
	movabsq	$-5426079245872290139, %r15
	addq	%r15, %r10
	leaq	(%rdi,%rdx), %r9
	movabsq	$-6657276164713376882, %rdi
	leaq	(%r8,%rdx), %rax
	addq	%rcx, %rdi
	leaq	(%r10,%rsi), %rdx
	movq	712(%rsp), %rcx
	addq	%rsi, %rdi
	rolq	$19, %r9
	rolq	$7, %rax
	rolq	$53, %rdi
	rolq	$31, %rdx
	movq	%r9, %r10
	movq	%rdi, %r8
	xorq	%rax, %r10
	movq	664(%rsp), %rsi
	xorq	%rdx, %r8
	xorq	%r10, %rdi
	xorq	%rdx, %r10
	xorq	%r8, %r9
	movq	696(%rsp), %rdx
	xorq	%rax, %r8
	movq	728(%rsp), %rax
	addq	%r10, %rcx
	addq	%r9, %rdx
	addq	%r8, %rsi
	addq	%rdi, %rax
	leaq	(%rdx,%rcx), %r15
	movq	%rax, 728(%rsp)
	movq	%rax, %r14
	movabsq	$-1087367646907149102, %rax
	addq	%rsi, %r14
	addq	%rax, %rsi
	leaq	(%rsi,%r15), %rax
	movabsq	$-3329063056561552456, %rsi
	addq	728(%rsp), %rsi
	rolq	$7, %rax
	addq	%r15, %rsi
	movabsq	$-5426079245872290139, %r15
	addq	%r15, %rcx
	movabsq	$-6657276164713376882, %r15
	rolq	$19, %rsi
	addq	%r15, %rdx
	addq	%r14, %rcx
	movq	%rsi, %r15
	addq	%r14, %rdx
	rolq	$31, %rcx
	xorq	%rax, %r15
	rolq	$53, %rdx
	movq	%rdx, %r14
	xorq	%r15, %rdx
	xorq	%rcx, %r14
	xorq	%r15, %rcx
	xorq	%r14, %rax
	xorq	%r14, %rsi
	movabsq	$7657736904968069610, %r14
	leaq	(%rdx,%rax), %r15
	addq	%r14, %r15
	leaq	(%rcx,%rsi), %r14
	movq	%r14, 728(%rsp)
	movabsq	$-1692866721100317761, %r14
	addq	728(%rsp), %r14
	movq	%r14, 728(%rsp)
	movabsq	$-2293503970026868299, %r14
	addq	%r14, %rcx
	movabsq	$21060333966808527, %r14
	addq	%r14, %rsi
	addq	%r15, %rcx
	movabsq	$-3751294463443135658, %r14
	addq	%r15, %rsi
	movabsq	$3378701480745353979, %r15
	addq	%r14, %rdx
	addq	%r15, %rax
	addq	728(%rsp), %rdx
	addq	728(%rsp), %rax
	rolq	$11, %rcx
	rolq	$23, %rsi
	movq	%rsi, %r14
	rolq	$37, %rax
	rolq	$59, %rdx
	xorq	%rcx, %r14
	movq	%rdx, %r15
	xorq	%r14, %rdx
	xorq	%rax, %r14
	xorq	%rax, %r15
	addq	%r14, %r8
	addq	%rdx, %r9
	xorq	%r15, %rsi
	xorq	%rcx, %r15
	movq	%rdx, 696(%rsp)
	movq	%rsi, 728(%rsp)
	addq	%rdi, %rsi
	addq	%r15, %r10
	leaq	(%rsi,%r8), %rax
	movq	%r15, 712(%rsp)
	movabsq	$7667772426219706969, %rdi
	movabsq	$-8247349341179448980, %r15
	leaq	(%r9,%r10), %rcx
	addq	%r9, %rdi
	addq	%r15, %r10
	addq	%rax, %rdi
	movabsq	$4195444129992158507, %r9
	leaq	(%r10,%rax), %rdx
	movabsq	$6220970056051541820, %rax
	addq	%rsi, %r9
	addq	%rax, %r8
	addq	%rcx, %r9
	rolq	$23, %rdi
	leaq	(%r8,%rcx), %rax
	rolq	$59, %r9
	rolq	$11, %rdx
	movq	%r9, %r10
	movq	%rdi, %r8
	movq	%r14, 664(%rsp)
	rolq	$37, %rax
	xorq	%rdx, %r8
	movq	600(%rsp), %r14
	xorq	%rax, %r10
	xorq	%r8, %r9
	xorq	%rax, %r8
	xorq	%r10, %rdi
	addq	%r8, %rbx
	xorq	%rdx, %r10
	leaq	(%rdi,%r11), %rsi
	addq	%r9, %r12
	addq	%r10, %r13
	leaq	(%r12,%r13), %rcx
	addq	%r15, %r13
	movabsq	$7667772426219706969, %r11
	leaq	(%rsi,%rbx), %rax
	addq	%r12, %r11
	movabsq	$6220970056051541820, %r12
	movq	616(%rsp), %r15
	leaq	0(%r13,%rax), %rdx
	rolq	$11, %rdx
	addq	%rax, %r11
	addq	%r12, %rbx
	movabsq	$4195444129992158507, %r12
	rolq	$23, %r11
	leaq	(%rbx,%rcx), %rax
	addq	%rsi, %r12
	movq	%r11, %rbx
	addq	%rcx, %r12
	xorq	%rdx, %rbx
	rolq	$37, %rax
	rolq	$59, %r12
	movabsq	$-8247349341179448980, %rcx
	movq	%r12, %r13
	xorq	%rbx, %r12
	xorq	%rax, %rbx
	addq	%r12, %r14
	xorq	%rax, %r13
	movq	%r14, 680(%rsp)
	movq	744(%rsp), %rax
	xorq	%r13, %r11
	movq	632(%rsp), %rsi
	xorq	%rdx, %r13
	addq	%r13, %r15
	addq	%rbx, %rax
	addq	%r15, %r14
	addq	%rcx, %r15
	addq	%r11, %rsi
	leaq	(%rsi,%rax), %rdx
	leaq	(%r15,%rdx), %rcx
	movabsq	$7667772426219706969, %r15
	addq	680(%rsp), %r15
	rolq	$11, %rcx
	addq	%rdx, %r15
	movabsq	$6220970056051541820, %rdx
	addq	%rdx, %rax
	movabsq	$4195444129992158507, %rdx
	rolq	$23, %r15
	addq	%rdx, %rsi
	addq	%r14, %rax
	addq	%r14, %rsi
	rolq	$37, %rax
	movq	%r15, %r14
	rolq	$59, %rsi
	xorq	%rcx, %r14
	movq	%rsi, %rdx
	xorq	%rax, %rdx
	xorq	%rdx, %r15
	xorq	%rdx, %rcx
	xorq	%r14, %rsi
	leaq	(%rcx,%rsi), %rdx
	xorq	%r14, %rax
	movabsq	$-2738949068654747313, %r14
	addq	%r14, %rdx
	leaq	(%r15,%rax), %r14
	movq	%r14, 744(%rsp)
	movabsq	$-1023045325627492857, %r14
	addq	744(%rsp), %r14
	movq	%r14, 744(%rsp)
	movabsq	$5522384568424980818, %r14
	addq	%r14, %rax
	movabsq	$7484883476188376383, %r14
	addq	%r14, %r15
	movabsq	$-8571305747174237030, %r14
	addq	%rdx, %rax
	addq	%r14, %rsi
	addq	%r15, %rdx
	addq	744(%rsp), %rsi
	movabsq	$-6250998732066177304, %r15
	rolq	$19, %rdx
	rolq	$7, %rax
	addq	%r15, %rcx
	addq	744(%rsp), %rcx
	movq	%rdx, %r15
	xorq	%rax, %r15
	rolq	$53, %rsi
	movq	%rsi, %r14
	xorq	%r15, %rsi
	rolq	$31, %rcx
	addq	%rsi, %r11
	movq	%rsi, 632(%rsp)
	xorq	%rcx, %r14
	xorq	%rcx, %r15
	xorq	%r14, %rdx
	addq	%r15, %r13
	xorq	%rax, %r14
	movq	%rdx, %rcx
	addq	%r14, %rbx
	movq	%r15, 616(%rsp)
	addq	%r12, %rcx
	movq	%rdx, 600(%rsp)
	movabsq	$-1087367646907149102, %r15
	leaq	(%rcx,%r13), %rdx
	leaq	(%r11,%rbx), %rsi
	addq	%r15, %rbx
	movq	%r14, 744(%rsp)
	movabsq	$-3329063056561552456, %r14
	leaq	(%rbx,%rdx), %rax
	movabsq	$-3329063056561552456, %rbx
	addq	%rbx, %r11
	leaq	(%r11,%rdx), %r12
	movabsq	$-5426079245872290139, %r11
	rolq	$7, %rax
	addq	%r11, %r13
	movabsq	$-6657276164713376882, %r11
	leaq	0(%r13,%rsi), %rdx
	addq	%rcx, %r11
	rolq	$19, %r12
	movq	%r12, %r13
	rolq	$31, %rdx
	addq	%rsi, %r11
	xorq	%rax, %r13
	rolq	$53, %r11
	movq	%r11, %rbx
	xorq	%r13, %r11
	xorq	%rdx, %r13
	xorq	%rdx, %rbx
	addq	%r13, %r10
	addq	%r11, %rdi
	xorq	%rbx, %r12
	xorq	%rax, %rbx
	leaq	(%r12,%r9), %rcx
	addq	%rbx, %r8
	leaq	(%rdi,%r8), %rsi
	addq	%r14, %rdi
	addq	%r15, %r8
	leaq	(%rcx,%r10), %rdx
	movabsq	$-5426079245872290139, %r15
	addq	%r15, %r10
	leaq	(%rdi,%rdx), %r9
	movabsq	$-6657276164713376882, %rdi
	leaq	(%r8,%rdx), %rax
	addq	%rcx, %rdi
	leaq	(%r10,%rsi), %rdx
	movq	712(%rsp), %rcx
	addq	%rsi, %rdi
	rolq	$19, %r9
	rolq	$7, %rax
	rolq	$53, %rdi
	rolq	$31, %rdx
	movq	%r9, %r10
	movq	%rdi, %r8
	xorq	%rax, %r10
	movq	664(%rsp), %rsi
	xorq	%rdx, %r8
	xorq	%r10, %rdi
	xorq	%rdx, %r10
	xorq	%r8, %r9
	movq	696(%rsp), %rdx
	xorq	%rax, %r8
	movq	728(%rsp), %rax
	addq	%r10, %rcx
	addq	%r8, %rsi
	addq	%r9, %rdx
	addq	%rdi, %rax
	leaq	(%rdx,%rcx), %r15
	movq	%rax, 728(%rsp)
	movq	%rax, %r14
	movabsq	$-1087367646907149102, %rax
	addq	%rsi, %r14
	addq	%rax, %rsi
	leaq	(%rsi,%r15), %rax
	movabsq	$-3329063056561552456, %rsi
	rolq	$7, %rax
	addq	728(%rsp), %rsi
	addq	%r15, %rsi
	movabsq	$-5426079245872290139, %r15
	addq	%r15, %rcx
	movabsq	$-6657276164713376882, %r15
	rolq	$19, %rsi
	addq	%r15, %rdx
	addq	%r14, %rcx
	movq	%rsi, %r15
	addq	%r14, %rdx
	rolq	$31, %rcx
	xorq	%rax, %r15
	rolq	$53, %rdx
	movq	%rdx, %r14
	xorq	%r15, %rdx
	xorq	%rcx, %r14
	xorq	%r15, %rcx
	xorq	%r14, %rax
	xorq	%r14, %rsi
	movabsq	$1649971794476935487, %r14
	leaq	(%rdx,%rax), %r15
	addq	%r14, %r15
	leaq	(%rcx,%rsi), %r14
	movq	%r14, 728(%rsp)
	movabsq	$1915007920973660762, %r14
	addq	728(%rsp), %r14
	movq	%r14, 728(%rsp)
	movabsq	$9059564915322872455, %r14
	addq	%r14, %rcx
	movabsq	$-7724133909308953704, %r14
	addq	%r14, %rsi
	movabsq	$3257124934342745045, %r14
	addq	%r15, %rcx
	addq	%r15, %rsi
	addq	%r14, %rdx
	movabsq	$8809261046177890769, %r15
	addq	728(%rsp), %rdx
	addq	%r15, %rax
	addq	728(%rsp), %rax
	rolq	$23, %rsi
	rolq	$11, %rcx
	movq	%rsi, %r14
	xorq	%rcx, %r14
	rolq	$59, %rdx
	rolq	$37, %rax
	movq	%rdx, %r15
	xorq	%rax, %r15
	xorq	%r15, %rsi
	xorq	%rcx, %r15
	xorq	%r14, %rdx
	xorq	%rax, %r14
	movq	%rsi, 728(%rsp)
	addq	%rdi, %rsi
	addq	%r14, %r8
	addq	%rdx, %r9
	addq	%r15, %r10
	leaq	(%rsi,%r8), %rax
	movq	%r15, 712(%rsp)
	movabsq	$7667772426219706969, %rdi
	movabsq	$-8247349341179448980, %r15
	leaq	(%r9,%r10), %rcx
	addq	%r9, %rdi
	addq	%r15, %r10
	addq	%rax, %rdi
	movq	%rdx, 696(%rsp)
	movabsq	$4195444129992158507, %r9
	leaq	(%r10,%rax), %rdx
	movabsq	$6220970056051541820, %rax
	addq	%rax, %r8
	addq	%rsi, %r9
	rolq	$23, %rdi
	leaq	(%r8,%rcx), %rax
	addq	%rcx, %r9
	rolq	$11, %rdx
	rolq	$59, %r9
	movq	%rdi, %r8
	movq	%r14, 664(%rsp)
	rolq	$37, %rax
	movq	%r9, %r10
	xorq	%rdx, %r8
	xorq	%rax, %r10
	xorq	%r8, %r9
	xorq	%rax, %r8
	xorq	%r10, %rdi
	xorq	%rdx, %r10
	addq	%r9, %r12
	leaq	(%rdi,%r11), %rsi
	addq	%r10, %r13
	addq	%r8, %rbx
	movabsq	$7667772426219706969, %r11
	leaq	(%r12,%r13), %rcx
	addq	%r15, %r13
	leaq	(%rsi,%rbx), %rax
	addq	%r12, %r11
	movabsq	$6220970056051541820, %r12
	addq	%r12, %rbx
	movabsq	$4195444129992158507, %r12
	movq	616(%rsp), %r15
	leaq	0(%r13,%rax), %rdx
	addq	%rax, %r11
	leaq	(%rbx,%rcx), %rax
	addq	%rsi, %r12
	rolq	$23, %r11
	movq	632(%rsp), %rsi
	rolq	$11, %rdx
	rolq	$37, %rax
	addq	%rcx, %r12
	rolq	$59, %r12
	movq	%r11, %rbx
	movq	600(%rsp), %r14
	xorq	%rdx, %rbx
	movq	%r12, %r13
	movabsq	$-8247349341179448980, %rcx
	xorq	%rax, %r13
	xorq	%rbx, %r12
	xorq	%rax, %rbx
	movq	744(%rsp), %rax
	xorq	%r13, %r11
	xorq	%rdx, %r13
	addq	%r11, %rsi
	addq	%r13, %r15
	addq	%r12, %r14
	movq	%r14, 680(%rsp)
	addq	%r15, %r14
	addq	%rcx, %r15
	addq	%rbx, %rax
	leaq	(%rsi,%rax), %rdx
	leaq	(%r15,%rdx), %rcx
	movabsq	$7667772426219706969, %r15
	addq	680(%rsp), %r15
	rolq	$11, %rcx
	addq	%rdx, %r15
	movabsq	$6220970056051541820, %rdx
	addq	%rdx, %rax
	movabsq	$4195444129992158507, %rdx
	rolq	$23, %r15
	addq	%rdx, %rsi
	addq	%r14, %rax
	addq	%r14, %rsi
	rolq	$37, %rax
	movq	%r15, %r14
	rolq	$59, %rsi
	xorq	%rcx, %r14
	movq	%rsi, %rdx
	xorq	%r14, %rsi
	xorq	%rax, %rdx
	xorq	%r14, %rax
	movabsq	$-2922945419276229487, %r14
	xorq	%rdx, %rcx
	xorq	%rdx, %r15
	leaq	(%rcx,%rsi), %rdx
	addq	%r14, %rdx
	leaq	(%r15,%rax), %r14
	movq	%r14, 744(%rsp)
	movabsq	$9210284522589112667, %r14
	addq	744(%rsp), %r14
	movq	%r14, 744(%rsp)
	movabsq	$-1584252685182818982, %r14
	addq	%r14, %rax
	movabsq	$6378106504303230091, %r14
	addq	%rdx, %rax
	addq	%r14, %r15
	movabsq	$-3482973570042694885, %r14
	addq	%r15, %rdx
	movabsq	$6923416813890349993, %r15
	addq	%r14, %rsi
	addq	%r15, %rcx
	addq	744(%rsp), %rsi
	addq	744(%rsp), %rcx
	rolq	$19, %rdx
	rolq	$7, %rax
	movq	%rdx, %r15
	xorq	%rax, %r15
	rolq	$31, %rcx
	rolq	$53, %rsi
	movq	%rsi, %r14
	xorq	%r15, %rsi
	xorq	%rcx, %r15
	movq	%r15, 616(%rsp)
	addq	616(%rsp), %r13
	xorq	%rcx, %r14
	xorq	%r14, %rdx
	movq	%r14, %r15
	addq	%rsi, %r11
	xorq	%rax, %r15
	addq	%rdx, %r12
	movq	%rdx, 600(%rsp)
	addq	%r15, %rbx
	movabsq	$-1087367646907149102, %rax
	movq	%rsi, 632(%rsp)
	leaq	(%r12,%r13), %rdx
	leaq	(%r11,%rbx), %rsi
	addq	%rax, %rbx
	movabsq	$-3329063056561552456, %rax
	movabsq	$-1087367646907149102, %r14
	leaq	(%rbx,%rdx), %rcx
	addq	%r11, %rax
	movabsq	$-6657276164713376882, %rbx
	addq	%rdx, %rax
	addq	%rbx, %r12
	movabsq	$-5426079245872290139, %rdx
	addq	%r13, %rdx
	addq	%rsi, %r12
	rolq	$19, %rax
	addq	%rsi, %rdx
	rolq	$53, %r12
	rolq	$7, %rcx
	rolq	$31, %rdx
	movq	%rax, %r11
	movq	%r12, %rsi
	xorq	%rcx, %r11
	xorq	%rdx, %rsi
	xorq	%rsi, %rax
	xorq	%r11, %r12
	xorq	%rcx, %rsi
	addq	%rsi, %r8
	addq	%r12, %rdi
	movq	%rsi, 680(%rsp)
	movabsq	$-1087367646907149102, %rsi
	xorq	%r11, %rdx
	leaq	(%rdi,%r8), %rcx
	addq	%r8, %rsi
	movabsq	$-3329063056561552456, %r8
	addq	%rdx, %r10
	addq	%rax, %r9
	addq	%r8, %rdi
	movabsq	$-5426079245872290139, %r8
	leaq	(%r9,%r10), %r11
	addq	%r10, %r8
	addq	%rbx, %r9
	addq	%rcx, %r8
	addq	%r9, %rcx
	movq	712(%rsp), %rbx
	addq	%r11, %rdi
	rolq	$53, %rcx
	addq	%r11, %rsi
	rolq	$19, %rdi
	rolq	$31, %r8
	movq	%rcx, %r9
	xorq	%r8, %r9
	rolq	$7, %rsi
	movq	%rdi, %r10
	xorq	%rsi, %r10
	xorq	%r9, %rdi
	xorq	%r9, %rsi
	movq	696(%rsp), %r9
	xorq	%r10, %rcx
	xorq	%r10, %r8
	movq	728(%rsp), %r11
	movq	664(%rsp), %r10
	addq	%r8, %rbx
	movq	%r12, 744(%rsp)
	addq	%rdi, %r9
	leaq	(%r9,%rbx), %r13
	addq	%rsi, %r10
	addq	%rcx, %r11
	leaq	(%r11,%r10), %r12
	addq	%r14, %r10
	movabsq	$-3329063056561552456, %r14
	addq	%r13, %r10
	rolq	$7, %r10
	addq	%r14, %r11
	movabsq	$-6657276164713376882, %r14
	addq	%r13, %r11
	addq	%r14, %r9
	movabsq	$-5426079245872290139, %r13
	addq	%r13, %rbx
	addq	%r12, %r9
	rolq	$19, %r11
	addq	%r12, %rbx
	rolq	$53, %r9
	movq	%r11, %r13
	rolq	$31, %rbx
	movq	%r9, %r12
	xorq	%r10, %r13
	xorq	%rbx, %r12
	xorq	%r13, %rbx
	xorq	%r13, %r9
	xorq	%r12, %r11
	xorq	%r12, %r10
	movabsq	$853475092736589577, %r12
	addq	%rbx, %r12
	movabsq	$-4925106476758491821, %r14
	movabsq	$-5486504877919021346, %r13
	movq	%r12, 712(%rsp)
	movabsq	$1906713845121804688, %r12
	addq	%r10, %r14
	addq	%r9, %r12
	addq	%r11, %r13
	addq	%r12, %r14
	movq	712(%rsp), %r12
	addq	%r13, %r12
	movabsq	$-7393874248442859403, %r13
	addq	%r13, %rbx
	movabsq	$2181267548300685623, %r13
	addq	%r13, %r11
	addq	%r14, %rbx
	movabsq	$6102157975113963195, %r13
	addq	%r11, %r14
	movabsq	$1295863579293049999, %r11
	addq	%r13, %r9
	addq	%r11, %r10
	rolq	$11, %rbx
	rolq	$23, %r14
	addq	%r12, %r10
	addq	%r9, %r12
	movq	%r14, %r9
	rolq	$37, %r10
	rolq	$59, %r12
	xorq	%rbx, %r9
	movq	%r12, %r13
	xorq	%r9, %r12
	movabsq	$-8247349341179448980, %r11
	xorq	%r10, %r13
	xorq	%r9, %r10
	addq	%r12, %rdi
	xorq	%r13, %r14
	addq	%r10, %rsi
	xorq	%r13, %rbx
	addq	%r14, %rcx
	addq	%rbx, %r8
	movabsq	$7667772426219706969, %rbx
	leaq	(%rcx,%rsi), %r9
	addq	%r8, %r11
	addq	%rdi, %rbx
	leaq	(%rdi,%r8), %r10
	movabsq	$4195444129992158507, %r12
	movabsq	$-8247349341179448980, %r14
	addq	%r9, %r11
	addq	%r9, %rbx
	movabsq	$6220970056051541820, %r9
	addq	%rcx, %r12
	addq	%rsi, %r9
	rolq	$23, %rbx
	addq	%r10, %r9
	addq	%r12, %r10
	rolq	$11, %r11
	rolq	$59, %r10
	rolq	$37, %r9
	movq	%rbx, %r12
	movq	%r10, %r13
	xorq	%r11, %r12
	xorq	%r9, %r13
	xorq	%r12, %r9
	addq	680(%rsp), %r9
	xorq	%r13, %rbx
	addq	744(%rsp), %rbx
	xorq	%r13, %r11
	xorq	%r12, %r10
	addq	%rdx, %r11
	movabsq	$6220970056051541820, %rdx
	addq	%rax, %r10
	movabsq	$7667772426219706969, %rax
	leaq	(%r10,%r11), %r13
	addq	%r14, %r11
	addq	%rax, %r10
	leaq	(%rbx,%r9), %r12
	addq	%rdx, %r9
	addq	%r8, 424(%rsp)
	addq	%r13, %r9
	addq	%rdi, 376(%rsp)
	addq	%r12, %r11
	addq	%r12, %r10
	movabsq	$4195444129992158507, %r12
	addq	%r12, %rbx
	rolq	$23, %r10
	rolq	$11, %r11
	addq	%rbx, %r13
	rolq	$37, %r9
	movq	%r10, %rax
	rolq	$59, %r13
	xorq	%r11, %rax
	movq	%r13, %rdx
	xorq	%rax, %r13
	addq	600(%rsp), %r13
	xorq	%r9, %rdx
	xorq	%rax, %r9
	addq	%r13, 472(%rsp)
	xorq	%rdx, %r10
	xorq	%rdx, %r11
	addq	632(%rsp), %r10
	addq	616(%rsp), %r11
	addq	%r15, %r9
	addq	%r10, 440(%rsp)
	addq	%r11, 392(%rsp)
	addq	%r9, 456(%rsp)
	addq	%rsi, 408(%rsp)
	addq	%rcx, 488(%rsp)
	addq	$64, 648(%rsp)
	movq	312(%rsp), %r13
	cmpq	%r13, 520(%rsp)
	jne	.L10
	movq	392(%rsp), %xmm8
	movq	-72(%rsp), %rdx
	movq	456(%rsp), %xmm9
	movhps	472(%rsp), %xmm8
	movq	424(%rsp), %xmm10
	movhps	440(%rsp), %xmm9
	movq	408(%rsp), %xmm11
	movhps	376(%rsp), %xmm10
	movhps	488(%rsp), %xmm11
	salq	$3, %rdx
	movdqa	%xmm8, 776(%rsp)
	movdqa	%xmm9, 792(%rsp)
	movdqa	%xmm10, 808(%rsp)
	movdqa	%xmm11, 824(%rsp)
.L9:
	movq	-80(%rsp), %rax
	andl	$63, %eax
	jne	.L11
	movq	824(%rsp), %rdx
	movq	832(%rsp), %rdi
	movq	784(%rsp), %rax
	movq	792(%rsp), %rcx
	movq	776(%rsp), %rbx
	movq	800(%rsp), %rsi
	movq	808(%rsp), %r9
	movq	816(%rsp), %r8
	movq	%rdx, 312(%rsp)
	movq	%rdi, 328(%rsp)
	movq	%rcx, %rdi
	movq	312(%rsp), %r11
	movq	328(%rsp), %r12
	movq	%rbx, %rdx
	movq	%r9, 280(%rsp)
	movq	%rax, 616(%rsp)
	movq	%rax, %r9
	movq	%rcx, 664(%rsp)
	movq	%rbx, 600(%rsp)
	movq	%rsi, %r10
	movq	%rsi, 696(%rsp)
	movq	%r8, 296(%rsp)
.L12:
	xorq	-64(%rsp), %rdi
	xorq	-56(%rsp), %r10
	movabsq	$-8247349341179448980, %rcx
	xorq	344(%rsp), %rdx
	xorq	360(%rsp), %r9
	movabsq	$-1376848230519552085, %r13
	xorq	80(%rsp), %r8
	movq	280(%rsp), %rsi
	movabsq	$-9209400399786843361, %r14
	xorq	96(%rsp), %rsi
	xorq	64(%rsp), %r11
	movabsq	$-369815132508846929, %r15
	leaq	(%r10,%rdi), %rax
	xorq	56(%rsp), %r12
	movabsq	$-3463520432737951897, %rbx
	movq	%r8, 80(%rsp)
	leaq	(%rdx,%r9), %r8
	addq	%rcx, %rdx
	movq	%rsi, 96(%rsp)
	leaq	(%rdx,%rax), %rsi
	movabsq	$7667772426219706969, %rdx
	addq	%rdx, %r9
	movq	%r11, 64(%rsp)
	movq	%r12, 56(%rsp)
	leaq	(%r9,%rax), %r11
	movabsq	$4195444129992158507, %r9
	movabsq	$6220970056051541820, %rax
	addq	%r9, %r10
	addq	%rax, %rdi
	rolq	$11, %rsi
	leaq	(%r10,%r8), %r12
	rolq	$23, %r11
	addq	%r8, %rdi
	rolq	$37, %rdi
	movq	%r11, %r10
	rolq	$59, %r12
	xorq	%rsi, %r10
	movq	%r12, %r8
	xorq	%r10, %r12
	xorq	%rdi, %r10
	xorq	%rdi, %r8
	addq	%r14, %r12
	addq	%r15, %r10
	xorq	%r8, %rsi
	xorq	%r8, %r11
	movabsq	$-1087367646907149102, %r8
	addq	%r13, %rsi
	movabsq	$-6792583489299504353, %r13
	addq	%r11, %rbx
	leaq	(%rsi,%r12), %rdi
	addq	%r13, %r11
	addq	%r10, %rbx
	addq	%r8, %r10
	movabsq	$-3329063056561552456, %r15
	leaq	(%r11,%rdi), %r14
	addq	%rdi, %r10
	movabsq	$-5426079245872290139, %rdi
	rolq	$7, %r10
	rolq	$19, %r14
	addq	%rdi, %rsi
	leaq	(%rsi,%rbx), %r11
	movabsq	$-6657276164713376882, %rsi
	addq	%rsi, %r12
	addq	%rbx, %r12
	rolq	$31, %r11
	movq	%r14, %rbx
	rolq	$53, %r12
	xorq	%r10, %rbx
	movq	%r12, %r13
	xorq	%rbx, %r12
	xorq	%r11, %rbx
	xorq	%r11, %r13
	movq	-8(%rsp), %r11
	movq	%rbx, 680(%rsp)
	xorq	%r13, %r14
	xorq	%r10, %r13
	movq	-40(%rsp), %rbx
	movq	%r13, 568(%rsp)
	movq	-24(%rsp), %r13
	movq	-16(%rsp), %r10
	addq	%rdx, %r11
	addq	48(%rsp), %r11
	addq	%rcx, %rbx
	addq	48(%rsp), %rbx
	movq	%r12, 744(%rsp)
	addq	%r9, %r13
	addq	32(%rsp), %r13
	movq	%r14, 584(%rsp)
	addq	%rax, %r10
	addq	32(%rsp), %r10
	rolq	$23, %r11
	rolq	$11, %rbx
	movq	%r11, %r12
	rolq	$59, %r13
	xorq	%rbx, %r12
	rolq	$37, %r10
	movq	%r13, %r14
	xorq	%r12, %r13
	xorq	%r10, %r14
	xorq	%r12, %r10
	addq	568(%rsp), %r10
	xorq	%r14, %rbx
	xorq	%r11, %r14
	addq	744(%rsp), %r14
	addq	680(%rsp), %rbx
	addq	584(%rsp), %r13
	leaq	(%r10,%r14), %r12
	addq	%r8, %r10
	addq	%r15, %r14
	leaq	(%rbx,%r13), %r11
	addq	%rsi, %r13
	addq	%rdi, %rbx
	addq	%r12, %rbx
	addq	%r13, %r12
	addq	%r11, %r10
	rolq	$53, %r12
	addq	%r14, %r11
	rolq	$31, %rbx
	rolq	$19, %r11
	movq	%r12, %r13
	rolq	$7, %r10
	xorq	%rbx, %r13
	movq	%r11, %r14
	xorq	%r10, %r14
	xorq	%r13, %r11
	xorq	%r10, %r13
	xorq	%r14, %r12
	movq	%r11, 504(%rsp)
	xorq	%rbx, %r14
	movq	56(%rsp), %r10
	movq	96(%rsp), %rbx
	addq	64(%rsp), %r10
	movq	80(%rsp), %r11
	movq	%r12, 536(%rsp)
	movq	%r13, 488(%rsp)
	addq	%rcx, %rbx
	movq	80(%rsp), %r12
	movq	56(%rsp), %r13
	addq	96(%rsp), %r12
	addq	%rdx, %r11
	movq	%r14, 552(%rsp)
	addq	%r10, %rbx
	addq	%r10, %r11
	movq	64(%rsp), %r10
	addq	%r9, %r13
	rolq	$23, %r11
	rolq	$11, %rbx
	addq	%rax, %r10
	addq	%r12, %r13
	addq	%r12, %r10
	rolq	$59, %r13
	movq	%r11, %r12
	rolq	$37, %r10
	movq	%r13, %r14
	xorq	%r10, %r14
	xorq	%rbx, %r12
	xorq	%r12, %r13
	xorq	%r14, %rbx
	addq	504(%rsp), %r13
	addq	552(%rsp), %rbx
	xorq	%r12, %r10
	xorq	%r11, %r14
	addq	488(%rsp), %r10
	addq	536(%rsp), %r14
	leaq	(%rbx,%r13), %r11
	addq	%rsi, %r13
	addq	%rdi, %rbx
	leaq	(%r10,%r14), %r12
	addq	%r15, %r14
	addq	%r8, %r10
	addq	%r11, %r10
	addq	%r14, %r11
	rolq	$19, %r11
	addq	%r12, %rbx
	addq	%r13, %r12
	rolq	$7, %r10
	rolq	$53, %r12
	movq	%r11, %r14
	rolq	$31, %rbx
	xorq	%r10, %r14
	movq	%r12, %r13
	xorq	%rbx, %r13
	xorq	%r14, %r12
	xorq	%rbx, %r14
	movq	%r12, 648(%rsp)
	xorq	%r13, %r11
	movq	-32(%rsp), %r12
	xorq	%r10, %r13
	movq	8(%rsp), %r10
	movq	%r11, 728(%rsp)
	movq	-48(%rsp), %rbx
	movq	(%rsp), %r11
	addq	%rcx, %r12
	addq	24(%rsp), %r12
	movq	%r13, 712(%rsp)
	addq	%rdx, %r10
	addq	24(%rsp), %r10
	movq	%r14, 632(%rsp)
	rolq	$11, %r12
	rolq	$23, %r10
	addq	%rax, %r11
	addq	%r9, %rbx
	addq	40(%rsp), %rbx
	addq	40(%rsp), %r11
	movq	%r10, %r14
	xorq	%r12, %r14
	rolq	$59, %rbx
	rolq	$37, %r11
	movq	%rbx, %r13
	xorq	%r14, %rbx
	addq	728(%rsp), %rbx
	xorq	%r11, %r13
	xorq	%r14, %r11
	movq	648(%rsp), %r14
	xorq	%r13, %r12
	addq	632(%rsp), %r12
	addq	712(%rsp), %r11
	xorq	%r13, %r10
	addq	%r10, %r14
	movq	%r12, %r13
	leaq	(%r14,%r11), %r10
	addq	%r8, %r11
	addq	%rbx, %r13
	movq	%r12, 472(%rsp)
	addq	%rsi, %rbx
	leaq	(%r11,%r13), %r12
	movq	472(%rsp), %r11
	addq	%r15, %r14
	addq	%r13, %r14
	leaq	(%rbx,%r10), %r13
	rolq	$19, %r14
	rolq	$7, %r12
	addq	%rdi, %r11
	rolq	$53, %r13
	movq	%r14, %rbx
	addq	%r10, %r11
	xorq	%r12, %rbx
	movq	%r13, %r10
	rolq	$31, %r11
	xorq	%rbx, %r13
	xorq	%r11, %r10
	xorq	%r11, %rbx
	movabsq	$-7999569951748836447, %r11
	addq	%r11, %rbx
	xorq	%r10, %r14
	movabsq	$-4849728007900573903, %r11
	addq	%r11, %r14
	xorq	%r12, %r10
	movabsq	$-1568322642145848418, %r12
	addq	%r12, %r10
	movabsq	$-1642314245251606934, %r12
	leaq	(%rbx,%r14), %r11
	addq	%r13, %r12
	addq	%rdx, %r14
	addq	%rcx, %rbx
	addq	%r10, %r12
	addq	%rax, %r10
	addq	%r12, %rbx
	addq	%r14, %r12
	movabsq	$2553129884740551573, %r14
	addq	%r14, %r13
	addq	%r11, %r10
	rolq	$23, %r12
	addq	%r13, %r11
	rolq	$37, %r10
	rolq	$11, %rbx
	rolq	$59, %r11
	movq	%r12, %r14
	movq	%r11, %r13
	xorq	%rbx, %r14
	xorq	%r10, %r13
	xorq	%r14, %r11
	xorq	%r10, %r14
	xorq	%r13, %r12
	xorq	%r13, %rbx
	movq	%r14, 424(%rsp)
	movq	%r12, %r13
	movq	424(%rsp), %r10
	addq	648(%rsp), %r13
	addq	712(%rsp), %r10
	movq	%rbx, 456(%rsp)
	movq	%r11, %r14
	addq	632(%rsp), %rbx
	addq	728(%rsp), %r14
	movq	%r12, 472(%rsp)
	movq	%r11, 440(%rsp)
	leaq	(%r10,%r13), %r12
	leaq	(%rbx,%r14), %r11
	addq	%rdx, %r14
	addq	%rcx, %rbx
	addq	%r12, %rbx
	addq	%r14, %r12
	rolq	$11, %rbx
	rolq	$23, %r12
	addq	%rax, %r10
	addq	%r9, %r13
	addq	%r11, %r10
	addq	%r13, %r11
	rolq	$37, %r10
	movq	%r12, %r13
	rolq	$59, %r11
	xorq	%rbx, %r13
	movq	%r11, %r14
	xorq	%r13, %r11
	xorq	%r10, %r13
	xorq	%r10, %r14
	movq	%r13, 360(%rsp)
	movq	%r13, %r10
	xorq	%r14, %r12
	xorq	%r14, %rbx
	addq	488(%rsp), %r10
	movq	%rbx, 392(%rsp)
	movq	%r11, %r14
	addq	552(%rsp), %rbx
	addq	504(%rsp), %r14
	movq	%r12, %r13
	addq	536(%rsp), %r13
	movq	%r12, 408(%rsp)
	movq	%r11, 376(%rsp)
	leaq	(%r10,%r13), %r12
	leaq	(%rbx,%r14), %r11
	addq	%r9, %r13
	addq	%rdx, %r14
	addq	%rcx, %rbx
	addq	%rax, %r10
	addq	%r12, %rbx
	addq	%r11, %r10
	addq	%r14, %r12
	addq	%r13, %r11
	rolq	$23, %r12
	rolq	$11, %rbx
	rolq	$59, %r11
	rolq	$37, %r10
	movq	%r12, %r13
	movq	%r11, %r14
	xorq	%rbx, %r13
	xorq	%r10, %r14
	xorq	%r13, %r11
	xorq	%r14, %r12
	xorq	%r14, %rbx
	xorq	%r10, %r13
	movq	%r12, 648(%rsp)
	movq	%r11, %r14
	addq	744(%rsp), %r12
	addq	584(%rsp), %r14
	movq	%rbx, 632(%rsp)
	movq	%r13, %r10
	addq	680(%rsp), %rbx
	addq	568(%rsp), %r10
	movq	%r11, 728(%rsp)
	movq	%r13, 712(%rsp)
	leaq	(%r14,%rbx), %r11
	leaq	(%r12,%r10), %r13
	addq	%rcx, %rbx
	addq	%r9, %r12
	addq	%rdx, %r14
	addq	%rax, %r10
	addq	%r13, %rbx
	addq	%r13, %r14
	leaq	(%r12,%r11), %r13
	addq	%r11, %r10
	rolq	$23, %r14
	rolq	$11, %rbx
	rolq	$59, %r13
	rolq	$37, %r10
	movq	%r14, %r11
	movq	%r13, %r12
	xorq	%rbx, %r11
	xorq	%r10, %r12
	xorq	%r11, %r13
	xorq	%r11, %r10
	xorq	%r12, %r14
	xorq	%r12, %rbx
	movabsq	$-2292595471992902602, %r12
	movq	%r14, 744(%rsp)
	addq	%r12, %rbx
	movabsq	$8467826889434979867, %r14
	movabsq	$6028102484886760763, %r12
	addq	744(%rsp), %r12
	addq	%r14, %r13
	movabsq	$2699039428325208307, %r14
	addq	744(%rsp), %r14
	movabsq	$-5006043190370284386, %r11
	addq	%r11, %r10
	leaq	(%rbx,%r13), %r11
	addq	%r10, %r12
	addq	%r8, %r10
	addq	%r11, %r10
	addq	%r14, %r11
	rolq	$7, %r10
	rolq	$19, %r11
	addq	%rdi, %rbx
	addq	%rsi, %r13
	addq	%r12, %rbx
	movq	%r11, %r14
	addq	%r13, %r12
	rolq	$31, %rbx
	xorq	%r10, %r14
	rolq	$53, %r12
	movq	%r12, %r13
	xorq	%r14, %r12
	xorq	%rbx, %r14
	xorq	%rbx, %r13
	movq	%r14, 584(%rsp)
	movq	%r14, %rbx
	xorq	%r13, %r11
	xorq	%r10, %r13
	addq	632(%rsp), %rbx
	movq	%r13, 536(%rsp)
	movq	%r12, %r14
	movq	%r11, %r13
	addq	648(%rsp), %r14
	addq	728(%rsp), %r13
	movq	536(%rsp), %r10
	addq	712(%rsp), %r10
	movq	%r12, 680(%rsp)
	movq	%r11, 568(%rsp)
	leaq	(%rbx,%r13), %r11
	addq	%rsi, %r13
	addq	%rdi, %rbx
	leaq	(%r10,%r14), %r12
	addq	%r15, %r14
	addq	%r8, %r10
	addq	%r11, %r10
	addq	%r14, %r11
	addq	%r12, %rbx
	addq	%r13, %r12
	rolq	$19, %r11
	rolq	$53, %r12
	rolq	$31, %rbx
	rolq	$7, %r10
	movq	%r11, %r14
	movq	%r12, %r13
	xorq	%r10, %r14
	xorq	%rbx, %r13
	xorq	%r14, %r12
	xorq	%r13, %r11
	xorq	%rbx, %r14
	xorq	%r10, %r13
	movq	%r14, 504(%rsp)
	movq	%r14, %rbx
	movq	%r13, 344(%rsp)
	addq	392(%rsp), %rbx
	movq	%r11, %r13
	movq	344(%rsp), %r10
	addq	376(%rsp), %r13
	movq	%r12, %r14
	addq	360(%rsp), %r10
	addq	408(%rsp), %r14
	movq	%r12, 552(%rsp)
	movq	%r11, 488(%rsp)
	leaq	(%rbx,%r13), %r11
	addq	%rsi, %r13
	addq	%rdi, %rbx
	leaq	(%r10,%r14), %r12
	addq	%r15, %r14
	addq	%r8, %r10
	addq	%r11, %r10
	addq	%r14, %r11
	addq	%r12, %rbx
	addq	%r13, %r12
	rolq	$19, %r11
	rolq	$53, %r12
	rolq	$7, %r10
	rolq	$31, %rbx
	movq	%r11, %r14
	movq	%r12, %r13
	xorq	%r10, %r14
	xorq	%rbx, %r13
	xorq	%r14, %r12
	xorq	%r13, %r11
	xorq	%rbx, %r14
	movq	%r11, 728(%rsp)
	movq	%r14, %r11
	movq	728(%rsp), %rbx
	addq	456(%rsp), %r11
	addq	440(%rsp), %rbx
	xorq	%r10, %r13
	movq	%r14, 632(%rsp)
	movq	%r13, 712(%rsp)
	movq	%r13, %r14
	movq	%r12, %r13
	addq	424(%rsp), %r14
	addq	472(%rsp), %r13
	movq	%r12, 648(%rsp)
	leaq	(%rbx,%r11), %r10
	movq	%r10, 744(%rsp)
	movq	744(%rsp), %r12
	leaq	0(%r13,%r14), %r10
	addq	%r8, %r14
	addq	%r15, %r13
	addq	%r14, %r12
	movq	744(%rsp), %r14
	rolq	$7, %r12
	addq	%r13, %r14
	rolq	$19, %r14
	addq	%rdi, %r11
	addq	%rsi, %rbx
	leaq	(%rbx,%r10), %r13
	addq	%r10, %r11
	movq	%r14, %rbx
	rolq	$31, %r11
	xorq	%r12, %rbx
	rolq	$53, %r13
	movq	%r13, %r10
	xorq	%rbx, %r13
	xorq	%r11, %rbx
	xorq	%r11, %r10
	movabsq	$5953845371152580681, %r11
	xorq	%r10, %r14
	xorq	%r12, %r10
	movabsq	$-2842268575306187841, %r12
	addq	%r11, %rbx
	addq	%r12, %r10
	movabsq	$-7646712092252898442, %r11
	movabsq	$-7946738593435294165, %r12
	addq	%r11, %r14
	addq	%r13, %r12
	leaq	(%rbx,%r14), %r11
	addq	%rdx, %r14
	addq	%r10, %r12
	addq	%rcx, %rbx
	addq	%rax, %r10
	addq	%r12, %rbx
	addq	%r14, %r12
	movabsq	$-3751294463443135658, %r14
	addq	%r14, %r13
	addq	%r11, %r10
	rolq	$23, %r12
	addq	%r13, %r11
	rolq	$11, %rbx
	rolq	$37, %r10
	rolq	$59, %r11
	movq	%r12, %r14
	movq	%r11, %r13
	xorq	%rbx, %r14
	xorq	%r10, %r13
	xorq	%r14, %r11
	xorq	%r13, %r12
	xorq	%r13, %rbx
	xorq	%r10, %r14
	movq	%r14, 440(%rsp)
	movq	%rbx, 472(%rsp)
	movq	%r11, %r14
	addq	632(%rsp), %rbx
	addq	728(%rsp), %r14
	movq	%r12, %r13
	movq	440(%rsp), %r10
	addq	648(%rsp), %r13
	addq	712(%rsp), %r10
	movq	%r12, 744(%rsp)
	movq	%r11, 456(%rsp)
	leaq	(%rbx,%r14), %r11
	addq	%rdx, %r14
	addq	%rcx, %rbx
	leaq	(%r10,%r13), %r12
	addq	%r9, %r13
	addq	%rax, %r10
	addq	%r11, %r10
	addq	%r13, %r11
	addq	%r12, %rbx
	addq	%r14, %r12
	rolq	$59, %r11
	rolq	$23, %r12
	rolq	$37, %r10
	rolq	$11, %rbx
	movq	%r11, %r14
	movq	%r12, %r13
	xorq	%r10, %r14
	xorq	%rbx, %r13
	xorq	%r14, %r12
	xorq	%r13, %r11
	xorq	%r10, %r13
	xorq	%r14, %rbx
	movq	%r13, 376(%rsp)
	movq	%r13, %r10
	movq	%r12, %r13
	addq	344(%rsp), %r10
	addq	552(%rsp), %r13
	movq	%rbx, 408(%rsp)
	movq	%r11, %r14
	addq	504(%rsp), %rbx
	addq	488(%rsp), %r14
	movq	%r12, 424(%rsp)
	movq	%r11, 392(%rsp)
	leaq	(%r10,%r13), %r12
	leaq	(%rbx,%r14), %r11
	addq	%rdx, %r14
	addq	%rcx, %rbx
	addq	%r12, %rbx
	addq	%r14, %r12
	rolq	$11, %rbx
	rolq	$23, %r12
	addq	%rax, %r10
	addq	%r9, %r13
	addq	%r11, %r10
	addq	%r13, %r11
	rolq	$37, %r10
	movq	%r12, %r13
	rolq	$59, %r11
	xorq	%rbx, %r13
	movq	%r11, %r14
	xorq	%r13, %r11
	xorq	%r10, %r13
	xorq	%r10, %r14
	movq	%r13, %r10
	addq	536(%rsp), %r10
	xorq	%r14, %r12
	xorq	%r14, %rbx
	movq	%r11, %r14
	movq	%r12, 648(%rsp)
	addq	568(%rsp), %r14
	addq	680(%rsp), %r12
	movq	%rbx, 632(%rsp)
	addq	584(%rsp), %rbx
	movq	%r11, 728(%rsp)
	movq	%r13, 712(%rsp)
	leaq	(%r12,%r10), %r13
	addq	%r9, %r12
	addq	%rax, %r10
	leaq	(%r14,%rbx), %r11
	addq	%rcx, %rbx
	addq	%rdx, %r14
	addq	%r13, %rbx
	addq	%r13, %r14
	leaq	(%r12,%r11), %r13
	addq	%r11, %r10
	rolq	$23, %r14
	rolq	$37, %r10
	rolq	$11, %rbx
	movq	%r14, %r11
	rolq	$59, %r13
	xorq	%rbx, %r11
	movq	%r13, %r12
	xorq	%r11, %r13
	xorq	%r10, %r12
	xorq	%r12, %r14
	xorq	%r12, %rbx
	movabsq	$-824919486193887165, %r12
	movq	%r14, 680(%rsp)
	movabsq	$-1914029582460860148, %r14
	addq	%r12, %rbx
	addq	%r14, %r13
	movabsq	$-7632797540959622777, %r12
	addq	680(%rsp), %r12
	movabsq	$7484883476188376383, %r14
	addq	680(%rsp), %r14
	xorq	%r11, %r10
	movabsq	$6609752215332129920, %r11
	addq	%r11, %r10
	leaq	(%rbx,%r13), %r11
	addq	%rsi, %r13
	addq	%r10, %r12
	addq	%rdi, %rbx
	addq	%r8, %r10
	addq	%r11, %r10
	addq	%r12, %rbx
	addq	%r14, %r11
	addq	%r13, %r12
	rolq	$19, %r11
	rolq	$7, %r10
	rolq	$53, %r12
	rolq	$31, %rbx
	movq	%r11, %r14
	movq	%r12, %r13
	xorq	%r10, %r14
	xorq	%rbx, %r13
	xorq	%r14, %r12
	xorq	%rbx, %r14
	xorq	%r13, %r11
	xorq	%r10, %r13
	movq	%r12, 680(%rsp)
	movq	%r14, 584(%rsp)
	movq	%r11, 568(%rsp)
	movq	%r14, %rbx
	movq	%r13, 536(%rsp)
	addq	632(%rsp), %rbx
	movq	%r11, %r13
	addq	728(%rsp), %r13
	movq	536(%rsp), %r10
	movq	%r12, %r14
	addq	712(%rsp), %r10
	addq	648(%rsp), %r14
	leaq	(%rbx,%r13), %r11
	leaq	(%r10,%r14), %r12
	addq	%r15, %r14
	addq	%r8, %r10
	addq	%r11, %r10
	addq	%r14, %r11
	rolq	$7, %r10
	rolq	$19, %r11
	addq	%rdi, %rbx
	addq	%rsi, %r13
	addq	%r12, %rbx
	movq	%r11, %r14
	addq	%r13, %r12
	rolq	$31, %rbx
	xorq	%r10, %r14
	rolq	$53, %r12
	movq	%r12, %r13
	xorq	%r14, %r12
	xorq	%rbx, %r14
	xorq	%rbx, %r13
	movq	%r14, 504(%rsp)
	movq	%r14, %rbx
	xorq	%r13, %r11
	xorq	%r10, %r13
	addq	408(%rsp), %rbx
	movq	%r13, 360(%rsp)
	movq	%r12, %r14
	movq	%r11, %r13
	addq	424(%rsp), %r14
	addq	392(%rsp), %r13
	movq	360(%rsp), %r10
	addq	376(%rsp), %r10
	movq	%r12, 552(%rsp)
	movq	%r11, 488(%rsp)
	leaq	(%rbx,%r13), %r11
	addq	%rsi, %r13
	addq	%rdi, %rbx
	leaq	(%r10,%r14), %r12
	addq	%r15, %r14
	addq	%r8, %r10
	addq	%r11, %r10
	addq	%r14, %r11
	addq	%r12, %rbx
	addq	%r13, %r12
	rolq	$19, %r11
	rolq	$53, %r12
	rolq	$31, %rbx
	rolq	$7, %r10
	movq	%r11, %r14
	movq	%r12, %r13
	xorq	%r10, %r14
	xorq	%rbx, %r13
	xorq	%r14, %r12
	xorq	%r13, %r11
	xorq	%rbx, %r14
	movq	%r11, 728(%rsp)
	xorq	%r10, %r13
	movq	%r14, %r11
	movq	728(%rsp), %rbx
	addq	472(%rsp), %r11
	addq	456(%rsp), %rbx
	movq	%r14, 632(%rsp)
	movq	%r13, %r14
	movq	%r13, 712(%rsp)
	addq	440(%rsp), %r14
	movq	%r12, %r13
	addq	744(%rsp), %r13
	movq	%r12, 648(%rsp)
	leaq	(%rbx,%r11), %r10
	addq	%rsi, %rbx
	addq	%rdi, %r11
	movq	%r10, 744(%rsp)
	movq	744(%rsp), %r12
	leaq	0(%r13,%r14), %r10
	addq	%r8, %r14
	addq	%r15, %r13
	addq	%r10, %r11
	addq	%r14, %r12
	movq	744(%rsp), %r14
	rolq	$31, %r11
	rolq	$7, %r12
	addq	%r13, %r14
	leaq	(%rbx,%r10), %r13
	rolq	$19, %r14
	rolq	$53, %r13
	movq	%r14, %rbx
	movq	%r13, %r10
	xorq	%r12, %rbx
	xorq	%r11, %r10
	xorq	%rbx, %r13
	xorq	%r11, %rbx
	xorq	%r10, %r14
	movabsq	$-1139829817207230181, %r11
	xorq	%r12, %r10
	movabsq	$2588290990126348949, %r12
	addq	%r11, %rbx
	movabsq	$3054837738180890943, %r11
	addq	%r12, %r10
	movabsq	$-938319195649413462, %r12
	addq	%r11, %r14
	addq	%r13, %r12
	leaq	(%rbx,%r14), %r11
	addq	%rdx, %r14
	addq	%r10, %r12
	addq	%rcx, %rbx
	addq	%r12, %rbx
	addq	%r14, %r12
	movabsq	$3257124934342745045, %r14
	rolq	$11, %rbx
	rolq	$23, %r12
	addq	%rax, %r10
	addq	%r14, %r13
	addq	%r11, %r10
	movq	%r12, %r14
	addq	%r13, %r11
	rolq	$37, %r10
	xorq	%rbx, %r14
	rolq	$59, %r11
	movq	%r11, %r13
	xorq	%r14, %r11
	xorq	%r10, %r14
	xorq	%r10, %r13
	movq	%r14, 424(%rsp)
	movq	%r11, %r14
	xorq	%r13, %r12
	xorq	%r13, %rbx
	addq	728(%rsp), %r14
	movq	%rbx, 456(%rsp)
	movq	424(%rsp), %r10
	movq	%r12, %r13
	addq	632(%rsp), %rbx
	addq	712(%rsp), %r10
	addq	648(%rsp), %r13
	movq	%r12, 472(%rsp)
	movq	%r11, 440(%rsp)
	leaq	(%rbx,%r14), %r11
	addq	%rdx, %r14
	addq	%rcx, %rbx
	leaq	(%r10,%r13), %r12
	addq	%r9, %r13
	addq	%rax, %r10
	addq	%r11, %r10
	addq	%r13, %r11
	addq	%r12, %rbx
	addq	%r14, %r12
	rolq	$59, %r11
	rolq	$23, %r12
	rolq	$11, %rbx
	rolq	$37, %r10
	movq	%r11, %r14
	movq	%r12, %r13
	xorq	%r10, %r14
	xorq	%rbx, %r13
	xorq	%r14, %r12
	xorq	%r14, %rbx
	xorq	%r13, %r11
	xorq	%r10, %r13
	movq	%r12, 744(%rsp)
	movq	%r11, %r14
	movq	%rbx, 408(%rsp)
	addq	488(%rsp), %r14
	movq	%r13, %r10
	addq	504(%rsp), %rbx
	addq	360(%rsp), %r10
	movq	%r13, 376(%rsp)
	movq	%r12, %r13
	addq	552(%rsp), %r13
	movq	%r11, 392(%rsp)
	leaq	(%rbx,%r14), %r11
	addq	%rdx, %r14
	addq	%rcx, %rbx
	leaq	(%r10,%r13), %r12
	addq	%r9, %r13
	addq	%rax, %r10
	addq	%r11, %r10
	addq	%r13, %r11
	addq	%r12, %rbx
	addq	%r14, %r12
	rolq	$59, %r11
	rolq	$23, %r12
	rolq	$37, %r10
	rolq	$11, %rbx
	movq	%r11, %r14
	movq	%r12, %r13
	xorq	%r10, %r14
	xorq	%rbx, %r13
	xorq	%r13, %r11
	xorq	%r14, %r12
	xorq	%r10, %r13
	xorq	%r14, %rbx
	movq	%r12, 648(%rsp)
	movq	%r13, %r10
	addq	680(%rsp), %r12
	addq	536(%rsp), %r10
	movq	%r11, %r14
	movq	%rbx, 632(%rsp)
	addq	568(%rsp), %r14
	addq	584(%rsp), %rbx
	movq	%r13, 712(%rsp)
	movq	%r11, 728(%rsp)
	leaq	(%r12,%r10), %r13
	leaq	(%r14,%rbx), %r11
	addq	%rcx, %rbx
	addq	%rdx, %r14
	addq	%r13, %rbx
	addq	%r13, %r14
	rolq	$11, %rbx
	rolq	$23, %r14
	addq	%rax, %r10
	addq	%r9, %r12
	addq	%r11, %r10
	leaq	(%r12,%r11), %r13
	rolq	$37, %r10
	movq	%r14, %r11
	xorq	%rbx, %r11
	rolq	$59, %r13
	movq	%r13, %r12
	xorq	%r11, %r13
	xorq	%r10, %r12
	xorq	%r11, %r10
	movabsq	$-496885038275669880, %r11
	xorq	%r12, %r14
	xorq	%r12, %rbx
	movabsq	$-6097248013946911484, %r12
	movq	%r14, 680(%rsp)
	addq	%r12, %rbx
	movabsq	$3174302594670681997, %r14
	movabsq	$-8739574512844769069, %r12
	addq	680(%rsp), %r12
	addq	%r14, %r13
	movabsq	$6378106504303230091, %r14
	addq	680(%rsp), %r14
	addq	%r11, %r10
	leaq	(%rbx,%r13), %r11
	addq	%rsi, %r13
	addq	%rdi, %rbx
	addq	%r10, %r12
	addq	%r8, %r10
	addq	%r11, %r10
	addq	%r12, %rbx
	addq	%r14, %r11
	addq	%r13, %r12
	rolq	$19, %r11
	rolq	$31, %rbx
	rolq	$53, %r12
	rolq	$7, %r10
	movq	%r11, %r14
	movq	%r12, %r13
	xorq	%r10, %r14
	xorq	%rbx, %r13
	xorq	%r14, %r12
	xorq	%rbx, %r14
	xorq	%r13, %r11
	xorq	%r10, %r13
	movq	%r12, 584(%rsp)
	movq	%r14, 568(%rsp)
	movq	%r14, %rbx
	movq	%r11, %r12
	addq	632(%rsp), %rbx
	addq	728(%rsp), %r12
	movq	%r13, %r10
	movq	584(%rsp), %r14
	addq	712(%rsp), %r10
	addq	648(%rsp), %r14
	movq	%r11, 536(%rsp)
	movq	%r13, 552(%rsp)
	leaq	(%rbx,%r12), %r13
	addq	%rsi, %r12
	addq	%rdi, %rbx
	leaq	(%r10,%r14), %r11
	addq	%r8, %r10
	addq	%r15, %r14
	addq	%r13, %r10
	addq	%r13, %r14
	leaq	(%r12,%r11), %r13
	rolq	$19, %r14
	addq	%r11, %rbx
	rolq	$7, %r10
	rolq	$31, %rbx
	movq	%r14, %r12
	rolq	$53, %r13
	xorq	%r10, %r12
	movq	%r13, %r11
	xorq	%r12, %r13
	xorq	%rbx, %r12
	xorq	%rbx, %r11
	movq	%r13, 504(%rsp)
	movq	%r12, %rbx
	xorq	%r11, %r14
	addq	408(%rsp), %rbx
	xorq	%r10, %r11
	movq	%r14, %r13
	addq	392(%rsp), %r13
	movq	%r14, 360(%rsp)
	movq	%r11, %r10
	movq	504(%rsp), %r14
	addq	376(%rsp), %r10
	addq	744(%rsp), %r14
	movq	%r11, 344(%rsp)
	movq	%r12, 488(%rsp)
	leaq	(%rbx,%r13), %r11
	addq	%rdi, %rbx
	leaq	(%r10,%r14), %r12
	addq	%r15, %r14
	addq	%r8, %r10
	addq	%r11, %r10
	addq	%r14, %r11
	rolq	$7, %r10
	rolq	$19, %r11
	addq	%r12, %rbx
	addq	%rsi, %r13
	rolq	$31, %rbx
	movq	%r11, %r14
	addq	%r13, %r12
	xorq	%r10, %r14
	rolq	$53, %r12
	movq	%r12, %r13
	xorq	%r14, %r12
	xorq	%rbx, %r14
	xorq	%rbx, %r13
	movq	%r12, 632(%rsp)
	movq	%r14, %rbx
	xorq	%r13, %r11
	xorq	%r10, %r13
	addq	456(%rsp), %rbx
	movq	%r14, 728(%rsp)
	movq	%r11, 712(%rsp)
	movq	%r13, %r14
	addq	440(%rsp), %r11
	addq	424(%rsp), %r14
	movq	%r13, 744(%rsp)
	movq	%r12, %r13
	addq	472(%rsp), %r13
	leaq	(%r11,%rbx), %r12
	addq	%rsi, %r11
	addq	%rdi, %rbx
	leaq	0(%r13,%r14), %r10
	addq	%r15, %r13
	addq	%r8, %r14
	addq	%r12, %r14
	addq	%r13, %r12
	movabsq	$1906713845121804688, %r13
	addq	%r10, %r11
	rolq	$7, %r14
	rolq	$19, %r12
	addq	%r10, %rbx
	rolq	$53, %r11
	movq	%r14, 648(%rsp)
	rolq	$31, %rbx
	xorq	%r12, %r14
	movq	%r11, %r10
	xorq	%rbx, %r10
	xorq	%r14, %r11
	xorq	%rbx, %r14
	movq	%r11, 680(%rsp)
	xorq	%r10, %r12
	movabsq	$853475092736589577, %rbx
	movabsq	$-5486504877919021346, %r11
	addq	%rbx, %r14
	addq	%r12, %r11
	xorq	648(%rsp), %r10
	addq	680(%rsp), %r13
	movabsq	$-4925106476758491821, %r12
	leaq	(%r14,%r11), %rbx
	movq	%r14, InternalState+96(%rip)
	movq	%r11, InternalState+104(%rip)
	addq	%rdx, %r11
	addq	%r12, %r10
	leaq	(%r14,%rcx), %r12
	movabsq	$6102157975113963195, %r14
	addq	680(%rsp), %r14
	movq	%r13, InternalState+120(%rip)
	addq	%r10, %r13
	addq	%r13, %r12
	movq	%r10, InternalState+112(%rip)
	addq	%r11, %r13
	addq	%rax, %r10
	rolq	$23, %r13
	rolq	$11, %r12
	addq	%rbx, %r10
	movq	%r13, %r11
	addq	%rbx, %r14
	rolq	$37, %r10
	xorq	%r12, %r11
	rolq	$59, %r14
	movq	%r14, %rbx
	xorq	%r11, %r14
	xorq	%r10, %r11
	xorq	%r10, %rbx
	addq	744(%rsp), %r11
	addq	712(%rsp), %r14
	xorq	%rbx, %r12
	xorq	%r13, %rbx
	addq	632(%rsp), %rbx
	addq	728(%rsp), %r12
	movq	%r14, InternalState+72(%rip)
	movq	%r11, InternalState+80(%rip)
	leaq	(%r11,%rbx), %r10
	addq	%rax, %r11
	movq	%rbx, InternalState+88(%rip)
	leaq	(%r12,%r14), %r13
	movq	%r12, InternalState+64(%rip)
	addq	%rdx, %r14
	addq	%rcx, %r12
	addq	%r10, %r12
	addq	%r14, %r10
	rolq	$23, %r10
	rolq	$11, %r12
	addq	%r13, %r11
	addq	%r9, %rbx
	rolq	$37, %r11
	leaq	(%rbx,%r13), %r14
	movq	%r10, %rbx
	xorq	%r12, %rbx
	rolq	$59, %r14
	movq	%r14, %r13
	xorq	%rbx, %r14
	addq	360(%rsp), %r14
	xorq	%r11, %r13
	xorq	%rbx, %r11
	addq	344(%rsp), %r11
	xorq	%r13, %r12
	xorq	%r10, %r13
	addq	504(%rsp), %r13
	addq	488(%rsp), %r12
	movq	%r14, InternalState+40(%rip)
	movq	%r11, InternalState+48(%rip)
	leaq	(%r11,%r13), %r10
	movq	%r13, InternalState+56(%rip)
	addq	%rax, %r11
	leaq	(%r12,%r14), %rbx
	movq	%r12, InternalState+32(%rip)
	addq	%rdx, %r14
	addq	%rcx, %r12
	addq	%r9, %r13
	addq	%r10, %r12
	addq	%r14, %r10
	addq	%rbx, %r11
	rolq	$23, %r10
	rolq	$11, %r12
	addq	%r13, %rbx
	movq	%r10, %r14
	rolq	$59, %rbx
	rolq	$37, %r11
	xorq	%r12, %r14
	movq	%rbx, %r13
	xorq	%r14, %rbx
	addq	536(%rsp), %rbx
	xorq	%r11, %r13
	xorq	%r13, %r12
	xorq	%r14, %r11
	addq	568(%rsp), %r12
	movq	%rbx, InternalState+8(%rip)
	addq	552(%rsp), %r11
	xorq	%r13, %r10
	addq	584(%rsp), %r10
	movq	InternalState+32(%rip), %rbx
	movq	InternalState+64(%rip), %r14
	movq	%rbx, 536(%rsp)
	movq	%r10, InternalState+24(%rip)
	movq	%r12, %r10
	movq	InternalState+48(%rip), %r12
	movq	%r10, 648(%rsp)
	movq	%r10, %r13
	movq	InternalState+8(%rip), %r10
	movq	%r14, 472(%rsp)
	movq	%r12, 552(%rsp)
	movq	%r10, 656(%rsp)
	movq	%r11, %r10
	movdqa	648(%rsp), %xmm8
	movq	%r11, 648(%rsp)
	movq	InternalState+24(%rip), %r11
	movdqa	%xmm8, InternalState(%rip)
	movq	%r11, 656(%rsp)
	movq	InternalState+56(%rip), %r11
	movdqa	648(%rsp), %xmm8
	movq	%rbx, 648(%rsp)
	movq	InternalState+40(%rip), %rbx
	movdqa	%xmm8, InternalState+16(%rip)
	movq	%rbx, 656(%rsp)
	movq	InternalState+72(%rip), %rbx
	movdqa	648(%rsp), %xmm0
	movq	%r12, 648(%rsp)
	movq	%r11, 656(%rsp)
	movdqa	648(%rsp), %xmm8
	movq	%r14, 648(%rsp)
	movq	%rbx, 656(%rsp)
	movdqa	%xmm0, InternalState+32(%rip)
	movdqa	%xmm8, InternalState+48(%rip)
	movdqa	648(%rsp), %xmm0
	movdqa	%xmm0, InternalState+64(%rip)
	movq	InternalState+80(%rip), %r11
	movq	InternalState+88(%rip), %r12
	movq	InternalState+96(%rip), %rbx
	movq	%r11, 648(%rsp)
	movq	%r12, 656(%rsp)
	movq	%r11, 456(%rsp)
	movq	InternalState+104(%rip), %r11
	movq	InternalState+24(%rip), %r12
	movdqa	648(%rsp), %xmm8
	movq	%rbx, 440(%rsp)
	movq	%rbx, 648(%rsp)
	movq	InternalState+112(%rip), %rbx
	movq	%r11, 656(%rsp)
	addq	%r10, %r12
	movdqa	%xmm8, InternalState+80(%rip)
	movq	InternalState+120(%rip), %r11
	movq	InternalState+8(%rip), %r14
	addq	%rax, %r10
	movdqa	648(%rsp), %xmm8
	movq	%rbx, 424(%rsp)
	movq	%rbx, 648(%rsp)
	movq	520(%rsp), %rbx
	movq	%r11, 656(%rsp)
	movdqa	%xmm8, InternalState+96(%rip)
	addq	$1, %rbx
	xorq	%rbx, %r13
	movq	%rbx, 96(%rsp)
	leaq	(%r12,%rcx), %rbx
	leaq	0(%r13,%r14), %r11
	addq	%rdx, %r14
	movdqa	648(%rsp), %xmm8
	addq	%r13, %rbx
	movq	InternalState+24(%rip), %r13
	addq	%r11, %r10
	rolq	$11, %rbx
	addq	%r12, %r14
	rolq	$37, %r10
	rolq	$23, %r14
	addq	%r9, %r13
	addq	%r11, %r13
	movq	%rbx, %r11
	rolq	$59, %r13
	xorq	%r14, %r11
	movq	%r13, %r12
	xorq	%r11, %r13
	xorq	%r10, %r12
	xorq	%r11, %r10
	movabsq	$-369815132508846929, %r11
	xorq	%r12, %r14
	xorq	%r12, %rbx
	movabsq	$-1376848230519552085, %r12
	movq	%r14, 744(%rsp)
	addq	%r12, %rbx
	movabsq	$-9209400399786843361, %r14
	movabsq	$-3463520432737951897, %r12
	addq	744(%rsp), %r12
	addq	%r14, %r13
	movabsq	$-6792583489299504353, %r14
	addq	744(%rsp), %r14
	addq	%r11, %r10
	leaq	(%rbx,%r13), %r11
	movdqa	%xmm8, InternalState+112(%rip)
	addq	%r10, %r12
	addq	%r8, %r10
	addq	%r11, %r10
	addq	%r14, %r11
	rolq	$7, %r10
	rolq	$19, %r11
	addq	%rsi, %r13
	addq	%rdi, %rbx
	movq	%r11, %r14
	addq	%r12, %rbx
	addq	%r13, %r12
	xorq	%r10, %r14
	rolq	$53, %r12
	rolq	$31, %rbx
	movq	%r12, %r13
	xorq	%r14, %r12
	xorq	%rbx, %r14
	xorq	%rbx, %r13
	movq	%r14, 680(%rsp)
	movq	InternalState+56(%rip), %r14
	xorq	%r13, %r11
	xorq	%r10, %r13
	movq	552(%rsp), %r10
	movq	%r13, 568(%rsp)
	movq	536(%rsp), %rbx
	movq	InternalState+40(%rip), %r13
	movq	%r11, 584(%rsp)
	leaq	(%r14,%r10), %r11
	movq	%r12, 744(%rsp)
	addq	%rax, %r10
	leaq	0(%r13,%rbx), %r12
	addq	%rdx, %r13
	addq	%rcx, %rbx
	addq	%r11, %rbx
	addq	%r13, %r11
	leaq	(%r14,%r9), %r13
	rolq	$23, %r11
	addq	%r12, %r10
	rolq	$11, %rbx
	addq	%r12, %r13
	rolq	$37, %r10
	movq	%r11, %r12
	rolq	$59, %r13
	xorq	%rbx, %r12
	movq	%r13, %r14
	xorq	%r12, %r13
	addq	584(%rsp), %r13
	xorq	%r10, %r14
	xorq	%r12, %r10
	addq	568(%rsp), %r10
	xorq	%r14, %rbx
	addq	680(%rsp), %rbx
	xorq	%r11, %r14
	addq	744(%rsp), %r14
	leaq	(%rbx,%r13), %r11
	addq	%rsi, %r13
	addq	%rdi, %rbx
	leaq	(%r10,%r14), %r12
	addq	%r15, %r14
	addq	%r8, %r10
	addq	%r11, %r10
	addq	%r14, %r11
	rolq	$19, %r11
	addq	%r12, %rbx
	addq	%r13, %r12
	rolq	$7, %r10
	rolq	$53, %r12
	movq	%r11, %r14
	rolq	$31, %rbx
	xorq	%r10, %r14
	movq	%r12, %r13
	xorq	%rbx, %r13
	xorq	%r14, %r12
	xorq	%rbx, %r14
	movq	%r12, 536(%rsp)
	xorq	%r13, %r11
	movq	%r14, 552(%rsp)
	xorq	%r10, %r13
	movq	InternalState+88(%rip), %r14
	movq	456(%rsp), %r10
	movq	472(%rsp), %rbx
	movq	%r13, 488(%rsp)
	movq	InternalState+72(%rip), %r13
	movq	%r11, 504(%rsp)
	leaq	(%r14,%r10), %r11
	addq	%rax, %r10
	leaq	0(%r13,%rbx), %r12
	addq	%rdx, %r13
	addq	%rcx, %rbx
	addq	%r11, %rbx
	addq	%r13, %r11
	leaq	(%r14,%r9), %r13
	rolq	$23, %r11
	addq	%r12, %r10
	rolq	$11, %rbx
	addq	%r12, %r13
	rolq	$37, %r10
	movq	%r11, %r12
	rolq	$59, %r13
	xorq	%rbx, %r12
	movq	%r13, %r14
	xorq	%r10, %r14
	xorq	%r14, %rbx
	addq	552(%rsp), %rbx
	xorq	%r12, %r13
	addq	504(%rsp), %r13
	xorq	%r12, %r10
	xorq	%r11, %r14
	addq	488(%rsp), %r10
	addq	536(%rsp), %r14
	leaq	(%rbx,%r13), %r11
	addq	%rsi, %r13
	addq	%rdi, %rbx
	leaq	(%r10,%r14), %r12
	addq	%r15, %r14
	addq	%r8, %r10
	addq	%r11, %r10
	addq	%r14, %r11
	rolq	$19, %r11
	addq	%r12, %rbx
	addq	%r13, %r12
	rolq	$7, %r10
	rolq	$53, %r12
	movq	%r11, %r14
	rolq	$31, %rbx
	xorq	%r10, %r14
	movq	%r12, %r13
	xorq	%rbx, %r13
	xorq	%r14, %r12
	xorq	%rbx, %r14
	movq	%r14, 632(%rsp)
	xorq	%r13, %r11
	movq	InternalState+120(%rip), %r14
	xorq	%r10, %r13
	movq	424(%rsp), %r10
	movq	440(%rsp), %rbx
	movq	%r13, 712(%rsp)
	movq	InternalState+104(%rip), %r13
	movq	%r11, 728(%rsp)
	movq	%r12, 648(%rsp)
	leaq	(%r14,%r10), %r11
	addq	%rax, %r10
	leaq	0(%r13,%rbx), %r12
	addq	%rdx, %r13
	addq	%rcx, %rbx
	addq	%r11, %rbx
	addq	%r13, %r11
	leaq	(%r14,%r9), %r13
	addq	%r12, %r10
	rolq	$23, %r11
	rolq	$11, %rbx
	rolq	$37, %r10
	addq	%r13, %r12
	movq	%r11, %r13
	rolq	$59, %r12
	xorq	%rbx, %r13
	movq	%r12, %r14
	xorq	%r13, %r12
	addq	728(%rsp), %r12
	xorq	%r10, %r14
	xorq	%r13, %r10
	addq	712(%rsp), %r10
	xorq	%r14, %rbx
	xorq	%r11, %r14
	addq	632(%rsp), %rbx
	addq	648(%rsp), %r14
	leaq	(%r12,%rbx), %r13
	addq	%rsi, %r12
	addq	%rdi, %rbx
	leaq	(%r14,%r10), %r11
	addq	%r8, %r10
	addq	%r15, %r14
	addq	%r13, %r10
	addq	%r13, %r14
	leaq	(%r12,%r11), %r13
	rolq	$19, %r14
	rolq	$7, %r10
	addq	%r11, %rbx
	movq	%r14, %r12
	rolq	$53, %r13
	xorq	%r10, %r12
	rolq	$31, %rbx
	movq	%r13, %r11
	xorq	%r12, %r13
	xorq	%rbx, %r11
	xorq	%r12, %rbx
	movabsq	$-7999569951748836447, %r12
	addq	%r12, %rbx
	xorq	%r11, %r14
	movabsq	$-4849728007900573903, %r12
	addq	%r12, %r14
	xorq	%r11, %r10
	movabsq	$-1642314245251606934, %r12
	movabsq	$-1568322642145848418, %r11
	addq	%r11, %r10
	addq	%r13, %r12
	leaq	(%rbx,%r14), %r11
	addq	%r10, %r12
	addq	%rdx, %r14
	addq	%rcx, %rbx
	addq	%r12, %rbx
	addq	%r14, %r12
	movabsq	$2553129884740551573, %r14
	addq	%r14, %r13
	addq	%rax, %r10
	rolq	$23, %r12
	addq	%r11, %r10
	addq	%r13, %r11
	rolq	$11, %rbx
	rolq	$59, %r11
	rolq	$37, %r10
	movq	%r12, %r13
	movq	%r11, %r14
	xorq	%rbx, %r13
	xorq	%r10, %r14
	xorq	%r13, %r11
	xorq	%r10, %r13
	xorq	%r14, %r12
	xorq	%r14, %rbx
	movq	%r13, 424(%rsp)
	movq	%rbx, 456(%rsp)
	movq	%r11, %r14
	addq	632(%rsp), %rbx
	addq	728(%rsp), %r14
	movq	%r13, %r10
	movq	%r12, %r13
	addq	712(%rsp), %r10
	addq	648(%rsp), %r13
	movq	%r12, 472(%rsp)
	movq	%r11, 440(%rsp)
	leaq	(%rbx,%r14), %r11
	addq	%rdx, %r14
	addq	%rcx, %rbx
	leaq	(%r10,%r13), %r12
	addq	%rax, %r10
	addq	%r11, %r10
	addq	%r12, %rbx
	addq	%r14, %r12
	rolq	$37, %r10
	rolq	$11, %rbx
	rolq	$23, %r12
	addq	%r9, %r13
	addq	%r13, %r11
	movq	%r12, %r13
	rolq	$59, %r11
	xorq	%rbx, %r13
	movq	%r11, %r14
	xorq	%r13, %r11
	xorq	%r10, %r13
	xorq	%r10, %r14
	movq	%r13, %r10
	xorq	%r14, %r12
	xorq	%r14, %rbx
	movq	%r11, %r14
	movq	%r12, 408(%rsp)
	movq	%rbx, 392(%rsp)
	movq	%r11, 376(%rsp)
	addq	552(%rsp), %rbx
	addq	504(%rsp), %r14
	addq	488(%rsp), %r10
	movq	%r13, 360(%rsp)
	movq	%r12, %r13
	addq	536(%rsp), %r13
	leaq	(%rbx,%r14), %r11
	addq	%rdx, %r14
	addq	%rcx, %rbx
	leaq	(%r10,%r13), %r12
	addq	%r9, %r13
	addq	%rax, %r10
	addq	%r11, %r10
	addq	%r13, %r11
	addq	%r12, %rbx
	addq	%r14, %r12
	rolq	$59, %r11
	rolq	$23, %r12
	rolq	$37, %r10
	rolq	$11, %rbx
	movq	%r11, %r14
	movq	%r12, %r13
	xorq	%r10, %r14
	xorq	%rbx, %r13
	xorq	%r13, %r11
	xorq	%r14, %r12
	xorq	%r14, %rbx
	xorq	%r10, %r13
	movq	%r12, 648(%rsp)
	movq	%rbx, 632(%rsp)
	movq	%r11, %r14
	addq	680(%rsp), %rbx
	addq	584(%rsp), %r14
	movq	%r13, %r10
	addq	568(%rsp), %r10
	addq	744(%rsp), %r12
	movq	%r11, 728(%rsp)
	movq	%r13, 712(%rsp)
	leaq	(%r14,%rbx), %r11
	addq	%rcx, %rbx
	addq	%rdx, %r14
	leaq	(%r12,%r10), %r13
	addq	%r9, %r12
	addq	%rax, %r10
	addq	%r11, %r10
	addq	%r13, %rbx
	addq	%r13, %r14
	leaq	(%r12,%r11), %r13
	rolq	$23, %r14
	rolq	$37, %r10
	rolq	$11, %rbx
	rolq	$59, %r13
	movq	%r14, %r11
	movq	%r13, %r12
	xorq	%rbx, %r11
	xorq	%r10, %r12
	xorq	%r11, %r13
	xorq	%r11, %r10
	xorq	%r12, %r14
	xorq	%r12, %rbx
	movabsq	$-2292595471992902602, %r12
	movq	%r14, 744(%rsp)
	addq	%r12, %rbx
	movabsq	$8467826889434979867, %r14
	movabsq	$6028102484886760763, %r12
	addq	744(%rsp), %r12
	addq	%r14, %r13
	movabsq	$2699039428325208307, %r14
	addq	744(%rsp), %r14
	movabsq	$-5006043190370284386, %r11
	addq	%r11, %r10
	leaq	(%rbx,%r13), %r11
	addq	%rdi, %rbx
	addq	%r10, %r12
	addq	%r8, %r10
	addq	%r11, %r10
	addq	%r12, %rbx
	addq	%r14, %r11
	rolq	$7, %r10
	rolq	$31, %rbx
	rolq	$19, %r11
	addq	%rsi, %r13
	movq	%r11, %r14
	addq	%r13, %r12
	xorq	%r10, %r14
	rolq	$53, %r12
	movq	%r12, %r13
	xorq	%r14, %r12
	xorq	%rbx, %r14
	xorq	%rbx, %r13
	movq	%r14, 680(%rsp)
	movq	%r14, %rbx
	xorq	%r13, %r11
	xorq	%r10, %r13
	addq	632(%rsp), %rbx
	movq	%r13, 568(%rsp)
	movq	%r12, %r14
	movq	%r11, %r13
	addq	648(%rsp), %r14
	addq	728(%rsp), %r13
	movq	568(%rsp), %r10
	addq	712(%rsp), %r10
	movq	%r12, 744(%rsp)
	movq	%r11, 584(%rsp)
	leaq	(%rbx,%r13), %r11
	addq	%rsi, %r13
	addq	%rdi, %rbx
	leaq	(%r10,%r14), %r12
	addq	%r15, %r14
	addq	%r8, %r10
	addq	%r11, %r10
	addq	%r14, %r11
	addq	%r12, %rbx
	addq	%r13, %r12
	rolq	$19, %r11
	rolq	$53, %r12
	rolq	$7, %r10
	rolq	$31, %rbx
	movq	%r11, %r14
	movq	%r12, %r13
	xorq	%r10, %r14
	xorq	%rbx, %r13
	xorq	%r14, %r12
	xorq	%r13, %r11
	xorq	%rbx, %r14
	xorq	%r10, %r13
	movq	%r14, 552(%rsp)
	movq	%r14, %rbx
	movq	%r13, 488(%rsp)
	addq	392(%rsp), %rbx
	movq	%r11, %r13
	movq	488(%rsp), %r10
	addq	376(%rsp), %r13
	movq	%r12, %r14
	addq	360(%rsp), %r10
	addq	408(%rsp), %r14
	movq	%r12, 536(%rsp)
	movq	%r11, 504(%rsp)
	leaq	(%rbx,%r13), %r11
	addq	%rsi, %r13
	addq	%rdi, %rbx
	leaq	(%r10,%r14), %r12
	addq	%r15, %r14
	addq	%r8, %r10
	addq	%r11, %r10
	addq	%r14, %r11
	addq	%r12, %rbx
	addq	%r13, %r12
	rolq	$19, %r11
	rolq	$53, %r12
	rolq	$7, %r10
	rolq	$31, %rbx
	movq	%r11, %r14
	movq	%r12, %r13
	xorq	%r10, %r14
	xorq	%rbx, %r13
	xorq	%r13, %r11
	xorq	%r14, %r12
	xorq	%r10, %r13
	xorq	%rbx, %r14
	movq	%r12, 648(%rsp)
	movq	%r13, %r10
	movq	%r14, 632(%rsp)
	addq	424(%rsp), %r10
	movq	%r14, %rbx
	movq	%r11, %r12
	addq	456(%rsp), %rbx
	addq	440(%rsp), %r12
	movq	648(%rsp), %r14
	addq	472(%rsp), %r14
	movq	%r11, 728(%rsp)
	movq	%r13, 712(%rsp)
	leaq	(%r12,%rbx), %r13
	addq	%rdi, %rbx
	leaq	(%r14,%r10), %r11
	addq	%r8, %r10
	addq	%r15, %r14
	addq	%r13, %r10
	addq	%r13, %r14
	addq	%r11, %rbx
	rolq	$7, %r10
	rolq	$19, %r14
	rolq	$31, %rbx
	addq	%rsi, %r12
	leaq	(%r12,%r11), %r13
	movq	%r14, %r12
	xorq	%r10, %r12
	rolq	$53, %r13
	movq	%r13, %r11
	xorq	%r12, %r13
	xorq	%rbx, %r11
	xorq	%r12, %rbx
	movabsq	$5953845371152580681, %r12
	addq	%r12, %rbx
	xorq	%r11, %r14
	movabsq	$-7646712092252898442, %r12
	addq	%r12, %r14
	xorq	%r11, %r10
	movabsq	$-7946738593435294165, %r12
	movabsq	$-2842268575306187841, %r11
	addq	%r13, %r12
	addq	%r11, %r10
	leaq	(%rbx,%r14), %r11
	addq	%rdx, %r14
	addq	%r10, %r12
	addq	%rcx, %rbx
	addq	%rax, %r10
	addq	%r12, %rbx
	addq	%r14, %r12
	movabsq	$-3751294463443135658, %r14
	addq	%r14, %r13
	addq	%r11, %r10
	rolq	$23, %r12
	addq	%r13, %r11
	rolq	$37, %r10
	rolq	$11, %rbx
	rolq	$59, %r11
	movq	%r12, %r13
	movq	%r11, %r14
	xorq	%rbx, %r13
	xorq	%r10, %r14
	xorq	%r13, %r11
	xorq	%r10, %r13
	xorq	%r14, %r12
	xorq	%r14, %rbx
	movq	%r13, 424(%rsp)
	movq	%rbx, 456(%rsp)
	movq	%r11, %r14
	addq	632(%rsp), %rbx
	addq	728(%rsp), %r14
	movq	%r13, %r10
	movq	%r12, %r13
	addq	712(%rsp), %r10
	addq	648(%rsp), %r13
	movq	%r12, 472(%rsp)
	movq	%r11, 440(%rsp)
	leaq	(%rbx,%r14), %r11
	addq	%rdx, %r14
	addq	%rcx, %rbx
	leaq	(%r10,%r13), %r12
	addq	%r9, %r13
	addq	%rax, %r10
	addq	%r11, %r10
	addq	%r13, %r11
	addq	%r12, %rbx
	addq	%r14, %r12
	rolq	$59, %r11
	rolq	$23, %r12
	rolq	$37, %r10
	rolq	$11, %rbx
	movq	%r11, %r14
	movq	%r12, %r13
	xorq	%r10, %r14
	xorq	%rbx, %r13
	xorq	%r14, %r12
	xorq	%r13, %r11
	xorq	%r14, %rbx
	xorq	%r10, %r13
	movq	%rbx, 392(%rsp)
	movq	%r11, %r14
	addq	552(%rsp), %rbx
	addq	504(%rsp), %r14
	movq	%r13, %r10
	movq	%r13, 360(%rsp)
	addq	488(%rsp), %r10
	movq	%r12, %r13
	addq	536(%rsp), %r13
	movq	%r12, 408(%rsp)
	movq	%r11, 376(%rsp)
	leaq	(%rbx,%r14), %r11
	addq	%rdx, %r14
	addq	%rcx, %rbx
	leaq	(%r10,%r13), %r12
	addq	%rax, %r10
	addq	%r11, %r10
	addq	%r12, %rbx
	addq	%r14, %r12
	rolq	$37, %r10
	rolq	$11, %rbx
	rolq	$23, %r12
	addq	%r9, %r13
	addq	%r13, %r11
	movq	%r12, %r13
	rolq	$59, %r11
	xorq	%rbx, %r13
	movq	%r11, %r14
	xorq	%r13, %r11
	xorq	%r10, %r13
	xorq	%r10, %r14
	movq	%r13, %r10
	addq	568(%rsp), %r10
	xorq	%r14, %r12
	xorq	%r14, %rbx
	movq	%r11, %r14
	movq	%r12, 648(%rsp)
	addq	584(%rsp), %r14
	addq	744(%rsp), %r12
	movq	%rbx, 632(%rsp)
	addq	680(%rsp), %rbx
	movq	%r11, 728(%rsp)
	movq	%r13, 712(%rsp)
	leaq	(%r12,%r10), %r13
	addq	%r9, %r12
	addq	%rax, %r10
	leaq	(%r14,%rbx), %r11
	addq	%rcx, %rbx
	addq	%rdx, %r14
	addq	%r13, %rbx
	addq	%r13, %r14
	leaq	(%r12,%r11), %r13
	addq	%r11, %r10
	rolq	$23, %r14
	rolq	$37, %r10
	rolq	$11, %rbx
	movq	%r14, %r11
	rolq	$59, %r13
	xorq	%rbx, %r11
	movq	%r13, %r12
	xorq	%r11, %r13
	xorq	%r10, %r12
	xorq	%r11, %r10
	movabsq	$6609752215332129920, %r11
	xorq	%r12, %r14
	xorq	%r12, %rbx
	movabsq	$-824919486193887165, %r12
	movq	%r14, 744(%rsp)
	movabsq	$-1914029582460860148, %r14
	addq	%r12, %rbx
	addq	%r14, %r13
	addq	%r11, %r10
	movabsq	$-7632797540959622777, %r12
	addq	744(%rsp), %r12
	movabsq	$7484883476188376383, %r14
	addq	744(%rsp), %r14
	leaq	(%rbx,%r13), %r11
	addq	%rsi, %r13
	addq	%rdi, %rbx
	addq	%r10, %r12
	addq	%r8, %r10
	addq	%r11, %r10
	addq	%r12, %rbx
	addq	%r14, %r11
	addq	%r13, %r12
	rolq	$19, %r11
	rolq	$7, %r10
	rolq	$53, %r12
	rolq	$31, %rbx
	movq	%r11, %r14
	movq	%r12, %r13
	xorq	%r10, %r14
	xorq	%rbx, %r13
	xorq	%r14, %r12
	xorq	%rbx, %r14
	xorq	%r13, %r11
	xorq	%r10, %r13
	movq	%r12, 536(%rsp)
	movq	%r14, %rbx
	movq	%r13, 488(%rsp)
	addq	632(%rsp), %rbx
	movq	%r14, 552(%rsp)
	movq	%r11, %r13
	movq	488(%rsp), %r10
	addq	728(%rsp), %r13
	addq	712(%rsp), %r10
	movq	%r12, %r14
	addq	648(%rsp), %r14
	movq	%r11, 504(%rsp)
	leaq	(%rbx,%r13), %r11
	addq	%rdi, %rbx
	leaq	(%r10,%r14), %r12
	addq	%r15, %r14
	addq	%r8, %r10
	addq	%r11, %r10
	addq	%r14, %r11
	addq	%r12, %rbx
	rolq	$7, %r10
	rolq	$19, %r11
	rolq	$31, %rbx
	addq	%rsi, %r13
	movq	%r11, %r14
	addq	%r13, %r12
	xorq	%r10, %r14
	rolq	$53, %r12
	movq	%r12, %r13
	xorq	%r14, %r12
	xorq	%rbx, %r14
	xorq	%rbx, %r13
	movq	%r14, 680(%rsp)
	movq	%r14, %rbx
	xorq	%r13, %r11
	xorq	%r10, %r13
	addq	392(%rsp), %rbx
	movq	%r13, 568(%rsp)
	movq	%r12, %r14
	movq	%r11, %r13
	addq	408(%rsp), %r14
	addq	376(%rsp), %r13
	movq	568(%rsp), %r10
	addq	360(%rsp), %r10
	movq	%r12, 744(%rsp)
	movq	%r11, 584(%rsp)
	leaq	(%rbx,%r13), %r11
	addq	%rsi, %r13
	addq	%rdi, %rbx
	leaq	(%r10,%r14), %r12
	addq	%r15, %r14
	addq	%r8, %r10
	addq	%r11, %r10
	addq	%r14, %r11
	addq	%r12, %rbx
	addq	%r13, %r12
	rolq	$19, %r11
	rolq	$53, %r12
	rolq	$7, %r10
	rolq	$31, %rbx
	movq	%r11, %r14
	movq	%r12, %r13
	xorq	%r10, %r14
	xorq	%rbx, %r13
	xorq	%r13, %r11
	xorq	%r14, %r12
	xorq	%r10, %r13
	xorq	%rbx, %r14
	movq	%r12, 648(%rsp)
	movq	%r13, %r10
	movq	%r14, 632(%rsp)
	movq	%r14, %rbx
	movq	%r11, %r12
	addq	456(%rsp), %rbx
	addq	440(%rsp), %r12
	movq	648(%rsp), %r14
	addq	424(%rsp), %r10
	addq	472(%rsp), %r14
	movq	%r11, 728(%rsp)
	movq	%r13, 712(%rsp)
	leaq	(%r12,%rbx), %r13
	addq	%rsi, %r12
	addq	%rdi, %rbx
	leaq	(%r14,%r10), %r11
	addq	%r8, %r10
	addq	%r15, %r14
	addq	%r13, %r10
	addq	%r13, %r14
	leaq	(%r12,%r11), %r13
	rolq	$19, %r14
	rolq	$7, %r10
	addq	%r11, %rbx
	movq	%r14, %r12
	rolq	$53, %r13
	xorq	%r10, %r12
	rolq	$31, %rbx
	movq	%r13, %r11
	xorq	%r12, %r13
	xorq	%rbx, %r11
	xorq	%r12, %rbx
	movabsq	$-1139829817207230181, %r12
	addq	%r12, %rbx
	xorq	%r11, %r14
	movabsq	$3054837738180890943, %r12
	addq	%r12, %r14
	xorq	%r11, %r10
	movabsq	$-938319195649413462, %r12
	movabsq	$2588290990126348949, %r11
	addq	%r13, %r12
	addq	%r11, %r10
	leaq	(%rbx,%r14), %r11
	addq	%rdx, %r14
	addq	%r10, %r12
	addq	%rcx, %rbx
	addq	%rax, %r10
	addq	%r12, %rbx
	addq	%r11, %r10
	addq	%r14, %r12
	movabsq	$3257124934342745045, %r14
	rolq	$37, %r10
	rolq	$11, %rbx
	rolq	$23, %r12
	addq	%r14, %r13
	addq	%r13, %r11
	movq	%r12, %r14
	rolq	$59, %r11
	xorq	%rbx, %r14
	movq	%r11, %r13
	xorq	%r14, %r11
	xorq	%r10, %r14
	xorq	%r10, %r13
	movq	%r14, 424(%rsp)
	movq	%r11, %r14
	xorq	%r13, %r12
	xorq	%r13, %rbx
	addq	728(%rsp), %r14
	movq	%rbx, 456(%rsp)
	movq	424(%rsp), %r10
	movq	%r12, %r13
	addq	632(%rsp), %rbx
	addq	712(%rsp), %r10
	addq	648(%rsp), %r13
	movq	%r12, 472(%rsp)
	movq	%r11, 440(%rsp)
	leaq	(%rbx,%r14), %r11
	addq	%rdx, %r14
	addq	%rcx, %rbx
	leaq	(%r10,%r13), %r12
	addq	%r9, %r13
	addq	%rax, %r10
	addq	%r11, %r10
	addq	%r13, %r11
	addq	%r12, %rbx
	addq	%r14, %r12
	rolq	$59, %r11
	rolq	$23, %r12
	rolq	$37, %r10
	rolq	$11, %rbx
	movq	%r11, %r14
	movq	%r12, %r13
	xorq	%r10, %r14
	xorq	%rbx, %r13
	xorq	%r14, %r12
	xorq	%r13, %r11
	xorq	%r14, %rbx
	xorq	%r10, %r13
	movq	%r12, 408(%rsp)
	movq	%r11, %r14
	movq	%rbx, 392(%rsp)
	addq	584(%rsp), %r14
	movq	%r13, %r10
	addq	680(%rsp), %rbx
	movq	%r13, 360(%rsp)
	movq	%r12, %r13
	addq	568(%rsp), %r10
	addq	744(%rsp), %r13
	movq	%r11, 376(%rsp)
	leaq	(%rbx,%r14), %r11
	addq	%rdx, %r14
	addq	%rcx, %rbx
	leaq	(%r10,%r13), %r12
	addq	%r9, %r13
	addq	%rax, %r10
	addq	%r11, %r10
	addq	%r13, %r11
	addq	%r12, %rbx
	addq	%r14, %r12
	rolq	$59, %r11
	rolq	$23, %r12
	rolq	$37, %r10
	rolq	$11, %rbx
	movq	%r11, %r14
	movq	%r12, %r13
	xorq	%r10, %r14
	xorq	%rbx, %r13
	xorq	%r13, %r11
	xorq	%r14, %r12
	xorq	%r14, %rbx
	xorq	%r10, %r13
	movq	%r12, 744(%rsp)
	movq	%rbx, 680(%rsp)
	addq	536(%rsp), %r12
	addq	552(%rsp), %rbx
	movq	%r11, %r14
	movq	%r13, %r10
	addq	504(%rsp), %r14
	addq	488(%rsp), %r10
	movq	%r11, 584(%rsp)
	movq	%r13, 568(%rsp)
	leaq	(%r14,%rbx), %r11
	leaq	(%r12,%r10), %r13
	addq	%rcx, %rbx
	addq	%rdx, %r14
	addq	%rax, %r10
	addq	%r13, %rbx
	addq	%r13, %r14
	addq	%r11, %r10
	rolq	$11, %rbx
	rolq	$23, %r14
	rolq	$37, %r10
	addq	%r9, %r12
	leaq	(%r12,%r11), %r13
	movq	%r14, %r11
	xorq	%rbx, %r11
	rolq	$59, %r13
	movq	%r13, %r12
	xorq	%r11, %r13
	xorq	%r10, %r12
	xorq	%r11, %r10
	movabsq	$-496885038275669880, %r11
	xorq	%r12, %r14
	xorq	%r12, %rbx
	movabsq	$-6097248013946911484, %r12
	movq	%r14, 728(%rsp)
	addq	%r12, %rbx
	movabsq	$3174302594670681997, %r14
	movabsq	$-8739574512844769069, %r12
	addq	728(%rsp), %r12
	addq	%r14, %r13
	movabsq	$6378106504303230091, %r14
	addq	728(%rsp), %r14
	addq	%r11, %r10
	leaq	(%rbx,%r13), %r11
	addq	%rsi, %r13
	addq	%rdi, %rbx
	addq	%r10, %r12
	addq	%r8, %r10
	addq	%r11, %r10
	addq	%r12, %rbx
	addq	%r14, %r11
	addq	%r13, %r12
	rolq	$19, %r11
	rolq	$7, %r10
	rolq	$53, %r12
	rolq	$31, %rbx
	movq	%r11, %r14
	movq	%r12, %r13
	xorq	%r10, %r14
	xorq	%rbx, %r13
	xorq	%r14, %r12
	xorq	%rbx, %r14
	xorq	%r13, %r11
	xorq	%r10, %r13
	movq	%r12, 648(%rsp)
	movq	%r11, 728(%rsp)
	movq	%r12, preCompInternalState(%rip)
	movq	%r13, %r10
	movq	%r14, 632(%rsp)
	movq	%r14, preCompInternalState+8(%rip)
	movq	%r11, preCompInternalState+16(%rip)
	movq	728(%rsp), %r12
	movq	%r14, %r11
	addq	584(%rsp), %r12
	addq	680(%rsp), %r11
	movq	648(%rsp), %r14
	addq	568(%rsp), %r10
	addq	744(%rsp), %r14
	movq	%r13, 712(%rsp)
	movq	%r13, preCompInternalState+24(%rip)
	leaq	(%r11,%r12), %r13
	addq	%rsi, %r12
	addq	%rdi, %r11
	leaq	(%r10,%r14), %rbx
	addq	%r8, %r10
	addq	%r15, %r14
	addq	%r13, %r10
	addq	%r13, %r14
	leaq	(%r12,%rbx), %r13
	rolq	$19, %r14
	addq	%rbx, %r11
	rolq	$7, %r10
	rolq	$31, %r11
	movq	%r14, %rbx
	rolq	$53, %r13
	xorq	%r10, %rbx
	movq	%r13, %r12
	xorq	%rbx, %r13
	xorq	%r11, %rbx
	xorq	%r11, %r12
	movq	%r13, 552(%rsp)
	movq	%rbx, %r11
	xorq	%r12, %r14
	xorq	%r10, %r12
	movq	%rbx, 504(%rsp)
	addq	392(%rsp), %r11
	movq	%r12, 344(%rsp)
	movq	%r14, %r12
	movq	%r14, 488(%rsp)
	addq	376(%rsp), %r12
	movq	%r13, %r14
	movq	344(%rsp), %r10
	addq	408(%rsp), %r14
	addq	360(%rsp), %r10
	leaq	(%r11,%r12), %r13
	addq	%rdi, %r11
	addq	%rsi, %r12
	leaq	(%r10,%r14), %rbx
	addq	%r8, %r10
	addq	%r15, %r14
	addq	%r13, %r10
	addq	%r13, %r14
	addq	%rbx, %r11
	rolq	$7, %r10
	rolq	$19, %r14
	rolq	$31, %r11
	addq	%rbx, %r12
	movq	%r14, %rbx
	rolq	$53, %r12
	xorq	%r10, %rbx
	movq	%r12, %r13
	xorq	%rbx, %r12
	xorq	%r11, %rbx
	xorq	%r11, %r13
	movq	%rbx, 680(%rsp)
	movq	%rbx, %r11
	xorq	%r13, %r14
	addq	456(%rsp), %r11
	xorq	%r10, %r13
	movq	%r14, %rbx
	addq	440(%rsp), %rbx
	movq	%r14, 584(%rsp)
	movq	%r13, 568(%rsp)
	movq	%r13, %r14
	movq	%r12, %r13
	addq	424(%rsp), %r14
	addq	472(%rsp), %r13
	movq	%r12, 744(%rsp)
	leaq	(%rbx,%r11), %r10
	addq	%rsi, %rbx
	addq	%rdi, %r11
	movq	%r10, 536(%rsp)
	movq	536(%rsp), %r12
	leaq	0(%r13,%r14), %r10
	addq	%r8, %r14
	addq	%r15, %r13
	addq	%r10, %r11
	addq	%r14, %r12
	movq	536(%rsp), %r14
	rolq	$31, %r11
	rolq	$7, %r12
	addq	%r13, %r14
	leaq	(%rbx,%r10), %r13
	rolq	$19, %r14
	rolq	$53, %r13
	movq	%r14, %rbx
	movq	%r13, %r10
	xorq	%r12, %rbx
	xorq	%r11, %r10
	xorq	%rbx, %r13
	xorq	%r11, %rbx
	xorq	%r10, %r14
	movabsq	$853475092736589577, %r11
	xorq	%r12, %r10
	movabsq	$-4925106476758491821, %r12
	addq	%r11, %rbx
	movabsq	$-5486504877919021346, %r11
	addq	%r12, %r10
	movabsq	$1906713845121804688, %r12
	addq	%r11, %r14
	addq	%r13, %r12
	leaq	(%rbx,%r14), %r11
	movq	%rbx, InternalState+96(%rip)
	movq	%r14, InternalState+104(%rip)
	movq	%r12, InternalState+120(%rip)
	addq	%r10, %r12
	addq	%rdx, %r14
	addq	%rcx, %rbx
	movq	%r10, InternalState+112(%rip)
	addq	%r12, %rbx
	addq	%r14, %r12
	movabsq	$6102157975113963195, %r14
	addq	%r14, %r13
	addq	%rax, %r10
	rolq	$23, %r12
	addq	%r11, %r10
	addq	%r13, %r11
	rolq	$11, %rbx
	rolq	$59, %r11
	rolq	$37, %r10
	movq	%r12, %r13
	movq	%r11, %r14
	xorq	%rbx, %r13
	xorq	%r10, %r14
	xorq	%r13, %r10
	xorq	%r13, %r11
	xorq	%r14, %r12
	xorq	%r14, %rbx
	movq	%r10, preCompInternalState+120(%rip)
	movq	%r12, preCompInternalState+96(%rip)
	addq	568(%rsp), %r10
	addq	744(%rsp), %r12
	movq	%rbx, preCompInternalState+104(%rip)
	movq	584(%rsp), %r14
	addq	680(%rsp), %rbx
	movq	%r11, preCompInternalState+112(%rip)
	movq	%r10, InternalState+80(%rip)
	addq	%r11, %r14
	leaq	(%r10,%r12), %r13
	addq	%rax, %r10
	leaq	(%rbx,%r14), %r11
	movq	%rbx, InternalState+64(%rip)
	movq	%r14, InternalState+72(%rip)
	addq	%rcx, %rbx
	addq	%rdx, %r14
	movq	%r12, InternalState+88(%rip)
	addq	%r13, %rbx
	addq	%r9, %r12
	addq	%r14, %r13
	addq	%r11, %r10
	rolq	$11, %rbx
	rolq	$23, %r13
	rolq	$37, %r10
	addq	%r12, %r11
	movq	%r13, %r12
	rolq	$59, %r11
	xorq	%rbx, %r12
	movq	%r11, %r14
	xorq	%r12, %r11
	xorq	%r10, %r14
	xorq	%r12, %r10
	movq	%r11, preCompInternalState+80(%rip)
	xorq	%r14, %r13
	movq	%r10, preCompInternalState+88(%rip)
	xorq	%r14, %rbx
	movq	%r13, preCompInternalState+64(%rip)
	addq	344(%rsp), %r10
	addq	552(%rsp), %r13
	movq	%rbx, preCompInternalState+72(%rip)
	movq	488(%rsp), %r14
	addq	504(%rsp), %rbx
	movq	%r10, InternalState+48(%rip)
	addq	%r11, %r14
	leaq	(%r10,%r13), %r12
	movq	%r13, InternalState+56(%rip)
	movq	%rbx, InternalState+32(%rip)
	movq	%r14, InternalState+40(%rip)
	leaq	(%rbx,%r14), %r11
	addq	%rdx, %r14
	addq	%rcx, %rbx
	addq	%r9, %r13
	addq	%r12, %rbx
	addq	%rax, %r10
	addq	%r14, %r12
	rolq	$23, %r12
	addq	%r11, %r10
	addq	%r13, %r11
	rolq	$11, %rbx
	rolq	$59, %r11
	movq	%r12, %r13
	xorq	%rbx, %r13
	rolq	$37, %r10
	movq	%r11, %r14
	xorq	%r10, %r14
	xorq	%r13, %r10
	xorq	%r13, %r11
	movq	%r10, preCompInternalState+56(%rip)
	addq	712(%rsp), %r10
	xorq	%r14, %rbx
	xorq	%r14, %r12
	movq	%rbx, preCompInternalState+40(%rip)
	movq	%r11, preCompInternalState+48(%rip)
	movq	%r12, preCompInternalState+32(%rip)
	addq	632(%rsp), %rbx
	addq	728(%rsp), %r11
	addq	648(%rsp), %r12
	movq	%r10, InternalState+16(%rip)
	movq	16(%rbp), %r10
	movq	%rbx, InternalState(%rip)
	movq	%r11, InternalState+8(%rip)
	movq	%r12, InternalState+24(%rip)
	movq	%r10, %r12
	xorq	(%r10), %rbx
	movq	72(%rsp), %r11
	movq	%rbx, InternalState(%rip)
	movq	%rbx, (%r11)
	movq	8(%r10), %r10
	xorq	InternalState+8(%rip), %r10
	movq	%r10, InternalState+8(%rip)
	movq	%r10, 8(%r11)
	movq	16(%r12), %r10
	xorq	InternalState+16(%rip), %r10
	movq	%r10, InternalState+16(%rip)
	movq	%r10, 16(%r11)
	movq	24(%r12), %r10
	xorq	InternalState+24(%rip), %r10
	movq	%r10, InternalState+24(%rip)
	movq	%r10, 24(%r11)
	movq	32(%r12), %r10
	xorq	InternalState+64(%rip), %r10
	movq	%r10, InternalState+64(%rip)
	movq	%r10, 32(%r11)
	movq	40(%r12), %r10
	xorq	InternalState+72(%rip), %r10
	movq	%r10, InternalState+72(%rip)
	movq	%r10, 40(%r11)
	movq	48(%r12), %r10
	xorq	InternalState+80(%rip), %r10
	movq	%r10, InternalState+80(%rip)
	movq	%r10, 48(%r11)
	movq	56(%r12), %r10
	xorq	InternalState+88(%rip), %r10
	movq	%r10, InternalState+88(%rip)
	movq	%r10, 56(%r11)
	movq	InternalState+16(%rip), %r12
	movq	InternalState+24(%rip), %r13
	movq	InternalState(%rip), %rbx
	movq	InternalState+8(%rip), %r14
	leaq	0(%r13,%r12), %r10
	addq	%r9, %r13
	leaq	(%r14,%rbx), %r11
	addq	%rcx, %rbx
	addq	%rdx, %r14
	addq	%r10, %rbx
	addq	%r10, %r14
	leaq	(%r12,%rax), %r10
	addq	%r11, %r13
	rolq	$23, %r14
	rolq	$11, %rbx
	addq	%r11, %r10
	rolq	$59, %r13
	movq	%r14, %r11
	rolq	$37, %r10
	movq	%r13, %r12
	xorq	%rbx, %r11
	xorq	%r10, %r12
	xorq	%r11, %r13
	xorq	%r11, %r10
	xorq	%r12, %r14
	xorq	%r12, %rbx
	movabsq	$-9209400399786843361, %r12
	movq	%r14, 744(%rsp)
	addq	%r12, %r13
	movabsq	$-3463520432737951897, %r12
	addq	744(%rsp), %r12
	movabsq	$-1376848230519552085, %r14
	addq	%r14, %rbx
	movabsq	$-369815132508846929, %r14
	addq	%r14, %r10
	leaq	(%rbx,%r13), %r11
	movabsq	$-6792583489299504353, %r14
	addq	%r10, %r12
	addq	%r8, %r10
	addq	%r11, %r10
	rolq	$7, %r10
	addq	744(%rsp), %r14
	addq	%rsi, %r13
	addq	%rdi, %rbx
	addq	%r12, %rbx
	addq	%r13, %r12
	rolq	$53, %r12
	rolq	$31, %rbx
	addq	%r14, %r11
	movq	%r12, %r13
	rolq	$19, %r11
	xorq	%rbx, %r13
	movq	%r11, %r14
	xorq	%r13, %r11
	xorq	%r10, %r13
	xorq	%r10, %r14
	movq	%r11, 568(%rsp)
	movq	%r13, 536(%rsp)
	xorq	%r14, %r12
	xorq	%rbx, %r14
	movq	InternalState+40(%rip), %r13
	movq	%r14, 584(%rsp)
	movq	InternalState+32(%rip), %r11
	movq	InternalState+48(%rip), %r14
	movq	InternalState+56(%rip), %r10
	movq	%r12, 680(%rsp)
	leaq	0(%r13,%r11), %r12
	addq	%rcx, %r11
	addq	%r14, %r10
	leaq	(%r10,%r11), %rbx
	leaq	0(%r13,%rdx), %r11
	movq	InternalState+56(%rip), %r13
	addq	%r10, %r11
	leaq	(%r14,%rax), %r10
	rolq	$11, %rbx
	addq	%r9, %r13
	rolq	$23, %r11
	addq	%r12, %r13
	addq	%r12, %r10
	movq	%r11, %r12
	rolq	$59, %r13
	rolq	$37, %r10
	xorq	%rbx, %r12
	movq	%r13, %r14
	xorq	%r12, %r13
	addq	568(%rsp), %r13
	xorq	%r10, %r14
	xorq	%r12, %r10
	xorq	%r14, %rbx
	addq	584(%rsp), %rbx
	addq	536(%rsp), %r10
	xorq	%r11, %r14
	addq	680(%rsp), %r14
	leaq	(%rbx,%r13), %r11
	addq	%rsi, %r13
	addq	%rdi, %rbx
	leaq	(%r10,%r14), %r12
	addq	%r15, %r14
	addq	%r8, %r10
	addq	%r11, %r10
	addq	%r14, %r11
	addq	%r12, %rbx
	addq	%r13, %r12
	rolq	$19, %r11
	rolq	$53, %r12
	rolq	$7, %r10
	rolq	$31, %rbx
	movq	%r11, %r14
	movq	%r12, %r13
	xorq	%r10, %r14
	xorq	%rbx, %r13
	xorq	%r14, %r12
	xorq	%r13, %r11
	xorq	%rbx, %r14
	xorq	%r10, %r13
	movq	%r12, 552(%rsp)
	movq	%r14, 504(%rsp)
	movq	%r11, 488(%rsp)
	movq	InternalState+80(%rip), %r14
	movq	%r13, 472(%rsp)
	movq	InternalState+64(%rip), %r11
	movq	InternalState+72(%rip), %r13
	movq	InternalState+88(%rip), %r10
	leaq	0(%r13,%r11), %r12
	addq	%r14, %r10
	addq	%rcx, %r11
	leaq	(%r10,%r11), %rbx
	leaq	0(%r13,%rdx), %r11
	movq	InternalState+88(%rip), %r13
	addq	%r10, %r11
	leaq	(%r14,%rax), %r10
	rolq	$11, %rbx
	addq	%r9, %r13
	rolq	$23, %r11
	addq	%r12, %r13
	addq	%r12, %r10
	movq	%r11, %r12
	rolq	$59, %r13
	rolq	$37, %r10
	xorq	%rbx, %r12
	movq	%r13, %r14
	xorq	%r10, %r14
	xorq	%r14, %rbx
	xorq	%r12, %r13
	addq	504(%rsp), %rbx
	addq	488(%rsp), %r13
	xorq	%r12, %r10
	xorq	%r11, %r14
	addq	472(%rsp), %r10
	addq	552(%rsp), %r14
	leaq	(%rbx,%r13), %r11
	addq	%rsi, %r13
	addq	%rdi, %rbx
	leaq	(%r10,%r14), %r12
	addq	%r15, %r14
	addq	%r8, %r10
	addq	%r11, %r10
	addq	%r14, %r11
	addq	%r12, %rbx
	addq	%r13, %r12
	rolq	$19, %r11
	rolq	$53, %r12
	rolq	$7, %r10
	rolq	$31, %rbx
	movq	%r11, %r14
	movq	%r12, %r13
	xorq	%r10, %r14
	xorq	%rbx, %r13
	xorq	%r14, %r12
	xorq	%r13, %r11
	xorq	%rbx, %r14
	xorq	%r10, %r13
	movq	%r14, 632(%rsp)
	movq	%r11, 728(%rsp)
	movq	%r13, 712(%rsp)
	movq	InternalState+112(%rip), %r14
	movq	InternalState+104(%rip), %r13
	movq	InternalState+96(%rip), %r11
	movq	InternalState+120(%rip), %r10
	movq	%r12, 648(%rsp)
	leaq	0(%r13,%r11), %r12
	addq	%rcx, %r11
	addq	%r14, %r10
	leaq	(%r10,%r11), %rbx
	leaq	0(%r13,%rdx), %r11
	movq	InternalState+120(%rip), %r13
	addq	%r10, %r11
	leaq	(%r14,%rax), %r10
	rolq	$11, %rbx
	rolq	$23, %r11
	addq	%r12, %r10
	rolq	$37, %r10
	addq	%r9, %r13
	addq	%r13, %r12
	movq	%r11, %r13
	rolq	$59, %r12
	xorq	%rbx, %r13
	movq	%r12, %r14
	xorq	%r13, %r12
	addq	728(%rsp), %r12
	xorq	%r10, %r14
	xorq	%r13, %r10
	addq	712(%rsp), %r10
	xorq	%r14, %rbx
	xorq	%r11, %r14
	addq	632(%rsp), %rbx
	addq	648(%rsp), %r14
	leaq	(%r12,%rbx), %r13
	addq	%rsi, %r12
	addq	%rdi, %rbx
	leaq	(%r14,%r10), %r11
	addq	%r8, %r10
	addq	%r15, %r14
	addq	%r13, %r10
	addq	%r13, %r14
	leaq	(%r12,%r11), %r13
	rolq	$19, %r14
	rolq	$7, %r10
	addq	%r11, %rbx
	movq	%r14, %r12
	rolq	$53, %r13
	xorq	%r10, %r12
	rolq	$31, %rbx
	movq	%r13, %r11
	xorq	%r12, %r13
	xorq	%rbx, %r11
	xorq	%r12, %rbx
	movabsq	$-7999569951748836447, %r12
	addq	%r12, %rbx
	xorq	%r11, %r14
	movabsq	$-4849728007900573903, %r12
	addq	%r12, %r14
	xorq	%r11, %r10
	movabsq	$-1642314245251606934, %r12
	movabsq	$-1568322642145848418, %r11
	addq	%r11, %r10
	addq	%r13, %r12
	leaq	(%rbx,%r14), %r11
	addq	%r10, %r12
	addq	%rdx, %r14
	addq	%rcx, %rbx
	addq	%r12, %rbx
	addq	%r14, %r12
	movabsq	$2553129884740551573, %r14
	addq	%r14, %r13
	addq	%rax, %r10
	rolq	$23, %r12
	addq	%r11, %r10
	addq	%r13, %r11
	rolq	$11, %rbx
	rolq	$59, %r11
	rolq	$37, %r10
	movq	%r12, %r13
	movq	%r11, %r14
	xorq	%rbx, %r13
	xorq	%r10, %r14
	xorq	%r13, %r11
	xorq	%r10, %r13
	xorq	%r14, %r12
	xorq	%r14, %rbx
	movq	%r13, 424(%rsp)
	movq	%rbx, 456(%rsp)
	movq	%r11, %r14
	addq	632(%rsp), %rbx
	addq	728(%rsp), %r14
	movq	%r13, %r10
	movq	%r12, %r13
	addq	712(%rsp), %r10
	addq	648(%rsp), %r13
	movq	%r12, 744(%rsp)
	movq	%r11, 440(%rsp)
	leaq	(%rbx,%r14), %r11
	addq	%rdx, %r14
	addq	%rcx, %rbx
	leaq	(%r10,%r13), %r12
	addq	%rax, %r10
	addq	%r11, %r10
	addq	%r12, %rbx
	addq	%r14, %r12
	rolq	$37, %r10
	rolq	$11, %rbx
	rolq	$23, %r12
	addq	%r9, %r13
	addq	%r13, %r11
	movq	%r12, %r13
	rolq	$59, %r11
	xorq	%rbx, %r13
	movq	%r11, %r14
	xorq	%r13, %r11
	xorq	%r10, %r13
	xorq	%r10, %r14
	movq	%r13, %r10
	xorq	%r14, %r12
	xorq	%r14, %rbx
	movq	%r11, %r14
	movq	%r12, 408(%rsp)
	addq	488(%rsp), %r14
	addq	472(%rsp), %r10
	movq	%rbx, 392(%rsp)
	movq	%r13, 360(%rsp)
	addq	504(%rsp), %rbx
	movq	%r12, %r13
	addq	552(%rsp), %r13
	movq	%r11, 376(%rsp)
	leaq	(%rbx,%r14), %r11
	addq	%rdx, %r14
	addq	%rcx, %rbx
	leaq	(%r10,%r13), %r12
	addq	%r9, %r13
	addq	%rax, %r10
	addq	%r11, %r10
	addq	%r13, %r11
	addq	%r12, %rbx
	addq	%r14, %r12
	rolq	$59, %r11
	rolq	$23, %r12
	rolq	$37, %r10
	rolq	$11, %rbx
	movq	%r11, %r14
	movq	%r12, %r13
	xorq	%r10, %r14
	xorq	%rbx, %r13
	xorq	%r13, %r11
	xorq	%r14, %r12
	xorq	%r14, %rbx
	xorq	%r10, %r13
	movq	%r12, 648(%rsp)
	movq	%rbx, 632(%rsp)
	movq	%r11, %r14
	addq	584(%rsp), %rbx
	addq	568(%rsp), %r14
	movq	%r13, %r10
	addq	536(%rsp), %r10
	addq	680(%rsp), %r12
	movq	%r11, 728(%rsp)
	movq	%r13, 712(%rsp)
	leaq	(%r14,%rbx), %r11
	addq	%rcx, %rbx
	addq	%rdx, %r14
	leaq	(%r12,%r10), %r13
	addq	%r9, %r12
	addq	%rax, %r10
	addq	%r11, %r10
	addq	%r13, %rbx
	addq	%r13, %r14
	leaq	(%r12,%r11), %r13
	rolq	$23, %r14
	rolq	$37, %r10
	rolq	$11, %rbx
	rolq	$59, %r13
	movq	%r14, %r11
	movq	%r13, %r12
	xorq	%rbx, %r11
	xorq	%r10, %r12
	xorq	%r11, %r13
	xorq	%r11, %r10
	xorq	%r12, %r14
	xorq	%r12, %rbx
	movabsq	$-2292595471992902602, %r12
	movq	%r14, 680(%rsp)
	addq	%r12, %rbx
	movabsq	$8467826889434979867, %r14
	movabsq	$6028102484886760763, %r12
	addq	680(%rsp), %r12
	addq	%r14, %r13
	movabsq	$2699039428325208307, %r14
	addq	680(%rsp), %r14
	movabsq	$-5006043190370284386, %r11
	addq	%r11, %r10
	leaq	(%rbx,%r13), %r11
	addq	%rdi, %rbx
	addq	%r10, %r12
	addq	%r8, %r10
	addq	%r11, %r10
	addq	%r12, %rbx
	addq	%r14, %r11
	rolq	$7, %r10
	rolq	$31, %rbx
	rolq	$19, %r11
	addq	%rsi, %r13
	movq	%r11, %r14
	addq	%r13, %r12
	xorq	%r10, %r14
	rolq	$53, %r12
	movq	%r12, %r13
	xorq	%r14, %r12
	xorq	%rbx, %r14
	xorq	%rbx, %r13
	movq	%r14, 584(%rsp)
	movq	%r14, %rbx
	xorq	%r13, %r11
	xorq	%r10, %r13
	addq	632(%rsp), %rbx
	movq	%r13, 536(%rsp)
	movq	%r12, %r14
	movq	%r11, %r13
	addq	648(%rsp), %r14
	addq	728(%rsp), %r13
	movq	536(%rsp), %r10
	addq	712(%rsp), %r10
	movq	%r12, 680(%rsp)
	movq	%r11, 568(%rsp)
	leaq	(%rbx,%r13), %r11
	addq	%rsi, %r13
	addq	%rdi, %rbx
	leaq	(%r10,%r14), %r12
	addq	%r15, %r14
	addq	%r8, %r10
	addq	%r11, %r10
	addq	%r14, %r11
	addq	%r12, %rbx
	addq	%r13, %r12
	rolq	$19, %r11
	rolq	$53, %r12
	rolq	$7, %r10
	rolq	$31, %rbx
	movq	%r11, %r14
	movq	%r12, %r13
	xorq	%r10, %r14
	xorq	%rbx, %r13
	xorq	%r14, %r12
	xorq	%r13, %r11
	xorq	%rbx, %r14
	xorq	%r10, %r13
	movq	%r14, 504(%rsp)
	movq	%r14, %rbx
	movq	%r13, 472(%rsp)
	addq	392(%rsp), %rbx
	movq	%r11, %r13
	movq	472(%rsp), %r10
	addq	376(%rsp), %r13
	movq	%r12, %r14
	addq	360(%rsp), %r10
	addq	408(%rsp), %r14
	movq	%r12, 552(%rsp)
	movq	%r11, 488(%rsp)
	leaq	(%rbx,%r13), %r11
	addq	%rsi, %r13
	addq	%rdi, %rbx
	leaq	(%r10,%r14), %r12
	addq	%r15, %r14
	addq	%r8, %r10
	addq	%r11, %r10
	addq	%r14, %r11
	addq	%r12, %rbx
	addq	%r13, %r12
	rolq	$19, %r11
	rolq	$53, %r12
	rolq	$7, %r10
	rolq	$31, %rbx
	movq	%r11, %r14
	movq	%r12, %r13
	xorq	%r10, %r14
	xorq	%rbx, %r13
	xorq	%r13, %r11
	xorq	%r14, %r12
	xorq	%r10, %r13
	xorq	%rbx, %r14
	movq	%r12, 648(%rsp)
	movq	%r13, %r10
	movq	%r14, 632(%rsp)
	addq	424(%rsp), %r10
	movq	%r14, %rbx
	movq	%r11, %r12
	addq	456(%rsp), %rbx
	addq	440(%rsp), %r12
	movq	648(%rsp), %r14
	addq	744(%rsp), %r14
	movq	%r11, 728(%rsp)
	movq	%r13, 712(%rsp)
	leaq	(%r12,%rbx), %r13
	addq	%rdi, %rbx
	leaq	(%r14,%r10), %r11
	addq	%r8, %r10
	addq	%r15, %r14
	addq	%r13, %r10
	addq	%r13, %r14
	addq	%r11, %rbx
	rolq	$7, %r10
	rolq	$19, %r14
	rolq	$31, %rbx
	addq	%rsi, %r12
	leaq	(%r12,%r11), %r13
	movq	%r14, %r12
	xorq	%r10, %r12
	rolq	$53, %r13
	movq	%r13, %r11
	xorq	%r12, %r13
	xorq	%rbx, %r11
	xorq	%r12, %rbx
	movabsq	$5953845371152580681, %r12
	addq	%r12, %rbx
	xorq	%r11, %r14
	movabsq	$-7646712092252898442, %r12
	addq	%r12, %r14
	xorq	%r11, %r10
	movabsq	$-7946738593435294165, %r12
	movabsq	$-2842268575306187841, %r11
	addq	%r13, %r12
	addq	%r11, %r10
	leaq	(%rbx,%r14), %r11
	addq	%rdx, %r14
	addq	%r10, %r12
	addq	%rcx, %rbx
	addq	%rax, %r10
	addq	%r12, %rbx
	addq	%r14, %r12
	movabsq	$-3751294463443135658, %r14
	addq	%r14, %r13
	addq	%r11, %r10
	rolq	$23, %r12
	addq	%r13, %r11
	rolq	$37, %r10
	rolq	$11, %rbx
	rolq	$59, %r11
	movq	%r12, %r13
	movq	%r11, %r14
	xorq	%rbx, %r13
	xorq	%r10, %r14
	xorq	%r13, %r11
	xorq	%r10, %r13
	xorq	%r14, %r12
	xorq	%r14, %rbx
	movq	%r13, 424(%rsp)
	movq	%rbx, 456(%rsp)
	movq	%r11, %r14
	addq	632(%rsp), %rbx
	addq	728(%rsp), %r14
	movq	%r13, %r10
	movq	%r12, %r13
	addq	712(%rsp), %r10
	addq	648(%rsp), %r13
	movq	%r12, 744(%rsp)
	movq	%r11, 440(%rsp)
	leaq	(%rbx,%r14), %r11
	addq	%rdx, %r14
	addq	%rcx, %rbx
	leaq	(%r10,%r13), %r12
	addq	%r9, %r13
	addq	%rax, %r10
	addq	%r11, %r10
	addq	%r13, %r11
	addq	%r12, %rbx
	addq	%r14, %r12
	rolq	$59, %r11
	rolq	$23, %r12
	rolq	$37, %r10
	rolq	$11, %rbx
	movq	%r11, %r14
	movq	%r12, %r13
	xorq	%r10, %r14
	xorq	%rbx, %r13
	xorq	%r14, %r12
	xorq	%r13, %r11
	xorq	%r14, %rbx
	xorq	%r10, %r13
	movq	%rbx, 392(%rsp)
	movq	%r11, %r14
	addq	504(%rsp), %rbx
	addq	488(%rsp), %r14
	movq	%r13, %r10
	movq	%r13, 360(%rsp)
	addq	472(%rsp), %r10
	movq	%r12, %r13
	addq	552(%rsp), %r13
	movq	%r12, 408(%rsp)
	movq	%r11, 376(%rsp)
	leaq	(%rbx,%r14), %r11
	addq	%rdx, %r14
	addq	%rcx, %rbx
	leaq	(%r10,%r13), %r12
	addq	%rax, %r10
	addq	%r11, %r10
	addq	%r12, %rbx
	addq	%r14, %r12
	rolq	$37, %r10
	rolq	$11, %rbx
	rolq	$23, %r12
	addq	%r9, %r13
	addq	%r13, %r11
	movq	%r12, %r13
	rolq	$59, %r11
	xorq	%rbx, %r13
	movq	%r11, %r14
	xorq	%r13, %r11
	xorq	%r10, %r13
	xorq	%r10, %r14
	movq	%r13, %r10
	addq	536(%rsp), %r10
	xorq	%r14, %r12
	xorq	%r14, %rbx
	movq	%r11, %r14
	movq	%r12, 648(%rsp)
	addq	568(%rsp), %r14
	addq	680(%rsp), %r12
	movq	%rbx, 632(%rsp)
	addq	584(%rsp), %rbx
	movq	%r11, 728(%rsp)
	movq	%r13, 712(%rsp)
	leaq	(%r12,%r10), %r13
	addq	%r9, %r12
	addq	%rax, %r10
	leaq	(%r14,%rbx), %r11
	addq	%rcx, %rbx
	addq	%rdx, %r14
	addq	%r13, %rbx
	addq	%r13, %r14
	leaq	(%r12,%r11), %r13
	addq	%r11, %r10
	rolq	$23, %r14
	rolq	$37, %r10
	rolq	$11, %rbx
	movq	%r14, %r11
	rolq	$59, %r13
	xorq	%rbx, %r11
	movq	%r13, %r12
	xorq	%r11, %r13
	xorq	%r10, %r12
	xorq	%r11, %r10
	movabsq	$6609752215332129920, %r11
	xorq	%r12, %r14
	xorq	%r12, %rbx
	movabsq	$-824919486193887165, %r12
	movq	%r14, 680(%rsp)
	movabsq	$-1914029582460860148, %r14
	addq	%r12, %rbx
	addq	%r14, %r13
	addq	%r11, %r10
	movabsq	$-7632797540959622777, %r12
	addq	680(%rsp), %r12
	movabsq	$7484883476188376383, %r14
	addq	680(%rsp), %r14
	leaq	(%rbx,%r13), %r11
	addq	%rsi, %r13
	addq	%rdi, %rbx
	addq	%r10, %r12
	addq	%r8, %r10
	addq	%r11, %r10
	addq	%r12, %rbx
	addq	%r14, %r11
	addq	%r13, %r12
	rolq	$19, %r11
	rolq	$7, %r10
	rolq	$53, %r12
	rolq	$31, %rbx
	movq	%r11, %r14
	movq	%r12, %r13
	xorq	%r10, %r14
	xorq	%rbx, %r13
	xorq	%r14, %r12
	xorq	%rbx, %r14
	xorq	%r13, %r11
	xorq	%r10, %r13
	movq	%r12, 536(%rsp)
	movq	%r14, %rbx
	movq	%r13, 488(%rsp)
	addq	632(%rsp), %rbx
	movq	%r14, 552(%rsp)
	movq	%r11, %r13
	movq	488(%rsp), %r10
	addq	728(%rsp), %r13
	addq	712(%rsp), %r10
	movq	%r12, %r14
	addq	648(%rsp), %r14
	movq	%r11, 504(%rsp)
	leaq	(%rbx,%r13), %r11
	addq	%rdi, %rbx
	leaq	(%r10,%r14), %r12
	addq	%r15, %r14
	addq	%r8, %r10
	addq	%r11, %r10
	addq	%r14, %r11
	addq	%r12, %rbx
	rolq	$7, %r10
	rolq	$19, %r11
	rolq	$31, %rbx
	addq	%rsi, %r13
	movq	%r11, %r14
	addq	%r13, %r12
	xorq	%r10, %r14
	rolq	$53, %r12
	movq	%r12, %r13
	xorq	%r14, %r12
	xorq	%rbx, %r14
	xorq	%rbx, %r13
	movq	%r14, 584(%rsp)
	movq	%r14, %rbx
	xorq	%r13, %r11
	xorq	%r10, %r13
	addq	392(%rsp), %rbx
	movq	%r13, 472(%rsp)
	movq	%r12, %r14
	movq	%r11, %r13
	addq	408(%rsp), %r14
	addq	376(%rsp), %r13
	movq	472(%rsp), %r10
	addq	360(%rsp), %r10
	movq	%r12, 680(%rsp)
	movq	%r11, 568(%rsp)
	leaq	(%rbx,%r13), %r11
	addq	%rsi, %r13
	addq	%rdi, %rbx
	leaq	(%r10,%r14), %r12
	addq	%r15, %r14
	addq	%r8, %r10
	addq	%r11, %r10
	addq	%r14, %r11
	addq	%r12, %rbx
	addq	%r13, %r12
	rolq	$19, %r11
	rolq	$53, %r12
	rolq	$7, %r10
	rolq	$31, %rbx
	movq	%r11, %r14
	movq	%r12, %r13
	xorq	%r10, %r14
	xorq	%rbx, %r13
	xorq	%r13, %r11
	xorq	%r14, %r12
	xorq	%r10, %r13
	xorq	%rbx, %r14
	movq	%r12, 648(%rsp)
	movq	%r13, %r10
	movq	%r14, 632(%rsp)
	movq	%r14, %rbx
	movq	%r11, %r12
	addq	456(%rsp), %rbx
	addq	440(%rsp), %r12
	movq	648(%rsp), %r14
	addq	424(%rsp), %r10
	addq	744(%rsp), %r14
	movq	%r11, 728(%rsp)
	movq	%r13, 712(%rsp)
	leaq	(%r12,%rbx), %r13
	addq	%rsi, %r12
	addq	%rdi, %rbx
	leaq	(%r14,%r10), %r11
	addq	%r8, %r10
	addq	%r15, %r14
	addq	%r13, %r10
	addq	%r13, %r14
	leaq	(%r12,%r11), %r13
	rolq	$19, %r14
	rolq	$7, %r10
	addq	%r11, %rbx
	movq	%r14, %r12
	rolq	$53, %r13
	xorq	%r10, %r12
	rolq	$31, %rbx
	movq	%r13, %r11
	xorq	%r12, %r13
	xorq	%rbx, %r11
	xorq	%r12, %rbx
	movabsq	$-1139829817207230181, %r12
	addq	%r12, %rbx
	xorq	%r11, %r14
	movabsq	$3054837738180890943, %r12
	addq	%r12, %r14
	xorq	%r11, %r10
	movabsq	$-938319195649413462, %r12
	movabsq	$2588290990126348949, %r11
	addq	%r13, %r12
	addq	%r11, %r10
	leaq	(%rbx,%r14), %r11
	addq	%rdx, %r14
	addq	%r10, %r12
	addq	%rcx, %rbx
	addq	%rax, %r10
	addq	%r12, %rbx
	addq	%r11, %r10
	addq	%r14, %r12
	movabsq	$3257124934342745045, %r14
	rolq	$37, %r10
	rolq	$11, %rbx
	rolq	$23, %r12
	addq	%r14, %r13
	addq	%r13, %r11
	movq	%r12, %r14
	rolq	$59, %r11
	xorq	%rbx, %r14
	movq	%r11, %r13
	xorq	%r14, %r11
	xorq	%r10, %r14
	xorq	%r10, %r13
	movq	%r14, 408(%rsp)
	movq	%r11, %r14
	xorq	%r13, %r12
	xorq	%r13, %rbx
	addq	728(%rsp), %r14
	movq	%rbx, 440(%rsp)
	movq	408(%rsp), %r10
	movq	%r12, %r13
	addq	632(%rsp), %rbx
	addq	712(%rsp), %r10
	addq	648(%rsp), %r13
	movq	%r12, 456(%rsp)
	movq	%r11, 424(%rsp)
	leaq	(%rbx,%r14), %r11
	addq	%rdx, %r14
	addq	%rcx, %rbx
	leaq	(%r10,%r13), %r12
	addq	%r9, %r13
	addq	%rax, %r10
	addq	%r11, %r10
	addq	%r13, %r11
	addq	%r12, %rbx
	addq	%r14, %r12
	rolq	$59, %r11
	rolq	$23, %r12
	rolq	$37, %r10
	rolq	$11, %rbx
	movq	%r11, %r14
	movq	%r12, %r13
	xorq	%r10, %r14
	xorq	%rbx, %r13
	xorq	%r14, %r12
	xorq	%r13, %r11
	xorq	%r14, %rbx
	xorq	%r10, %r13
	movq	%r12, 392(%rsp)
	movq	%r11, %r14
	movq	%rbx, 376(%rsp)
	addq	568(%rsp), %r14
	movq	%r13, %r10
	addq	584(%rsp), %rbx
	movq	%r13, 344(%rsp)
	movq	%r12, %r13
	addq	472(%rsp), %r10
	addq	680(%rsp), %r13
	movq	%r11, 360(%rsp)
	leaq	(%rbx,%r14), %r11
	addq	%rdx, %r14
	addq	%rcx, %rbx
	leaq	(%r10,%r13), %r12
	addq	%r9, %r13
	addq	%rax, %r10
	addq	%r11, %r10
	addq	%r13, %r11
	addq	%r12, %rbx
	addq	%r14, %r12
	rolq	$59, %r11
	rolq	$23, %r12
	rolq	$37, %r10
	rolq	$11, %rbx
	movq	%r11, %r14
	movq	%r12, %r13
	xorq	%r10, %r14
	xorq	%rbx, %r13
	xorq	%r13, %r11
	xorq	%r14, %r12
	xorq	%r14, %rbx
	xorq	%r10, %r13
	movq	%r12, 744(%rsp)
	movq	%rbx, 680(%rsp)
	addq	536(%rsp), %r12
	addq	552(%rsp), %rbx
	movq	%r11, %r14
	movq	%r13, %r10
	addq	504(%rsp), %r14
	addq	488(%rsp), %r10
	movq	%r11, 584(%rsp)
	movq	%r13, 568(%rsp)
	leaq	(%r14,%rbx), %r11
	leaq	(%r12,%r10), %r13
	addq	%rcx, %rbx
	addq	%rdx, %r14
	addq	%rax, %r10
	addq	%r13, %rbx
	addq	%r13, %r14
	addq	%r11, %r10
	rolq	$11, %rbx
	rolq	$23, %r14
	rolq	$37, %r10
	addq	%r9, %r12
	leaq	(%r12,%r11), %r13
	movq	%r14, %r11
	xorq	%rbx, %r11
	rolq	$59, %r13
	movq	%r13, %r12
	xorq	%r11, %r13
	xorq	%r10, %r12
	xorq	%r11, %r10
	movabsq	$-496885038275669880, %r11
	xorq	%r12, %r14
	xorq	%r12, %rbx
	movabsq	$-6097248013946911484, %r12
	movq	%r14, 728(%rsp)
	addq	%r12, %rbx
	movabsq	$3174302594670681997, %r14
	movabsq	$-8739574512844769069, %r12
	addq	728(%rsp), %r12
	addq	%r14, %r13
	movabsq	$6378106504303230091, %r14
	addq	728(%rsp), %r14
	addq	%r11, %r10
	leaq	(%rbx,%r13), %r11
	addq	%rsi, %r13
	addq	%rdi, %rbx
	addq	%r10, %r12
	addq	%r8, %r10
	addq	%r11, %r10
	addq	%r12, %rbx
	addq	%r14, %r11
	addq	%r13, %r12
	rolq	$19, %r11
	rolq	$7, %r10
	rolq	$53, %r12
	rolq	$31, %rbx
	movq	%r11, %r14
	movq	%r12, %r13
	xorq	%r10, %r14
	xorq	%rbx, %r13
	xorq	%r14, %r12
	xorq	%rbx, %r14
	xorq	%r13, %r11
	xorq	%r10, %r13
	movq	%r14, 632(%rsp)
	movq	%r13, 712(%rsp)
	movq	%r14, preCompInternalState+8(%rip)
	movq	%r14, %rbx
	movq	%r13, preCompInternalState+24(%rip)
	addq	680(%rsp), %rbx
	movq	%r11, %r13
	movq	712(%rsp), %r10
	addq	584(%rsp), %r13
	movq	%r12, %r14
	addq	568(%rsp), %r10
	addq	744(%rsp), %r14
	movq	%r12, 648(%rsp)
	movq	%r12, preCompInternalState(%rip)
	movq	%r11, 728(%rsp)
	movq	%r11, preCompInternalState+16(%rip)
	leaq	(%rbx,%r13), %r11
	addq	%rsi, %r13
	addq	%rdi, %rbx
	leaq	(%r10,%r14), %r12
	addq	%r15, %r14
	addq	%r8, %r10
	addq	%r11, %r10
	addq	%r14, %r11
	addq	%r12, %rbx
	addq	%r13, %r12
	rolq	$19, %r11
	rolq	$53, %r12
	rolq	$7, %r10
	rolq	$31, %rbx
	movq	%r11, %r14
	movq	%r12, %r13
	xorq	%r10, %r14
	xorq	%rbx, %r13
	xorq	%r14, %r12
	xorq	%r13, %r11
	xorq	%rbx, %r14
	xorq	%r10, %r13
	movq	%r12, 536(%rsp)
	movq	%r14, 552(%rsp)
	movq	%r14, %rbx
	movq	%r11, 504(%rsp)
	movq	%r12, %r14
	addq	376(%rsp), %rbx
	addq	392(%rsp), %r14
	movq	%r13, 488(%rsp)
	movq	%r11, %r13
	movq	488(%rsp), %r10
	addq	360(%rsp), %r13
	addq	344(%rsp), %r10
	leaq	(%rbx,%r13), %r11
	leaq	(%r10,%r14), %r12
	addq	%rdi, %rbx
	addq	%r15, %r14
	addq	%r8, %r10
	addq	%r11, %r10
	addq	%r12, %rbx
	addq	%r14, %r11
	rolq	$7, %r10
	rolq	$31, %rbx
	rolq	$19, %r11
	addq	%rsi, %r13
	movq	%r11, %r14
	addq	%r13, %r12
	xorq	%r10, %r14
	rolq	$53, %r12
	movq	%r12, %r13
	xorq	%r14, %r12
	xorq	%rbx, %r14
	xorq	%rbx, %r13
	movq	%r14, %rbx
	addq	440(%rsp), %rbx
	xorq	%r13, %r11
	xorq	%r10, %r13
	movq	%r14, 680(%rsp)
	movq	%r11, 584(%rsp)
	addq	424(%rsp), %r11
	movq	%r13, %r14
	movq	%r13, 568(%rsp)
	addq	408(%rsp), %r14
	movq	%r12, %r13
	addq	456(%rsp), %r13
	movq	%r12, 744(%rsp)
	addq	%rbx, %rdi
	leaq	(%r11,%rbx), %r12
	addq	%r11, %rsi
	movabsq	$-4925106476758491821, %rbx
	addq	%r14, %r8
	movabsq	$1906713845121804688, %r11
	leaq	0(%r13,%r14), %r10
	addq	%r15, %r13
	leaq	(%r8,%r12), %r14
	addq	%r13, %r12
	movabsq	$853475092736589577, %r15
	rolq	$19, %r12
	addq	%r10, %rdi
	addq	%rsi, %r10
	rolq	$7, %r14
	rolq	$53, %r10
	movq	%r12, %r8
	xorq	%r14, %r8
	rolq	$31, %rdi
	movq	%r10, %rsi
	xorq	%rdi, %rsi
	movq	%r8, %r13
	xorq	%r8, %rdi
	xorq	%rsi, %r12
	xorq	%r10, %r13
	xorq	%r14, %rsi
	movabsq	$-5486504877919021346, %r10
	addq	%r15, %rdi
	addq	%rbx, %rsi
	addq	%r12, %r10
	addq	%r13, %r11
	movq	%rdi, InternalState+96(%rip)
	leaq	(%rdi,%r10), %r8
	movq	%r10, InternalState+104(%rip)
	movq	%r11, InternalState+120(%rip)
	addq	%rdx, %r10
	addq	%rsi, %r11
	addq	%rcx, %rdi
	leaq	(%r11,%r10), %r15
	movabsq	$6102157975113963195, %r10
	movq	%rsi, InternalState+112(%rip)
	addq	%r10, %r13
	addq	%rax, %rsi
	addq	%r11, %rdi
	addq	%r8, %r13
	rolq	$23, %r15
	addq	%r8, %rsi
	rolq	$59, %r13
	rolq	$11, %rdi
	rolq	$37, %rsi
	movq	%r13, %r12
	movq	%r15, %r14
	xorq	%rsi, %r12
	xorq	%rdi, %r14
	xorq	%r12, %r15
	xorq	%r14, %r13
	xorq	%rdi, %r12
	xorq	%rsi, %r14
	movq	%r15, preCompInternalState+96(%rip)
	movq	%r12, preCompInternalState+104(%rip)
	addq	744(%rsp), %r15
	addq	680(%rsp), %r12
	movq	%r13, preCompInternalState+112(%rip)
	movq	%r14, preCompInternalState+120(%rip)
	addq	584(%rsp), %r13
	addq	568(%rsp), %r14
	leaq	(%r12,%rcx), %r8
	leaq	(%r15,%r9), %r11
	movq	%r12, InternalState+64(%rip)
	movq	%r15, InternalState+88(%rip)
	leaq	(%r14,%r15), %rsi
	leaq	0(%r13,%rdx), %r10
	leaq	(%r12,%r13), %rdi
	movq	%r13, InternalState+72(%rip)
	movq	%r14, InternalState+80(%rip)
	addq	%rsi, %r8
	addq	%rsi, %r10
	leaq	(%r14,%rax), %rsi
	rolq	$23, %r10
	rolq	$11, %r8
	addq	%rdi, %rsi
	addq	%r11, %rdi
	movq	%r10, %r11
	rolq	$59, %rdi
	rolq	$37, %rsi
	xorq	%r8, %r11
	movq	%rdi, %rbx
	xorq	%rsi, %rbx
	xorq	%rbx, %r10
	xorq	%r11, %rdi
	xorq	%r11, %rsi
	xorq	%r8, %rbx
	movq	%r10, preCompInternalState+64(%rip)
	movq	%rdi, preCompInternalState+80(%rip)
	movq	%rbx, preCompInternalState+72(%rip)
	movq	%rsi, preCompInternalState+88(%rip)
	movq	504(%rsp), %r8
	addq	552(%rsp), %rbx
	addq	%rdi, %r8
	movq	488(%rsp), %rdi
	addq	%r8, %rdx
	addq	%rbx, %rcx
	movq	%r8, InternalState+40(%rip)
	movq	%rbx, InternalState+32(%rip)
	addq	%rsi, %rdi
	movq	536(%rsp), %rsi
	addq	%rdi, %rax
	movq	%rdi, InternalState+48(%rip)
	addq	%r10, %rsi
	leaq	(%rbx,%r8), %r10
	leaq	(%rdi,%rsi), %r11
	movq	%rsi, InternalState+56(%rip)
	addq	%r9, %rsi
	addq	%r10, %rax
	addq	%rsi, %r10
	movq	%rbx, %r9
	addq	%r11, %rdx
	addq	%r11, %rcx
	rolq	$59, %r10
	rolq	$23, %rdx
	rolq	$11, %rcx
	rolq	$37, %rax
	movq	%r10, %rdi
	movq	%rdx, %rsi
	movq	InternalState+40(%rip), %r11
	xorq	%rax, %rdi
	xorq	%rcx, %rsi
	xorq	%rsi, %r10
	xorq	%rdi, %rcx
	xorq	%rdi, %rdx
	movq	%rcx, preCompInternalState+40(%rip)
	movq	%r10, preCompInternalState+48(%rip)
	xorq	%rsi, %rax
	addq	632(%rsp), %rcx
	addq	728(%rsp), %r10
	movq	%rdx, preCompInternalState+32(%rip)
	movq	712(%rsp), %rsi
	addq	648(%rsp), %rdx
	movq	%rax, preCompInternalState+56(%rip)
	movq	%rcx, 648(%rsp)
	movq	%r10, 656(%rsp)
	addq	%rax, %rsi
	movdqa	648(%rsp), %xmm8
	movq	%rcx, %rdi
	movq	%rsi, 648(%rsp)
	movq	%rdx, 656(%rsp)
	movq	%rsi, %r8
	movdqa	648(%rsp), %xmm0
	movq	InternalState+48(%rip), %rax
	movq	%rbx, 648(%rsp)
	movq	%r12, %rbx
	movq	%r11, 656(%rsp)
	movq	%rcx, InternalState(%rip)
	movdqa	%xmm8, 904(%rsp)
	movq	%rax, %r11
	movq	%r10, InternalState+8(%rip)
	movq	%rsi, InternalState+16(%rip)
	movdqa	%xmm0, 920(%rsp)
	movdqa	648(%rsp), %xmm8
	movq	%rdx, InternalState+24(%rip)
	movdqa	%xmm8, 936(%rsp)
	movq	%rax, 648(%rsp)
	movq	InternalState+56(%rip), %rax
	movq	%rax, 656(%rsp)
	movq	InternalState+96(%rip), %rax
	movdqa	648(%rsp), %xmm0
	movq	%r12, 648(%rsp)
	movq	%r13, 656(%rsp)
	movdqa	%xmm0, 952(%rsp)
	movq	%rax, 80(%rsp)
	addq	600(%rsp), %rcx
	movdqa	648(%rsp), %xmm0
	movq	%r14, 648(%rsp)
	movq	%r15, 656(%rsp)
	movdqa	%xmm0, 968(%rsp)
	addq	664(%rsp), %rsi
	addq	616(%rsp), %r10
	movdqa	648(%rsp), %xmm0
	movq	%rax, 648(%rsp)
	movq	InternalState+104(%rip), %rax
	movdqa	%xmm0, 984(%rsp)
	addq	696(%rsp), %rdx
	movq	%r14, 88(%rsp)
	movq	%rax, 656(%rsp)
	movq	InternalState+112(%rip), %rax
	movdqa	648(%rsp), %xmm0
	movq	%rcx, 776(%rsp)
	movq	%rsi, 792(%rsp)
	movq	%rax, 648(%rsp)
	movq	%rax, 32(%rsp)
	movq	InternalState+120(%rip), %rax
	movq	%r10, 784(%rsp)
	movdqa	%xmm0, 1000(%rsp)
	movq	%rax, 656(%rsp)
	movdqa	648(%rsp), %xmm0
	movdqa	%xmm0, 1016(%rsp)
	movq	%rdx, 800(%rsp)
	movq	%rcx, -112(%rsp)
	movq	%r9, %rcx
	addq	280(%rsp), %r12
	movq	-112(%rsp), %xmm1
	addq	296(%rsp), %r13
	movq	%r10, -112(%rsp)
	movq	-112(%rsp), %xmm3
	addq	312(%rsp), %r14
	movq	%rsi, -112(%rsp)
	addq	328(%rsp), %r15
	movq	-112(%rsp), %xmm4
	movq	%rdx, -112(%rsp)
	movq	-112(%rsp), %xmm6
	movq	%r12, -112(%rsp)
	movq	-112(%rsp), %xmm8
	movq	%r13, -112(%rsp)
	movq	-112(%rsp), %xmm9
	movq	%r14, -112(%rsp)
	movq	-112(%rsp), %xmm10
	movq	%r15, -112(%rsp)
	movq	-112(%rsp), %xmm11
	movq	%xmm1, %xmm2
	movq	520(%rsp), %xmm12
	movq	%r12, 808(%rsp)
	movq	%xmm3, %xmm1
	movhps	96(%rsp), %xmm12
	movq	%xmm4, %xmm0
	movq	%r13, 816(%rsp)
	movq	%xmm6, %xmm7
	movq	%r14, 824(%rsp)
	movq	%xmm8, %xmm6
	movq	%r15, 832(%rsp)
	movq	%xmm9, %xmm5
	movq	%r11, %r13
	movq	%xmm10, %xmm4
	movq	%rbx, %r15
	movq	%xmm11, %xmm3
	movdqa	%xmm2, 1032(%rsp)
	movdqa	%xmm1, 1048(%rsp)
	movdqa	%xmm0, 1064(%rsp)
	movdqa	%xmm7, 1080(%rsp)
	movdqa	%xmm6, 1096(%rsp)
	movdqa	%xmm5, 1112(%rsp)
	movdqa	%xmm4, 1128(%rsp)
	movdqa	%xmm3, 1144(%rsp)
	movdqa	%xmm12, 648(%rsp)
	movq	928(%rsp), %rdx
	movq	%r8, -112(%rsp)
	movq	-112(%rsp), %xmm9
	movq	%rdi, 104(%rsp)
	movq	944(%rsp), %r12
	movq	104(%rsp), %xmm13
	movq	%rdx, -112(%rsp)
	punpcklqdq	%xmm13, %xmm13
	movq	-112(%rsp), %xmm10
	movq	%r9, -112(%rsp)
	movq	-112(%rsp), %xmm11
	movq	912(%rsp), %rax
	movq	960(%rsp), %r14
	movq	%r12, -112(%rsp)
	punpcklqdq	%xmm11, %xmm11
	movq	-112(%rsp), %xmm12
	movq	%r11, -112(%rsp)
	movq	%rax, 112(%rsp)
	movdqa	%xmm13, 168(%rsp)
	punpcklqdq	%xmm9, %xmm9
	movdqa	%xmm13, 1160(%rsp)
	punpcklqdq	%xmm10, %xmm10
	movdqa	%xmm11, 280(%rsp)
	punpcklqdq	%xmm12, %xmm12
	movdqa	%xmm11, 1224(%rsp)
	movdqa	%xmm9, 312(%rsp)
	movdqa	%xmm9, 1192(%rsp)
	movdqa	%xmm10, 296(%rsp)
	movdqa	%xmm10, 1208(%rsp)
	movdqa	%xmm12, 1240(%rsp)
	movq	-112(%rsp), %xmm13
	movq	%r14, -112(%rsp)
	movq	112(%rsp), %xmm8
	movq	-112(%rsp), %xmm11
	punpcklqdq	%xmm8, %xmm8
	punpcklqdq	%xmm13, %xmm13
	punpcklqdq	%xmm11, %xmm11
	movdqa	%xmm8, 488(%rsp)
	movdqa	%xmm13, %xmm9
	movdqa	%xmm8, 1176(%rsp)
	movdqa	%xmm12, %xmm8
	movdqa	%xmm13, 1256(%rsp)
	movdqa	%xmm11, %xmm10
	movdqa	%xmm11, 1272(%rsp)
	movq	%rbx, -112(%rsp)
	movq	976(%rsp), %rax
	movq	-112(%rsp), %xmm12
	movq	16(%rsp), %rsi
	punpcklqdq	%xmm12, %xmm12
	movq	%rax, 56(%rsp)
	movq	992(%rsp), %rax
	movq	56(%rsp), %xmm11
	shrq	$7, %rsi
	movdqa	%xmm12, 264(%rsp)
	movq	%rax, 48(%rsp)
	punpcklqdq	%xmm11, %xmm11
	movdqa	%xmm12, 1288(%rsp)
	testq	%rsi, %rsi
	movdqa	%xmm11, 248(%rsp)
	movdqa	%xmm11, 1304(%rsp)
	movq	88(%rsp), %xmm12
	movq	1008(%rsp), %rax
	movq	48(%rsp), %xmm13
	punpcklqdq	%xmm12, %xmm12
	punpcklqdq	%xmm13, %xmm13
	movq	%rax, 40(%rsp)
	movq	1024(%rsp), %rax
	movdqa	%xmm12, %xmm11
	movdqa	%xmm12, 1320(%rsp)
	movdqa	%xmm13, %xmm12
	movq	%rax, 24(%rsp)
	movdqa	%xmm13, 1336(%rsp)
	movq	80(%rsp), %xmm13
	punpcklqdq	%xmm13, %xmm13
	movdqa	%xmm13, 232(%rsp)
	movdqa	%xmm13, 1352(%rsp)
	movq	40(%rsp), %xmm13
	punpcklqdq	%xmm13, %xmm13
	movdqa	%xmm13, 216(%rsp)
	movdqa	%xmm13, 1368(%rsp)
	movq	32(%rsp), %xmm13
	punpcklqdq	%xmm13, %xmm13
	movdqa	%xmm13, 200(%rsp)
	movdqa	%xmm13, 1384(%rsp)
	movq	24(%rsp), %xmm13
	punpcklqdq	%xmm13, %xmm13
	movdqa	%xmm13, 184(%rsp)
	movdqa	%xmm13, 1400(%rsp)
	je	.L50
	movdqa	%xmm1, 664(%rsp)
	movdqa	%xmm9, %xmm1
	movq	-88(%rsp), %rdi
	movdqa	%xmm0, 616(%rsp)
	paddq	%xmm10, %xmm1
	xorl	%r9d, %r9d
	movdqa	%xmm1, 152(%rsp)
	movdqa	%xmm3, 712(%rsp)
	movdqa	%xmm11, %xmm3
	movdqa	%xmm2, 696(%rsp)
	paddq	%xmm12, %xmm3
	movdqa	%xmm3, 456(%rsp)
	movdqa	%xmm6, 632(%rsp)
	movdqa	%xmm4, 728(%rsp)
	movdqa	%xmm7, 520(%rsp)
	movdqa	%xmm5, 600(%rsp)
	movdqa	312(%rsp), %xmm0
	movq	72(%rsp), %rax
	paddq	296(%rsp), %xmm0
	movdqa	%xmm0, 472(%rsp)
	movdqa	.LC2(%rip), %xmm0
	paddq	%xmm8, %xmm0
	paddq	152(%rsp), %xmm0
	movdqa	%xmm0, %xmm3
	psllq	$23, %xmm0
	movdqa	280(%rsp), %xmm2
	psrlq	$41, %xmm3
	por	%xmm0, %xmm3
	movdqa	.LC3(%rip), %xmm0
	paddq	%xmm8, %xmm2
	movdqa	%xmm3, 392(%rsp)
	paddq	%xmm2, %xmm0
	paddq	%xmm9, %xmm0
	movdqa	%xmm0, %xmm3
	paddq	.LC4(%rip), %xmm2
	psllq	$37, %xmm0
	paddq	%xmm10, %xmm2
	psrlq	$27, %xmm3
	por	%xmm0, %xmm3
	movdqa	%xmm2, %xmm0
	psllq	$59, %xmm2
	movdqa	264(%rsp), %xmm1
	psrlq	$5, %xmm0
	por	%xmm2, %xmm0
	paddq	248(%rsp), %xmm1
	movdqa	%xmm3, 376(%rsp)
	pxor	%xmm0, %xmm3
	movdqa	%xmm0, 360(%rsp)
	movdqa	%xmm3, 136(%rsp)
	pxor	392(%rsp), %xmm3
	movdqa	200(%rsp), %xmm4
	movdqa	232(%rsp), %xmm6
	paddq	184(%rsp), %xmm4
	paddq	216(%rsp), %xmm6
	movdqa	%xmm4, 424(%rsp)
	movdqa	%xmm6, 440(%rsp)
	movdqa	%xmm3, 120(%rsp)
	movdqa	.LC3(%rip), %xmm0
	paddq	%xmm1, %xmm0
	paddq	%xmm11, %xmm0
	movdqa	%xmm0, %xmm2
	paddq	.LC4(%rip), %xmm1
	psllq	$37, %xmm0
	paddq	%xmm12, %xmm1
	psrlq	$27, %xmm2
	por	%xmm0, %xmm2
	movdqa	%xmm1, %xmm0
	psllq	$59, %xmm1
	psrlq	$5, %xmm0
	por	%xmm1, %xmm0
	movdqa	%xmm2, 344(%rsp)
	pxor	%xmm0, %xmm2
	movdqa	%xmm0, 328(%rsp)
	movdqa	%xmm2, 408(%rsp)
	.p2align 4,,10
	.p2align 3
.L20:
	movdqa	648(%rsp), %xmm8
	addq	$1, %r9
	movdqa	168(%rsp), %xmm2
	paddq	.LC0(%rip), %xmm8
	pxor	%xmm8, %xmm2
	movdqa	488(%rsp), %xmm0
	movdqa	.LC2(%rip), %xmm4
	paddq	%xmm2, %xmm0
	paddq	.LC1(%rip), %xmm2
	paddq	472(%rsp), %xmm2
	movdqa	%xmm2, %xmm1
	psllq	$11, %xmm2
	paddq	488(%rsp), %xmm4
	movdqa	.LC3(%rip), %xmm5
	paddq	472(%rsp), %xmm4
	psrlq	$53, %xmm1
	por	%xmm1, %xmm2
	movdqa	%xmm4, %xmm1
	paddq	%xmm0, %xmm5
	psllq	$23, %xmm4
	paddq	312(%rsp), %xmm5
	psrlq	$41, %xmm1
	por	%xmm1, %xmm4
	paddq	.LC4(%rip), %xmm0
	movdqa	%xmm5, %xmm1
	paddq	296(%rsp), %xmm0
	psllq	$37, %xmm5
	movdqa	.LC5(%rip), %xmm13
	psrlq	$27, %xmm1
	por	%xmm1, %xmm5
	movdqa	%xmm0, %xmm1
	psllq	$59, %xmm0
	movdqa	.LC1(%rip), %xmm12
	psrlq	$5, %xmm1
	por	%xmm1, %xmm0
	movdqa	%xmm2, %xmm1
	movdqa	%xmm5, %xmm3
	paddq	280(%rsp), %xmm12
	paddq	152(%rsp), %xmm12
	pxor	%xmm4, %xmm1
	movdqa	.LC2(%rip), %xmm6
	pxor	%xmm0, %xmm3
	movdqa	%xmm8, 648(%rsp)
	paddq	248(%rsp), %xmm6
	paddq	456(%rsp), %xmm6
	pxor	%xmm1, %xmm5
	pxor	%xmm3, %xmm2
	pxor	%xmm1, %xmm0
	pxor	%xmm3, %xmm4
	paddq	_ZL14preCompConstV2+48(%rip), %xmm5
	movdqa	%xmm5, %xmm1
	paddq	_ZL14preCompConstV2+16(%rip), %xmm2
	movdqa	%xmm2, %xmm3
	paddq	.LC7(%rip), %xmm2
	paddq	_ZL14preCompConstV2+32(%rip), %xmm0
	movdqa	.LC1(%rip), %xmm8
	paddq	%xmm0, %xmm3
	paddq	%xmm3, %xmm13
	paddq	%xmm5, %xmm13
	movdqa	%xmm13, %xmm5
	paddq	_ZL14preCompConstV2(%rip), %xmm4
	paddq	.LC6(%rip), %xmm3
	paddq	%xmm4, %xmm1
	paddq	%xmm4, %xmm3
	movdqa	%xmm3, %xmm4
	psrlq	$57, %xmm5
	psllq	$7, %xmm13
	por	%xmm5, %xmm13
	paddq	%xmm1, %xmm2
	psrlq	$45, %xmm4
	psllq	$19, %xmm3
	por	%xmm4, %xmm3
	paddq	.LC8(%rip), %xmm0
	paddq	%xmm1, %xmm0
	movdqa	%xmm2, %xmm4
	movdqa	%xmm0, %xmm1
	psllq	$31, %xmm2
	psllq	$53, %xmm0
	movdqa	392(%rsp), %xmm5
	paddq	264(%rsp), %xmm8
	psrlq	$33, %xmm4
	por	%xmm4, %xmm2
	movdqa	%xmm13, %xmm4
	psrlq	$11, %xmm1
	por	%xmm1, %xmm0
	paddq	456(%rsp), %xmm8
	pxor	%xmm3, %xmm4
	movdqa	.LC5(%rip), %xmm10
	movdqa	%xmm2, %xmm1
	movdqa	.LC3(%rip), %xmm15
	pxor	%xmm0, %xmm1
	pxor	%xmm4, %xmm0
	paddq	440(%rsp), %xmm15
	movdqa	.LC4(%rip), %xmm11
	pxor	%xmm4, %xmm2
	paddq	200(%rsp), %xmm15
	pxor	%xmm1, %xmm3
	paddq	440(%rsp), %xmm11
	paddq	184(%rsp), %xmm11
	movdqa	%xmm0, 744(%rsp)
	movdqa	%xmm12, %xmm0
	psllq	$11, %xmm12
	pxor	%xmm1, %xmm13
	psrlq	$53, %xmm0
	por	%xmm0, %xmm12
	movdqa	360(%rsp), %xmm0
	pxor	%xmm12, %xmm5
	pxor	136(%rsp), %xmm12
	movdqa	%xmm3, 680(%rsp)
	pxor	%xmm5, %xmm0
	movdqa	%xmm13, 584(%rsp)
	paddq	%xmm2, %xmm12
	paddq	%xmm3, %xmm0
	movdqa	%xmm12, %xmm9
	paddq	.LC7(%rip), %xmm12
	pxor	376(%rsp), %xmm5
	paddq	%xmm0, %xmm9
	paddq	.LC8(%rip), %xmm0
	movdqa	744(%rsp), %xmm4
	movdqa	.LC5(%rip), %xmm1
	paddq	120(%rsp), %xmm4
	paddq	%xmm13, %xmm5
	movdqa	%xmm5, %xmm3
	paddq	%xmm9, %xmm1
	paddq	.LC6(%rip), %xmm9
	paddq	%xmm4, %xmm9
	paddq	%xmm5, %xmm1
	paddq	%xmm4, %xmm3
	movdqa	%xmm9, %xmm4
	paddq	%xmm3, %xmm12
	psllq	$19, %xmm9
	paddq	%xmm3, %xmm0
	movdqa	%xmm0, %xmm3
	psrlq	$45, %xmm4
	por	%xmm4, %xmm9
	movdqa	%xmm12, %xmm4
	psllq	$31, %xmm12
	movdqa	%xmm1, %xmm5
	psrlq	$11, %xmm3
	psrlq	$33, %xmm4
	por	%xmm4, %xmm12
	psllq	$53, %xmm0
	por	%xmm3, %xmm0
	psrlq	$57, %xmm5
	psllq	$7, %xmm1
	por	%xmm5, %xmm1
	movdqa	.LC5(%rip), %xmm14
	movdqa	%xmm12, %xmm3
	pxor	%xmm0, %xmm3
	movdqa	%xmm1, %xmm4
	pxor	%xmm3, %xmm1
	pxor	%xmm9, %xmm4
	pxor	%xmm3, %xmm9
	movdqa	%xmm8, %xmm3
	psllq	$11, %xmm8
	psrlq	$53, %xmm3
	por	%xmm3, %xmm8
	movdqa	%xmm6, %xmm3
	psllq	$23, %xmm6
	pxor	%xmm4, %xmm12
	pxor	%xmm4, %xmm0
	psrlq	$41, %xmm3
	por	%xmm3, %xmm6
	movdqa	%xmm8, %xmm7
	movdqa	328(%rsp), %xmm3
	pxor	408(%rsp), %xmm8
	pxor	%xmm6, %xmm7
	pxor	408(%rsp), %xmm6
	pxor	%xmm7, %xmm3
	paddq	%xmm12, %xmm8
	pxor	344(%rsp), %xmm7
	movdqa	%xmm8, %xmm5
	paddq	.LC7(%rip), %xmm8
	paddq	%xmm0, %xmm6
	paddq	%xmm9, %xmm3
	paddq	%xmm3, %xmm5
	paddq	%xmm5, %xmm10
	paddq	.LC6(%rip), %xmm5
	paddq	%xmm6, %xmm5
	paddq	.LC8(%rip), %xmm3
	paddq	%xmm1, %xmm7
	movdqa	%xmm7, %xmm4
	paddq	%xmm7, %xmm10
	movdqa	%xmm10, %xmm7
	psllq	$7, %xmm10
	paddq	%xmm6, %xmm4
	movdqa	%xmm5, %xmm6
	paddq	%xmm4, %xmm8
	psllq	$19, %xmm5
	paddq	%xmm4, %xmm3
	movdqa	%xmm3, %xmm4
	psrlq	$45, %xmm6
	por	%xmm6, %xmm5
	movdqa	%xmm8, %xmm6
	psllq	$31, %xmm8
	psrlq	$57, %xmm7
	psrlq	$11, %xmm4
	psrlq	$33, %xmm6
	por	%xmm6, %xmm8
	psllq	$53, %xmm3
	por	%xmm7, %xmm10
	movdqa	.LC2(%rip), %xmm7
	por	%xmm4, %xmm3
	movdqa	%xmm8, %xmm4
	paddq	216(%rsp), %xmm7
	paddq	424(%rsp), %xmm7
	movdqa	%xmm10, %xmm6
	pxor	%xmm3, %xmm4
	pxor	%xmm5, %xmm6
	pxor	%xmm4, %xmm10
	pxor	%xmm4, %xmm5
	movdqa	.LC1(%rip), %xmm4
	pxor	%xmm6, %xmm3
	pxor	%xmm6, %xmm8
	paddq	232(%rsp), %xmm4
	paddq	424(%rsp), %xmm4
	movdqa	%xmm4, %xmm6
	psllq	$11, %xmm4
	psrlq	$53, %xmm6
	por	%xmm6, %xmm4
	movdqa	%xmm7, %xmm6
	psllq	$23, %xmm7
	psrlq	$41, %xmm6
	por	%xmm6, %xmm7
	movdqa	%xmm15, %xmm6
	psllq	$37, %xmm15
	psrlq	$27, %xmm6
	por	%xmm6, %xmm15
	movdqa	%xmm11, %xmm6
	psllq	$59, %xmm11
	psrlq	$5, %xmm6
	por	%xmm6, %xmm11
	movdqa	%xmm15, %xmm13
	movdqa	%xmm4, %xmm6
	pxor	%xmm11, %xmm13
	pxor	%xmm7, %xmm6
	pxor	%xmm13, %xmm4
	pxor	%xmm6, %xmm15
	pxor	%xmm13, %xmm7
	pxor	%xmm6, %xmm11
	paddq	%xmm8, %xmm4
	movdqa	%xmm4, %xmm13
	paddq	%xmm10, %xmm15
	movdqa	%xmm15, %xmm6
	paddq	.LC7(%rip), %xmm4
	paddq	%xmm3, %xmm7
	paddq	%xmm5, %xmm11
	paddq	%xmm7, %xmm6
	paddq	%xmm11, %xmm13
	paddq	%xmm13, %xmm14
	paddq	.LC6(%rip), %xmm13
	paddq	%xmm7, %xmm13
	movdqa	%xmm13, %xmm7
	paddq	%xmm6, %xmm4
	paddq	%xmm15, %xmm14
	psllq	$19, %xmm13
	movdqa	%xmm14, %xmm15
	paddq	.LC8(%rip), %xmm11
	psrlq	$45, %xmm7
	por	%xmm7, %xmm13
	movdqa	%xmm4, %xmm7
	psrlq	$57, %xmm15
	paddq	%xmm6, %xmm11
	psllq	$7, %xmm14
	psrlq	$33, %xmm7
	por	%xmm15, %xmm14
	psllq	$31, %xmm4
	movdqa	%xmm11, %xmm6
	por	%xmm7, %xmm4
	psllq	$53, %xmm11
	psrlq	$11, %xmm6
	por	%xmm6, %xmm11
	movdqa	%xmm14, %xmm7
	movdqa	%xmm4, %xmm6
	pxor	%xmm13, %xmm7
	pxor	%xmm11, %xmm6
	pxor	%xmm7, %xmm4
	pxor	%xmm6, %xmm14
	pxor	%xmm7, %xmm11
	pxor	%xmm6, %xmm13
	paddq	_ZL14preCompConstV2+80(%rip), %xmm4
	movdqa	%xmm4, %xmm7
	paddq	_ZL14preCompConstV2+112(%rip), %xmm14
	movdqa	%xmm14, %xmm6
	paddq	.LC1(%rip), %xmm4
	paddq	_ZL14preCompConstV2+64(%rip), %xmm11
	paddq	_ZL14preCompConstV2+96(%rip), %xmm13
	paddq	%xmm11, %xmm6
	paddq	%xmm13, %xmm7
	paddq	%xmm6, %xmm4
	paddq	.LC2(%rip), %xmm13
	paddq	%xmm6, %xmm13
	movdqa	%xmm13, %xmm6
	psllq	$23, %xmm13
	movdqa	%xmm4, %xmm15
	psllq	$11, %xmm4
	psrlq	$41, %xmm6
	por	%xmm6, %xmm13
	movdqa	.LC3(%rip), %xmm6
	psrlq	$53, %xmm15
	por	%xmm15, %xmm4
	paddq	%xmm7, %xmm6
	paddq	%xmm14, %xmm6
	movdqa	%xmm6, %xmm14
	paddq	.LC4(%rip), %xmm7
	psllq	$37, %xmm6
	paddq	%xmm11, %xmm7
	psrlq	$27, %xmm14
	movdqa	%xmm7, %xmm11
	psllq	$59, %xmm7
	por	%xmm14, %xmm6
	psrlq	$5, %xmm11
	por	%xmm11, %xmm7
	movdqa	%xmm4, %xmm11
	movdqa	%xmm6, %xmm14
	pxor	%xmm13, %xmm11
	pxor	%xmm7, %xmm14
	pxor	%xmm11, %xmm6
	pxor	%xmm14, %xmm13
	pxor	%xmm11, %xmm7
	pxor	%xmm14, %xmm4
	paddq	%xmm6, %xmm10
	movdqa	%xmm13, 568(%rsp)
	paddq	%xmm13, %xmm3
	paddq	%xmm7, %xmm5
	movdqa	%xmm7, 536(%rsp)
	paddq	%xmm4, %xmm8
	movdqa	%xmm8, %xmm7
	paddq	.LC1(%rip), %xmm8
	movdqa	%xmm6, 552(%rsp)
	movdqa	%xmm10, %xmm6
	paddq	%xmm5, %xmm7
	paddq	.LC2(%rip), %xmm5
	paddq	%xmm3, %xmm6
	paddq	%xmm6, %xmm8
	paddq	%xmm6, %xmm5
	movdqa	%xmm5, %xmm6
	psllq	$23, %xmm5
	movdqa	%xmm8, %xmm11
	psllq	$11, %xmm8
	movdqa	584(%rsp), %xmm13
	psrlq	$41, %xmm6
	por	%xmm6, %xmm5
	movdqa	.LC3(%rip), %xmm6
	psrlq	$53, %xmm11
	por	%xmm11, %xmm8
	paddq	%xmm7, %xmm6
	paddq	%xmm10, %xmm6
	movdqa	%xmm6, %xmm10
	paddq	.LC4(%rip), %xmm7
	paddq	%xmm3, %xmm7
	movdqa	%xmm7, %xmm3
	psrlq	$27, %xmm10
	psllq	$37, %xmm6
	por	%xmm10, %xmm6
	psrlq	$5, %xmm3
	psllq	$59, %xmm7
	por	%xmm3, %xmm7
	movdqa	%xmm8, %xmm3
	movdqa	%xmm6, %xmm10
	pxor	%xmm5, %xmm3
	pxor	%xmm7, %xmm10
	pxor	%xmm3, %xmm6
	pxor	%xmm10, %xmm5
	pxor	%xmm10, %xmm8
	paddq	%xmm6, %xmm1
	pxor	%xmm3, %xmm7
	movdqa	%xmm1, %xmm3
	paddq	%xmm5, %xmm0
	paddq	%xmm8, %xmm12
	paddq	%xmm0, %xmm3
	movdqa	%xmm12, %xmm11
	paddq	.LC1(%rip), %xmm12
	paddq	%xmm3, %xmm12
	movdqa	%xmm12, %xmm10
	psllq	$11, %xmm12
	paddq	%xmm7, %xmm9
	paddq	%xmm9, %xmm11
	psrlq	$53, %xmm10
	por	%xmm10, %xmm12
	paddq	.LC2(%rip), %xmm9
	movdqa	.LC3(%rip), %xmm10
	paddq	%xmm3, %xmm9
	movdqa	%xmm9, %xmm3
	psllq	$23, %xmm9
	paddq	%xmm11, %xmm10
	paddq	%xmm1, %xmm10
	movdqa	%xmm10, %xmm1
	paddq	.LC4(%rip), %xmm11
	paddq	%xmm0, %xmm11
	movdqa	%xmm11, %xmm0
	psrlq	$41, %xmm3
	psrlq	$27, %xmm1
	por	%xmm3, %xmm9
	psllq	$37, %xmm10
	por	%xmm1, %xmm10
	psrlq	$5, %xmm0
	psllq	$59, %xmm11
	por	%xmm0, %xmm11
	movdqa	%xmm12, %xmm0
	movdqa	680(%rsp), %xmm3
	pxor	%xmm9, %xmm0
	movdqa	%xmm10, %xmm1
	pxor	%xmm11, %xmm1
	pxor	%xmm0, %xmm10
	pxor	%xmm0, %xmm11
	movdqa	744(%rsp), %xmm0
	pxor	%xmm1, %xmm9
	pxor	%xmm1, %xmm12
	paddq	%xmm10, %xmm13
	movdqa	%xmm13, %xmm14
	paddq	%xmm11, %xmm3
	paddq	%xmm9, %xmm0
	paddq	%xmm0, %xmm14
	paddq	%xmm12, %xmm2
	movdqa	%xmm2, %xmm1
	paddq	.LC1(%rip), %xmm2
	paddq	%xmm14, %xmm2
	movdqa	%xmm2, %xmm15
	psllq	$11, %xmm2
	paddq	%xmm3, %xmm1
	paddq	.LC2(%rip), %xmm3
	paddq	%xmm14, %xmm3
	psrlq	$53, %xmm15
	por	%xmm15, %xmm2
	movdqa	.LC3(%rip), %xmm15
	movdqa	%xmm3, %xmm14
	psllq	$23, %xmm3
	paddq	%xmm1, %xmm15
	paddq	%xmm13, %xmm15
	movdqa	%xmm15, %xmm13
	paddq	.LC4(%rip), %xmm1
	psllq	$37, %xmm15
	paddq	%xmm0, %xmm1
	psrlq	$27, %xmm13
	movdqa	%xmm1, %xmm0
	psrlq	$41, %xmm14
	por	%xmm13, %xmm15
	psllq	$59, %xmm1
	por	%xmm14, %xmm3
	psrlq	$5, %xmm0
	por	%xmm0, %xmm1
	movdqa	%xmm2, %xmm0
	movdqa	%xmm15, %xmm13
	pxor	%xmm3, %xmm0
	pxor	%xmm1, %xmm13
	pxor	%xmm0, %xmm15
	pxor	%xmm13, %xmm2
	pxor	%xmm13, %xmm3
	pxor	%xmm0, %xmm1
	paddq	_ZL14preCompConstV2+176(%rip), %xmm15
	movdqa	.LC5(%rip), %xmm0
	paddq	_ZL14preCompConstV2+144(%rip), %xmm2
	movdqa	%xmm15, %xmm13
	movdqa	%xmm2, %xmm14
	paddq	_ZL14preCompConstV2+128(%rip), %xmm3
	paddq	.LC7(%rip), %xmm2
	paddq	%xmm3, %xmm13
	paddq	_ZL14preCompConstV2+160(%rip), %xmm1
	paddq	%xmm13, %xmm2
	paddq	%xmm1, %xmm14
	paddq	%xmm14, %xmm0
	paddq	.LC6(%rip), %xmm14
	paddq	%xmm3, %xmm14
	movdqa	%xmm14, %xmm3
	paddq	%xmm15, %xmm0
	psllq	$19, %xmm14
	movdqa	%xmm0, %xmm15
	paddq	.LC8(%rip), %xmm1
	psrlq	$45, %xmm3
	por	%xmm3, %xmm14
	movdqa	%xmm2, %xmm3
	paddq	%xmm13, %xmm1
	psrlq	$57, %xmm15
	psllq	$7, %xmm0
	psrlq	$33, %xmm3
	por	%xmm15, %xmm0
	psllq	$31, %xmm2
	por	%xmm3, %xmm2
	movdqa	%xmm1, %xmm3
	psllq	$53, %xmm1
	psrlq	$11, %xmm3
	por	%xmm3, %xmm1
	movdqa	%xmm0, %xmm13
	movdqa	%xmm2, %xmm3
	pxor	%xmm14, %xmm13
	pxor	%xmm1, %xmm3
	pxor	%xmm13, %xmm2
	pxor	%xmm13, %xmm1
	movdqa	568(%rsp), %xmm13
	pxor	%xmm3, %xmm0
	pxor	%xmm3, %xmm14
	paddq	%xmm2, %xmm12
	movdqa	%xmm12, %xmm3
	paddq	%xmm1, %xmm9
	movdqa	%xmm1, 744(%rsp)
	paddq	.LC7(%rip), %xmm12
	paddq	%xmm0, %xmm10
	movdqa	%xmm10, %xmm1
	movdqa	%xmm0, 584(%rsp)
	paddq	%xmm14, %xmm11
	paddq	%xmm11, %xmm3
	paddq	%xmm9, %xmm1
	paddq	%xmm1, %xmm12
	paddq	.LC8(%rip), %xmm11
	paddq	%xmm1, %xmm11
	movdqa	%xmm11, %xmm1
	psllq	$53, %xmm11
	movdqa	%xmm14, 680(%rsp)
	psrlq	$11, %xmm1
	por	%xmm1, %xmm11
	movdqa	.LC5(%rip), %xmm0
	paddq	%xmm3, %xmm0
	paddq	.LC6(%rip), %xmm3
	paddq	%xmm9, %xmm3
	movdqa	%xmm3, %xmm9
	paddq	%xmm10, %xmm0
	psllq	$19, %xmm3
	movdqa	%xmm0, %xmm10
	psllq	$7, %xmm0
	movdqa	552(%rsp), %xmm14
	psrlq	$45, %xmm9
	por	%xmm9, %xmm3
	movdqa	%xmm12, %xmm9
	psrlq	$57, %xmm10
	psllq	$31, %xmm12
	por	%xmm10, %xmm0
	psrlq	$33, %xmm9
	por	%xmm9, %xmm12
	movdqa	%xmm0, %xmm9
	movdqa	%xmm12, %xmm1
	pxor	%xmm3, %xmm9
	pxor	%xmm11, %xmm1
	pxor	%xmm9, %xmm12
	pxor	%xmm1, %xmm3
	pxor	%xmm0, %xmm1
	movdqa	.LC5(%rip), %xmm0
	pxor	%xmm9, %xmm11
	paddq	%xmm12, %xmm8
	movdqa	%xmm8, %xmm10
	paddq	%xmm3, %xmm7
	paddq	.LC7(%rip), %xmm8
	paddq	%xmm1, %xmm6
	movdqa	%xmm6, %xmm9
	paddq	%xmm11, %xmm5
	paddq	%xmm7, %xmm10
	paddq	%xmm10, %xmm0
	paddq	%xmm5, %xmm9
	paddq	.LC6(%rip), %xmm10
	paddq	%xmm5, %xmm10
	movdqa	%xmm10, %xmm5
	paddq	%xmm9, %xmm8
	paddq	%xmm6, %xmm0
	psllq	$19, %xmm10
	movdqa	%xmm0, %xmm6
	paddq	.LC8(%rip), %xmm7
	psrlq	$45, %xmm5
	por	%xmm5, %xmm10
	movdqa	%xmm8, %xmm5
	paddq	%xmm9, %xmm7
	psrlq	$57, %xmm6
	psllq	$7, %xmm0
	psrlq	$33, %xmm5
	por	%xmm6, %xmm0
	psllq	$31, %xmm8
	por	%xmm5, %xmm8
	movdqa	%xmm7, %xmm5
	psllq	$53, %xmm7
	movdqa	536(%rsp), %xmm9
	psrlq	$11, %xmm5
	por	%xmm5, %xmm7
	movdqa	%xmm0, %xmm6
	movdqa	%xmm8, %xmm5
	pxor	%xmm10, %xmm6
	pxor	%xmm7, %xmm5
	pxor	%xmm6, %xmm8
	pxor	%xmm5, %xmm10
	pxor	%xmm0, %xmm5
	movdqa	.LC5(%rip), %xmm0
	pxor	%xmm6, %xmm7
	paddq	%xmm8, %xmm4
	movdqa	%xmm4, %xmm15
	paddq	%xmm10, %xmm9
	paddq	.LC7(%rip), %xmm4
	paddq	%xmm5, %xmm14
	movdqa	%xmm14, %xmm6
	paddq	%xmm7, %xmm13
	paddq	%xmm9, %xmm15
	paddq	%xmm15, %xmm0
	paddq	%xmm13, %xmm6
	paddq	.LC6(%rip), %xmm15
	paddq	%xmm13, %xmm15
	movdqa	%xmm15, %xmm13
	paddq	%xmm6, %xmm4
	psllq	$19, %xmm15
	paddq	%xmm14, %xmm0
	paddq	.LC8(%rip), %xmm9
	movdqa	%xmm0, %xmm14
	psrlq	$45, %xmm13
	por	%xmm13, %xmm15
	movdqa	%xmm4, %xmm13
	paddq	%xmm6, %xmm9
	psllq	$31, %xmm4
	movdqa	%xmm9, %xmm6
	psrlq	$33, %xmm13
	por	%xmm13, %xmm4
	psrlq	$57, %xmm14
	psrlq	$11, %xmm6
	psllq	$7, %xmm0
	psllq	$53, %xmm9
	por	%xmm14, %xmm0
	por	%xmm6, %xmm9
	movdqa	%xmm4, %xmm6
	movdqa	%xmm0, %xmm13
	pxor	%xmm9, %xmm6
	pxor	%xmm15, %xmm13
	pxor	%xmm6, %xmm15
	pxor	%xmm0, %xmm6
	movdqa	.LC1(%rip), %xmm0
	pxor	%xmm13, %xmm9
	pxor	%xmm13, %xmm4
	paddq	_ZL14preCompConstV2+224(%rip), %xmm15
	paddq	_ZL14preCompConstV2+240(%rip), %xmm6
	movdqa	%xmm6, %xmm14
	paddq	_ZL14preCompConstV2+192(%rip), %xmm9
	paddq	_ZL14preCompConstV2+208(%rip), %xmm4
	paddq	%xmm9, %xmm14
	movdqa	%xmm4, %xmm13
	paddq	%xmm4, %xmm0
	paddq	%xmm14, %xmm0
	movdqa	%xmm0, %xmm4
	paddq	%xmm15, %xmm13
	psllq	$11, %xmm0
	paddq	.LC2(%rip), %xmm15
	psrlq	$53, %xmm4
	paddq	%xmm14, %xmm15
	por	%xmm4, %xmm0
	movdqa	%xmm15, %xmm4
	psllq	$23, %xmm15
	psrlq	$41, %xmm4
	por	%xmm4, %xmm15
	movdqa	.LC3(%rip), %xmm4
	paddq	%xmm13, %xmm4
	paddq	%xmm6, %xmm4
	movdqa	%xmm4, %xmm6
	paddq	.LC4(%rip), %xmm13
	psllq	$37, %xmm4
	paddq	%xmm9, %xmm13
	psrlq	$27, %xmm6
	por	%xmm6, %xmm4
	movdqa	%xmm13, %xmm6
	psllq	$59, %xmm13
	psrlq	$5, %xmm6
	por	%xmm6, %xmm13
	movdqa	%xmm0, %xmm6
	movdqa	%xmm4, %xmm9
	pxor	%xmm15, %xmm6
	pxor	%xmm13, %xmm9
	pxor	%xmm6, %xmm4
	pxor	%xmm9, %xmm15
	pxor	%xmm0, %xmm9
	paddq	%xmm4, %xmm5
	movdqa	%xmm5, %xmm0
	pxor	%xmm6, %xmm13
	movdqa	%xmm15, 568(%rsp)
	paddq	%xmm15, %xmm7
	paddq	%xmm9, %xmm8
	paddq	%xmm7, %xmm0
	movdqa	%xmm8, %xmm6
	movdqa	%xmm4, 552(%rsp)
	paddq	.LC1(%rip), %xmm8
	paddq	%xmm0, %xmm8
	movdqa	%xmm8, %xmm4
	paddq	%xmm13, %xmm10
	psllq	$11, %xmm8
	paddq	%xmm10, %xmm6
	paddq	.LC2(%rip), %xmm10
	paddq	%xmm0, %xmm10
	psrlq	$53, %xmm4
	movdqa	%xmm10, %xmm0
	psllq	$23, %xmm10
	por	%xmm4, %xmm8
	movdqa	.LC3(%rip), %xmm4
	psrlq	$41, %xmm0
	por	%xmm0, %xmm10
	paddq	%xmm6, %xmm4
	paddq	%xmm5, %xmm4
	movdqa	.LC4(%rip), %xmm5
	movdqa	%xmm4, %xmm0
	psllq	$37, %xmm4
	paddq	%xmm6, %xmm5
	paddq	%xmm7, %xmm5
	movdqa	%xmm13, 536(%rsp)
	psrlq	$27, %xmm0
	por	%xmm0, %xmm4
	movdqa	%xmm5, %xmm0
	psllq	$59, %xmm5
	psrlq	$5, %xmm0
	por	%xmm0, %xmm5
	movdqa	%xmm8, %xmm0
	movdqa	%xmm4, %xmm6
	movdqa	.LC3(%rip), %xmm7
	pxor	%xmm10, %xmm0
	pxor	%xmm5, %xmm6
	movdqa	680(%rsp), %xmm14
	pxor	%xmm0, %xmm4
	pxor	%xmm6, %xmm10
	pxor	%xmm6, %xmm8
	paddq	%xmm4, %xmm1
	pxor	%xmm0, %xmm5
	movdqa	%xmm1, %xmm0
	paddq	%xmm10, %xmm11
	paddq	%xmm8, %xmm12
	paddq	%xmm11, %xmm0
	movdqa	%xmm12, %xmm13
	paddq	.LC1(%rip), %xmm12
	paddq	%xmm0, %xmm12
	movdqa	%xmm12, %xmm6
	paddq	%xmm5, %xmm3
	psllq	$11, %xmm12
	paddq	%xmm3, %xmm13
	psrlq	$53, %xmm6
	paddq	.LC2(%rip), %xmm3
	por	%xmm6, %xmm12
	paddq	%xmm0, %xmm3
	movdqa	%xmm3, %xmm0
	movdqa	%xmm3, %xmm6
	paddq	%xmm13, %xmm7
	paddq	%xmm1, %xmm7
	paddq	.LC4(%rip), %xmm13
	psrlq	$41, %xmm0
	psllq	$23, %xmm6
	por	%xmm0, %xmm6
	movdqa	%xmm7, %xmm0
	paddq	%xmm11, %xmm13
	psllq	$37, %xmm7
	movdqa	%xmm13, %xmm11
	psrlq	$27, %xmm0
	por	%xmm0, %xmm7
	movdqa	%xmm13, %xmm0
	psllq	$59, %xmm11
	movdqa	584(%rsp), %xmm13
	psrlq	$5, %xmm0
	por	%xmm0, %xmm11
	movdqa	%xmm12, %xmm0
	movdqa	%xmm7, %xmm1
	pxor	%xmm6, %xmm0
	pxor	%xmm11, %xmm1
	pxor	%xmm0, %xmm7
	pxor	%xmm1, %xmm6
	pxor	%xmm1, %xmm12
	movdqa	744(%rsp), %xmm1
	paddq	%xmm7, %xmm13
	movdqa	%xmm13, %xmm15
	paddq	%xmm6, %xmm1
	pxor	%xmm0, %xmm11
	paddq	%xmm1, %xmm15
	paddq	%xmm12, %xmm2
	movdqa	%xmm2, %xmm0
	paddq	.LC1(%rip), %xmm2
	paddq	%xmm15, %xmm2
	movdqa	%xmm2, %xmm3
	psllq	$11, %xmm2
	paddq	%xmm11, %xmm14
	paddq	%xmm14, %xmm0
	psrlq	$53, %xmm3
	por	%xmm3, %xmm2
	movdqa	.LC2(%rip), %xmm3
	paddq	%xmm14, %xmm3
	paddq	%xmm15, %xmm3
	movdqa	.LC3(%rip), %xmm15
	movdqa	%xmm3, %xmm14
	psllq	$23, %xmm3
	paddq	%xmm0, %xmm15
	paddq	%xmm13, %xmm15
	movdqa	%xmm15, %xmm13
	paddq	.LC4(%rip), %xmm0
	psllq	$37, %xmm15
	paddq	%xmm1, %xmm0
	psrlq	$27, %xmm13
	movdqa	%xmm0, %xmm1
	psrlq	$41, %xmm14
	por	%xmm13, %xmm15
	movdqa	%xmm0, %xmm13
	por	%xmm14, %xmm3
	psllq	$59, %xmm1
	psrlq	$5, %xmm13
	por	%xmm13, %xmm1
	movdqa	%xmm2, %xmm13
	movdqa	%xmm15, %xmm0
	pxor	%xmm3, %xmm13
	pxor	%xmm1, %xmm0
	pxor	%xmm13, %xmm15
	pxor	%xmm0, %xmm2
	pxor	%xmm0, %xmm3
	movdqa	.LC5(%rip), %xmm0
	pxor	%xmm13, %xmm1
	paddq	_ZL14preCompConstV2+304(%rip), %xmm15
	paddq	_ZL14preCompConstV2+272(%rip), %xmm2
	movdqa	%xmm15, %xmm13
	movdqa	%xmm2, %xmm14
	paddq	_ZL14preCompConstV2+256(%rip), %xmm3
	paddq	.LC7(%rip), %xmm2
	paddq	%xmm3, %xmm13
	paddq	_ZL14preCompConstV2+288(%rip), %xmm1
	paddq	%xmm1, %xmm14
	paddq	%xmm14, %xmm0
	paddq	.LC6(%rip), %xmm14
	paddq	%xmm3, %xmm14
	movdqa	%xmm14, %xmm3
	paddq	%xmm13, %xmm2
	paddq	%xmm15, %xmm0
	psllq	$19, %xmm14
	movdqa	%xmm0, %xmm15
	paddq	.LC8(%rip), %xmm1
	psrlq	$45, %xmm3
	por	%xmm3, %xmm14
	movdqa	%xmm2, %xmm3
	paddq	%xmm13, %xmm1
	psrlq	$57, %xmm15
	psllq	$7, %xmm0
	psrlq	$33, %xmm3
	por	%xmm15, %xmm0
	psllq	$31, %xmm2
	por	%xmm3, %xmm2
	movdqa	%xmm1, %xmm3
	psllq	$53, %xmm1
	movdqa	568(%rsp), %xmm15
	psrlq	$11, %xmm3
	por	%xmm3, %xmm1
	movdqa	%xmm0, %xmm13
	movdqa	%xmm2, %xmm3
	pxor	%xmm14, %xmm13
	pxor	%xmm1, %xmm3
	pxor	%xmm13, %xmm2
	pxor	%xmm13, %xmm1
	movdqa	536(%rsp), %xmm13
	pxor	%xmm3, %xmm0
	pxor	%xmm3, %xmm14
	paddq	%xmm2, %xmm12
	movdqa	%xmm12, %xmm3
	paddq	%xmm1, %xmm6
	movdqa	%xmm1, 744(%rsp)
	paddq	.LC7(%rip), %xmm12
	paddq	%xmm0, %xmm7
	movdqa	%xmm7, %xmm1
	movdqa	%xmm0, 584(%rsp)
	paddq	%xmm14, %xmm11
	paddq	%xmm11, %xmm3
	paddq	%xmm6, %xmm1
	paddq	%xmm1, %xmm12
	paddq	.LC8(%rip), %xmm11
	paddq	%xmm1, %xmm11
	movdqa	%xmm11, %xmm1
	psllq	$53, %xmm11
	movdqa	%xmm14, 680(%rsp)
	psrlq	$11, %xmm1
	por	%xmm1, %xmm11
	movdqa	.LC5(%rip), %xmm0
	paddq	%xmm3, %xmm0
	paddq	.LC6(%rip), %xmm3
	paddq	%xmm7, %xmm0
	paddq	%xmm6, %xmm3
	movdqa	%xmm0, %xmm7
	psllq	$7, %xmm0
	movdqa	%xmm3, %xmm6
	psllq	$19, %xmm3
	movdqa	.LC6(%rip), %xmm14
	psrlq	$57, %xmm7
	por	%xmm7, %xmm0
	psrlq	$45, %xmm6
	por	%xmm6, %xmm3
	movdqa	%xmm12, %xmm6
	psllq	$31, %xmm12
	psrlq	$33, %xmm6
	por	%xmm6, %xmm12
	movdqa	%xmm0, %xmm1
	movdqa	%xmm12, %xmm7
	pxor	%xmm3, %xmm1
	pxor	%xmm11, %xmm7
	pxor	%xmm1, %xmm12
	pxor	%xmm7, %xmm3
	pxor	%xmm0, %xmm7
	movdqa	.LC5(%rip), %xmm0
	paddq	%xmm12, %xmm8
	movdqa	%xmm8, %xmm6
	paddq	.LC7(%rip), %xmm8
	pxor	%xmm1, %xmm11
	paddq	%xmm3, %xmm5
	paddq	%xmm7, %xmm4
	paddq	%xmm5, %xmm6
	movdqa	%xmm4, %xmm1
	paddq	%xmm6, %xmm0
	paddq	%xmm4, %xmm0
	movdqa	%xmm0, %xmm4
	paddq	%xmm11, %xmm10
	paddq	%xmm6, %xmm14
	psllq	$7, %xmm0
	paddq	%xmm10, %xmm14
	psrlq	$57, %xmm4
	por	%xmm4, %xmm0
	movdqa	%xmm14, %xmm4
	paddq	%xmm10, %xmm1
	psllq	$19, %xmm14
	paddq	%xmm1, %xmm8
	paddq	.LC8(%rip), %xmm5
	paddq	%xmm1, %xmm5
	psrlq	$45, %xmm4
	por	%xmm4, %xmm14
	movdqa	%xmm8, %xmm4
	movdqa	%xmm5, %xmm1
	psllq	$31, %xmm8
	psllq	$53, %xmm5
	psrlq	$33, %xmm4
	por	%xmm4, %xmm8
	psrlq	$11, %xmm1
	por	%xmm1, %xmm5
	movdqa	%xmm0, %xmm1
	movdqa	552(%rsp), %xmm4
	pxor	%xmm14, %xmm1
	movdqa	%xmm8, %xmm10
	pxor	%xmm5, %xmm10
	pxor	%xmm1, %xmm8
	pxor	%xmm1, %xmm5
	movdqa	.LC5(%rip), %xmm1
	pxor	%xmm10, %xmm14
	pxor	%xmm0, %xmm10
	paddq	%xmm8, %xmm9
	movdqa	%xmm9, %xmm0
	paddq	%xmm5, %xmm15
	paddq	.LC7(%rip), %xmm9
	paddq	%xmm14, %xmm13
	paddq	%xmm13, %xmm0
	paddq	%xmm0, %xmm1
	paddq	%xmm10, %xmm4
	movdqa	%xmm4, %xmm6
	paddq	%xmm4, %xmm1
	movdqa	%xmm1, %xmm4
	psllq	$7, %xmm1
	paddq	.LC8(%rip), %xmm13
	paddq	%xmm15, %xmm6
	paddq	%xmm6, %xmm9
	paddq	%xmm6, %xmm13
	psrlq	$57, %xmm4
	por	%xmm4, %xmm1
	movdqa	.LC6(%rip), %xmm4
	paddq	%xmm0, %xmm4
	paddq	%xmm15, %xmm4
	movdqa	%xmm9, %xmm15
	movdqa	%xmm4, %xmm0
	psllq	$31, %xmm9
	psllq	$19, %xmm4
	psrlq	$33, %xmm15
	por	%xmm15, %xmm9
	psrlq	$45, %xmm0
	por	%xmm0, %xmm4
	movdqa	%xmm13, %xmm0
	psllq	$53, %xmm13
	psrlq	$11, %xmm0
	por	%xmm0, %xmm13
	movdqa	%xmm9, %xmm6
	movdqa	%xmm1, %xmm0
	pxor	%xmm13, %xmm6
	pxor	%xmm4, %xmm0
	pxor	%xmm6, %xmm1
	pxor	%xmm0, %xmm13
	pxor	%xmm9, %xmm0
	paddq	_ZL14preCompConstV2+368(%rip), %xmm1
	movdqa	%xmm1, %xmm15
	pxor	%xmm6, %xmm4
	paddq	_ZL14preCompConstV2+320(%rip), %xmm13
	paddq	_ZL14preCompConstV2+336(%rip), %xmm0
	paddq	%xmm13, %xmm15
	movdqa	%xmm0, %xmm6
	paddq	.LC1(%rip), %xmm0
	paddq	%xmm15, %xmm0
	movdqa	%xmm0, %xmm9
	paddq	_ZL14preCompConstV2+352(%rip), %xmm4
	psllq	$11, %xmm0
	paddq	%xmm4, %xmm6
	psrlq	$53, %xmm9
	paddq	.LC2(%rip), %xmm4
	por	%xmm9, %xmm0
	paddq	%xmm15, %xmm4
	movdqa	%xmm4, %xmm9
	psllq	$23, %xmm4
	psrlq	$41, %xmm9
	por	%xmm9, %xmm4
	movdqa	.LC3(%rip), %xmm9
	paddq	%xmm6, %xmm9
	paddq	%xmm1, %xmm9
	movdqa	%xmm9, %xmm1
	paddq	.LC4(%rip), %xmm6
	psllq	$37, %xmm9
	paddq	%xmm13, %xmm6
	psrlq	$27, %xmm1
	por	%xmm1, %xmm9
	movdqa	%xmm6, %xmm1
	psllq	$59, %xmm6
	psrlq	$5, %xmm1
	por	%xmm1, %xmm6
	movdqa	%xmm9, %xmm13
	movdqa	%xmm0, %xmm1
	pxor	%xmm6, %xmm13
	pxor	%xmm4, %xmm1
	pxor	%xmm13, %xmm4
	pxor	%xmm1, %xmm6
	pxor	%xmm1, %xmm9
	pxor	%xmm0, %xmm13
	paddq	%xmm4, %xmm5
	movdqa	%xmm4, 568(%rsp)
	paddq	%xmm6, %xmm14
	paddq	%xmm9, %xmm10
	movdqa	%xmm10, %xmm0
	movdqa	%xmm6, 536(%rsp)
	paddq	%xmm13, %xmm8
	movdqa	%xmm8, %xmm6
	paddq	%xmm5, %xmm0
	paddq	.LC1(%rip), %xmm8
	paddq	%xmm0, %xmm8
	movdqa	%xmm8, %xmm1
	psllq	$11, %xmm8
	paddq	%xmm14, %xmm6
	paddq	.LC2(%rip), %xmm14
	paddq	%xmm0, %xmm14
	movdqa	%xmm14, %xmm0
	psrlq	$53, %xmm1
	movdqa	%xmm14, %xmm4
	por	%xmm1, %xmm8
	psrlq	$41, %xmm0
	movdqa	%xmm9, 552(%rsp)
	psllq	$23, %xmm4
	por	%xmm0, %xmm4
	movdqa	.LC3(%rip), %xmm0
	paddq	%xmm6, %xmm0
	paddq	%xmm10, %xmm0
	movdqa	%xmm0, %xmm1
	paddq	.LC4(%rip), %xmm6
	psllq	$37, %xmm0
	paddq	%xmm5, %xmm6
	psrlq	$27, %xmm1
	por	%xmm1, %xmm0
	movdqa	%xmm6, %xmm1
	movdqa	%xmm8, %xmm5
	psllq	$59, %xmm6
	movdqa	.LC3(%rip), %xmm9
	psrlq	$5, %xmm1
	por	%xmm1, %xmm6
	movdqa	%xmm0, %xmm1
	pxor	%xmm4, %xmm5
	movdqa	680(%rsp), %xmm14
	pxor	%xmm6, %xmm1
	pxor	%xmm5, %xmm6
	pxor	%xmm0, %xmm5
	movdqa	%xmm7, %xmm0
	pxor	%xmm1, %xmm8
	pxor	%xmm1, %xmm4
	paddq	%xmm6, %xmm3
	paddq	%xmm5, %xmm0
	movdqa	%xmm0, %xmm1
	paddq	%xmm8, %xmm12
	movdqa	%xmm12, %xmm10
	paddq	.LC1(%rip), %xmm12
	paddq	%xmm4, %xmm11
	paddq	%xmm11, %xmm1
	paddq	%xmm1, %xmm12
	movdqa	%xmm12, %xmm7
	paddq	%xmm3, %xmm10
	paddq	%xmm10, %xmm9
	paddq	%xmm0, %xmm9
	movdqa	%xmm9, %xmm0
	paddq	.LC2(%rip), %xmm3
	psrlq	$53, %xmm7
	paddq	%xmm1, %xmm3
	psllq	$11, %xmm12
	movdqa	%xmm3, %xmm1
	psrlq	$27, %xmm0
	paddq	.LC4(%rip), %xmm10
	por	%xmm7, %xmm12
	movdqa	%xmm3, %xmm7
	paddq	%xmm11, %xmm10
	psllq	$37, %xmm9
	por	%xmm0, %xmm9
	psrlq	$41, %xmm1
	movdqa	%xmm10, %xmm0
	psllq	$23, %xmm7
	por	%xmm1, %xmm7
	psllq	$59, %xmm10
	movdqa	744(%rsp), %xmm11
	psrlq	$5, %xmm0
	por	%xmm0, %xmm10
	movdqa	%xmm12, %xmm0
	movdqa	%xmm9, %xmm1
	pxor	%xmm7, %xmm0
	pxor	%xmm10, %xmm1
	pxor	%xmm0, %xmm9
	pxor	%xmm0, %xmm10
	movdqa	584(%rsp), %xmm0
	pxor	%xmm1, %xmm7
	pxor	%xmm1, %xmm12
	paddq	%xmm9, %xmm0
	movdqa	%xmm0, %xmm15
	paddq	%xmm10, %xmm14
	paddq	%xmm7, %xmm11
	paddq	%xmm11, %xmm15
	paddq	%xmm12, %xmm2
	movdqa	%xmm2, %xmm1
	paddq	.LC1(%rip), %xmm2
	paddq	%xmm15, %xmm2
	movdqa	%xmm2, %xmm3
	psllq	$11, %xmm2
	paddq	%xmm14, %xmm1
	psrlq	$53, %xmm3
	por	%xmm3, %xmm2
	movdqa	.LC2(%rip), %xmm3
	paddq	%xmm14, %xmm3
	paddq	%xmm15, %xmm3
	movdqa	.LC3(%rip), %xmm15
	movdqa	%xmm3, %xmm14
	psllq	$23, %xmm3
	paddq	%xmm1, %xmm15
	paddq	%xmm0, %xmm15
	movdqa	%xmm15, %xmm0
	paddq	.LC4(%rip), %xmm1
	psllq	$37, %xmm15
	paddq	%xmm11, %xmm1
	psrlq	$27, %xmm0
	por	%xmm0, %xmm15
	psrlq	$41, %xmm14
	movdqa	%xmm1, %xmm0
	por	%xmm14, %xmm3
	psllq	$59, %xmm1
	psrlq	$5, %xmm0
	por	%xmm0, %xmm1
	movdqa	%xmm15, %xmm11
	movdqa	%xmm2, %xmm0
	pxor	%xmm1, %xmm11
	pxor	%xmm3, %xmm0
	pxor	%xmm11, %xmm2
	pxor	%xmm0, %xmm15
	pxor	%xmm11, %xmm3
	pxor	%xmm0, %xmm1
	paddq	_ZL14preCompConstV2+400(%rip), %xmm2
	movdqa	.LC5(%rip), %xmm0
	paddq	_ZL14preCompConstV2+432(%rip), %xmm15
	movdqa	%xmm2, %xmm14
	paddq	.LC7(%rip), %xmm2
	movdqa	%xmm15, %xmm11
	paddq	_ZL14preCompConstV2+384(%rip), %xmm3
	paddq	_ZL14preCompConstV2+416(%rip), %xmm1
	paddq	%xmm1, %xmm14
	paddq	%xmm14, %xmm0
	paddq	%xmm3, %xmm11
	paddq	.LC6(%rip), %xmm14
	paddq	%xmm3, %xmm14
	movdqa	%xmm14, %xmm3
	paddq	%xmm11, %xmm2
	paddq	%xmm15, %xmm0
	psllq	$19, %xmm14
	movdqa	%xmm0, %xmm15
	paddq	.LC8(%rip), %xmm1
	psrlq	$45, %xmm3
	por	%xmm3, %xmm14
	movdqa	%xmm2, %xmm3
	paddq	%xmm11, %xmm1
	psrlq	$57, %xmm15
	psllq	$7, %xmm0
	psrlq	$33, %xmm3
	por	%xmm15, %xmm0
	psllq	$31, %xmm2
	por	%xmm3, %xmm2
	movdqa	%xmm1, %xmm3
	psllq	$53, %xmm1
	movdqa	.LC6(%rip), %xmm15
	psrlq	$11, %xmm3
	por	%xmm3, %xmm1
	movdqa	%xmm0, %xmm11
	movdqa	%xmm2, %xmm3
	pxor	%xmm14, %xmm11
	pxor	%xmm1, %xmm3
	pxor	%xmm11, %xmm2
	pxor	%xmm3, %xmm0
	pxor	%xmm11, %xmm1
	pxor	%xmm3, %xmm14
	paddq	%xmm2, %xmm12
	movdqa	%xmm12, %xmm3
	paddq	%xmm0, %xmm9
	movdqa	%xmm0, 584(%rsp)
	paddq	.LC7(%rip), %xmm12
	paddq	%xmm1, %xmm7
	paddq	%xmm14, %xmm10
	movdqa	%xmm1, 744(%rsp)
	paddq	%xmm10, %xmm3
	movdqa	%xmm9, %xmm1
	paddq	.LC8(%rip), %xmm10
	movdqa	%xmm14, 680(%rsp)
	paddq	%xmm7, %xmm1
	paddq	%xmm1, %xmm12
	paddq	%xmm1, %xmm10
	movdqa	%xmm10, %xmm1
	psllq	$53, %xmm10
	movdqa	.LC5(%rip), %xmm0
	psrlq	$11, %xmm1
	por	%xmm1, %xmm10
	paddq	%xmm3, %xmm0
	paddq	%xmm9, %xmm0
	movdqa	%xmm0, %xmm9
	paddq	.LC6(%rip), %xmm3
	psllq	$7, %xmm0
	paddq	%xmm7, %xmm3
	psrlq	$57, %xmm9
	movdqa	%xmm3, %xmm7
	por	%xmm9, %xmm0
	movdqa	%xmm3, %xmm9
	movdqa	%xmm12, %xmm3
	psllq	$19, %xmm7
	psllq	$31, %xmm12
	psrlq	$45, %xmm9
	por	%xmm9, %xmm7
	movdqa	552(%rsp), %xmm9
	psrlq	$33, %xmm3
	por	%xmm3, %xmm12
	movdqa	%xmm0, %xmm1
	movdqa	%xmm12, %xmm11
	pxor	%xmm7, %xmm1
	pxor	%xmm10, %xmm11
	pxor	%xmm1, %xmm12
	pxor	%xmm1, %xmm10
	pxor	%xmm11, %xmm7
	pxor	%xmm0, %xmm11
	paddq	%xmm12, %xmm8
	movdqa	.LC5(%rip), %xmm0
	movdqa	%xmm8, %xmm3
	paddq	%xmm10, %xmm4
	paddq	.LC7(%rip), %xmm8
	paddq	%xmm7, %xmm6
	paddq	%xmm11, %xmm5
	paddq	%xmm6, %xmm3
	movdqa	%xmm5, %xmm1
	paddq	%xmm3, %xmm0
	paddq	%xmm3, %xmm15
	paddq	%xmm5, %xmm0
	paddq	%xmm4, %xmm15
	movdqa	%xmm0, %xmm5
	paddq	%xmm4, %xmm1
	movdqa	%xmm15, %xmm3
	paddq	%xmm1, %xmm8
	psllq	$7, %xmm0
	psrlq	$57, %xmm5
	psllq	$19, %xmm15
	por	%xmm5, %xmm0
	psrlq	$45, %xmm3
	por	%xmm3, %xmm15
	movdqa	%xmm8, %xmm3
	paddq	.LC8(%rip), %xmm6
	paddq	%xmm1, %xmm6
	movdqa	%xmm6, %xmm1
	movdqa	%xmm6, %xmm5
	psrlq	$33, %xmm3
	psllq	$31, %xmm8
	por	%xmm3, %xmm8
	psrlq	$11, %xmm1
	movdqa	536(%rsp), %xmm6
	psllq	$53, %xmm5
	por	%xmm1, %xmm5
	movdqa	%xmm0, %xmm1
	movdqa	.LC5(%rip), %xmm3
	movdqa	%xmm8, %xmm14
	pxor	%xmm15, %xmm1
	movdqa	568(%rsp), %xmm4
	pxor	%xmm5, %xmm14
	pxor	%xmm1, %xmm8
	pxor	%xmm14, %xmm15
	pxor	%xmm0, %xmm14
	paddq	%xmm8, %xmm13
	movdqa	%xmm13, %xmm0
	pxor	%xmm1, %xmm5
	paddq	%xmm15, %xmm6
	paddq	.LC7(%rip), %xmm13
	paddq	%xmm14, %xmm9
	paddq	%xmm6, %xmm0
	movdqa	%xmm9, %xmm1
	paddq	%xmm0, %xmm3
	paddq	%xmm9, %xmm3
	movdqa	%xmm3, %xmm9
	paddq	%xmm5, %xmm4
	paddq	.LC6(%rip), %xmm0
	paddq	%xmm4, %xmm1
	paddq	%xmm4, %xmm0
	psrlq	$57, %xmm9
	movdqa	%xmm0, %xmm4
	psllq	$7, %xmm3
	por	%xmm9, %xmm3
	movdqa	%xmm0, %xmm9
	paddq	%xmm1, %xmm13
	psllq	$19, %xmm4
	paddq	.LC8(%rip), %xmm6
	psrlq	$45, %xmm9
	por	%xmm9, %xmm4
	paddq	%xmm1, %xmm6
	movdqa	%xmm13, %xmm9
	movdqa	%xmm6, %xmm0
	psllq	$31, %xmm13
	psllq	$53, %xmm6
	psrlq	$33, %xmm9
	por	%xmm9, %xmm13
	psrlq	$11, %xmm0
	por	%xmm0, %xmm6
	movdqa	%xmm3, %xmm0
	movdqa	%xmm4, %xmm1
	movdqa	%xmm13, %xmm9
	pxor	%xmm4, %xmm0
	pxor	%xmm6, %xmm9
	pxor	%xmm0, %xmm6
	pxor	%xmm13, %xmm0
	pxor	%xmm9, %xmm3
	pxor	%xmm9, %xmm1
	paddq	_ZL14preCompConstV2+448(%rip), %xmm6
	paddq	_ZL14preCompConstV2+464(%rip), %xmm0
	movdqa	%xmm0, %xmm4
	paddq	.LC1(%rip), %xmm0
	paddq	_ZL14preCompConstV2+496(%rip), %xmm3
	movdqa	%xmm3, %xmm9
	paddq	_ZL14preCompConstV2+480(%rip), %xmm1
	paddq	%xmm1, %xmm4
	paddq	.LC2(%rip), %xmm1
	paddq	%xmm6, %xmm9
	paddq	%xmm9, %xmm0
	paddq	%xmm9, %xmm1
	movdqa	%xmm1, %xmm9
	psllq	$23, %xmm1
	movdqa	%xmm0, %xmm13
	psllq	$11, %xmm0
	psrlq	$41, %xmm9
	por	%xmm9, %xmm1
	movdqa	.LC3(%rip), %xmm9
	psrlq	$53, %xmm13
	por	%xmm13, %xmm0
	paddq	%xmm4, %xmm9
	paddq	%xmm3, %xmm9
	movdqa	%xmm9, %xmm3
	paddq	.LC4(%rip), %xmm4
	psllq	$37, %xmm9
	paddq	%xmm6, %xmm4
	psrlq	$27, %xmm3
	por	%xmm3, %xmm9
	movdqa	%xmm4, %xmm3
	psllq	$59, %xmm4
	psrlq	$5, %xmm3
	por	%xmm3, %xmm4
	movdqa	%xmm9, %xmm6
	movdqa	%xmm0, %xmm3
	pxor	%xmm4, %xmm6
	pxor	%xmm1, %xmm3
	pxor	%xmm6, %xmm1
	pxor	%xmm3, %xmm9
	pxor	%xmm0, %xmm6
	movdqa	%xmm1, 568(%rsp)
	paddq	%xmm1, %xmm5
	paddq	%xmm9, %xmm14
	movdqa	%xmm14, %xmm0
	paddq	%xmm6, %xmm8
	pxor	%xmm3, %xmm4
	paddq	%xmm5, %xmm0
	movdqa	%xmm9, 504(%rsp)
	movdqa	%xmm8, %xmm9
	paddq	%xmm4, %xmm15
	movdqa	%xmm4, 552(%rsp)
	paddq	%xmm15, %xmm9
	movdqa	%xmm6, 536(%rsp)
	movdqa	.LC1(%rip), %xmm13
	paddq	%xmm8, %xmm13
	paddq	%xmm0, %xmm13
	movdqa	%xmm13, %xmm1
	psllq	$11, %xmm13
	movdqa	.LC3(%rip), %xmm4
	psrlq	$53, %xmm1
	por	%xmm1, %xmm13
	movdqa	.LC2(%rip), %xmm1
	paddq	%xmm9, %xmm4
	paddq	%xmm14, %xmm4
	paddq	.LC4(%rip), %xmm9
	paddq	%xmm5, %xmm9
	paddq	%xmm15, %xmm1
	paddq	%xmm0, %xmm1
	movdqa	%xmm1, %xmm0
	psllq	$23, %xmm1
	psrlq	$41, %xmm0
	por	%xmm0, %xmm1
	movdqa	%xmm4, %xmm0
	psllq	$37, %xmm4
	psrlq	$27, %xmm0
	por	%xmm0, %xmm4
	movdqa	%xmm9, %xmm0
	psllq	$59, %xmm9
	psrlq	$5, %xmm0
	por	%xmm0, %xmm9
	movdqa	%xmm4, %xmm3
	movdqa	%xmm13, %xmm0
	pxor	%xmm9, %xmm3
	pxor	%xmm1, %xmm0
	pxor	%xmm3, %xmm13
	pxor	%xmm0, %xmm4
	pxor	%xmm3, %xmm1
	pxor	%xmm0, %xmm9
	paddq	%xmm12, %xmm13
	movdqa	%xmm13, %xmm0
	paddq	%xmm11, %xmm4
	movdqa	%xmm4, %xmm6
	paddq	.LC1(%rip), %xmm13
	paddq	%xmm10, %xmm1
	movdqa	.LC3(%rip), %xmm12
	paddq	%xmm1, %xmm6
	paddq	%xmm7, %xmm9
	paddq	%xmm9, %xmm0
	paddq	.LC2(%rip), %xmm9
	paddq	%xmm6, %xmm9
	movdqa	%xmm9, %xmm3
	paddq	%xmm0, %xmm12
	psllq	$23, %xmm9
	paddq	%xmm4, %xmm12
	psrlq	$41, %xmm3
	por	%xmm3, %xmm9
	paddq	.LC4(%rip), %xmm0
	movdqa	%xmm12, %xmm3
	paddq	%xmm1, %xmm0
	psllq	$37, %xmm12
	movdqa	%xmm0, %xmm1
	paddq	%xmm6, %xmm13
	movdqa	%xmm13, %xmm7
	psrlq	$27, %xmm3
	por	%xmm3, %xmm12
	psllq	$11, %xmm13
	movdqa	%xmm0, %xmm3
	psllq	$59, %xmm1
	psrlq	$53, %xmm7
	por	%xmm7, %xmm13
	movq	(%rdi), %xmm10
	psrlq	$5, %xmm3
	por	%xmm3, %xmm1
	movhps	64(%rdi), %xmm10
	movdqa	%xmm12, %xmm11
	movdqa	%xmm13, %xmm3
	movdqa	584(%rsp), %xmm0
	pxor	%xmm1, %xmm11
	pxor	%xmm9, %xmm3
	pxor	%xmm11, %xmm9
	pxor	%xmm13, %xmm11
	movdqa	680(%rsp), %xmm13
	pxor	%xmm3, %xmm1
	pxor	%xmm3, %xmm12
	movdqa	744(%rsp), %xmm3
	paddq	%xmm11, %xmm2
	pxor	%xmm10, %xmm2
	paddq	%xmm1, %xmm13
	paddq	%xmm9, %xmm3
	paddq	%xmm12, %xmm0
	movdqu	%xmm2, 760(%rsp)
	movq	760(%rsp), %r10
	movq	%r10, 64(%rax)
	movdqu	%xmm2, 760(%rsp)
	movq	768(%rsp), %r10
	movq	%r10, 128(%rax)
	movq	8(%rdi), %xmm6
	movhps	72(%rdi), %xmm6
	pxor	%xmm6, %xmm13
	movdqu	%xmm13, 760(%rsp)
	movq	760(%rsp), %r10
	movq	%r10, 72(%rax)
	movdqu	%xmm13, 760(%rsp)
	movq	768(%rsp), %r10
	movq	%r10, 136(%rax)
	movq	16(%rdi), %xmm10
	movhps	80(%rdi), %xmm10
	pxor	%xmm10, %xmm0
	movdqu	%xmm0, 760(%rsp)
	movq	760(%rsp), %r10
	movq	%r10, 80(%rax)
	movdqu	%xmm0, 760(%rsp)
	movq	768(%rsp), %r10
	movq	%r10, 144(%rax)
	movq	24(%rdi), %xmm6
	movhps	88(%rdi), %xmm6
	pxor	%xmm6, %xmm3
	movdqu	%xmm3, 760(%rsp)
	movq	760(%rsp), %r10
	movq	%r10, 88(%rax)
	movdqu	%xmm3, 760(%rsp)
	movq	768(%rsp), %r10
	movq	%r10, 152(%rax)
	movq	32(%rdi), %xmm4
	movhps	96(%rdi), %xmm4
	movdqa	%xmm4, %xmm10
	pxor	%xmm8, %xmm10
	movdqu	%xmm10, 760(%rsp)
	movq	760(%rsp), %r10
	movq	%r10, 96(%rax)
	movdqu	%xmm10, 760(%rsp)
	movq	768(%rsp), %r10
	movq	%r10, 160(%rax)
	movq	40(%rdi), %xmm6
	movhps	104(%rdi), %xmm6
	movdqa	%xmm6, %xmm7
	pxor	%xmm15, %xmm7
	movdqu	%xmm7, 760(%rsp)
	movq	760(%rsp), %r10
	movq	%r10, 104(%rax)
	movdqu	%xmm7, 760(%rsp)
	movq	768(%rsp), %r10
	movq	%r10, 168(%rax)
	movq	48(%rdi), %xmm8
	movhps	112(%rdi), %xmm8
	movdqa	%xmm8, %xmm6
	pxor	%xmm14, %xmm6
	movdqu	%xmm6, 760(%rsp)
	movq	760(%rsp), %r10
	movq	%r10, 112(%rax)
	movdqu	%xmm6, 760(%rsp)
	movq	768(%rsp), %r10
	movq	%r10, 176(%rax)
	movq	56(%rdi), %xmm8
	movhps	120(%rdi), %xmm8
	subq	$-128, %rdi
	movdqa	%xmm8, %xmm4
	movdqa	%xmm0, %xmm8
	pxor	%xmm5, %xmm4
	movdqa	%xmm2, %xmm5
	paddq	.LC1(%rip), %xmm2
	paddq	%xmm3, %xmm8
	paddq	%xmm8, %xmm2
	movdqa	%xmm2, %xmm14
	psllq	$11, %xmm2
	paddq	%xmm13, %xmm5
	paddq	.LC2(%rip), %xmm13
	psrlq	$53, %xmm14
	por	%xmm14, %xmm2
	paddq	%xmm8, %xmm13
	movdqa	.LC3(%rip), %xmm14
	movdqa	%xmm13, %xmm8
	psllq	$23, %xmm13
	paddq	%xmm5, %xmm14
	paddq	%xmm0, %xmm14
	movdqa	%xmm14, %xmm0
	psllq	$37, %xmm14
	psrlq	$41, %xmm8
	por	%xmm8, %xmm13
	psrlq	$27, %xmm0
	por	%xmm0, %xmm14
	movdqa	.LC4(%rip), %xmm0
	paddq	%xmm5, %xmm0
	paddq	%xmm3, %xmm0
	movdqa	%xmm0, %xmm3
	psllq	$59, %xmm0
	movdqa	%xmm14, %xmm5
	psrlq	$5, %xmm3
	por	%xmm3, %xmm0
	movdqa	%xmm2, %xmm3
	movdqu	%xmm4, 760(%rsp)
	pxor	%xmm13, %xmm3
	movq	760(%rsp), %r10
	pxor	%xmm0, %xmm5
	pxor	%xmm3, %xmm14
	movq	%r10, 120(%rax)
	pxor	%xmm5, %xmm2
	pxor	%xmm3, %xmm0
	pxor	%xmm5, %xmm13
	movdqa	.LC5(%rip), %xmm5
	paddq	_ZL14preCompConstV2+48(%rip), %xmm14
	paddq	_ZL14preCompConstV2+16(%rip), %xmm2
	movdqa	%xmm2, %xmm3
	paddq	.LC7(%rip), %xmm2
	paddq	_ZL14preCompConstV2+32(%rip), %xmm0
	movdqa	%xmm14, %xmm8
	paddq	%xmm0, %xmm3
	paddq	%xmm3, %xmm5
	paddq	%xmm14, %xmm5
	movdqa	%xmm5, %xmm14
	paddq	_ZL14preCompConstV2(%rip), %xmm13
	paddq	.LC6(%rip), %xmm3
	paddq	%xmm13, %xmm8
	paddq	%xmm13, %xmm3
	psllq	$7, %xmm5
	psrlq	$57, %xmm14
	movdqa	%xmm3, %xmm13
	paddq	%xmm8, %xmm2
	por	%xmm14, %xmm5
	paddq	.LC8(%rip), %xmm0
	paddq	%xmm8, %xmm0
	movdqa	%xmm0, %xmm8
	psrlq	$45, %xmm13
	psllq	$19, %xmm3
	por	%xmm13, %xmm3
	movdqa	%xmm2, %xmm13
	psllq	$53, %xmm0
	psrlq	$11, %xmm8
	por	%xmm8, %xmm0
	psllq	$31, %xmm2
	movdqa	%xmm5, %xmm8
	psrlq	$33, %xmm13
	por	%xmm13, %xmm2
	movdqu	%xmm4, 760(%rsp)
	pxor	%xmm3, %xmm8
	movq	768(%rsp), %r10
	movdqa	%xmm2, %xmm13
	movdqa	%xmm8, %xmm15
	movq	%r10, 184(%rax)
	pxor	%xmm0, %xmm13
	subq	$-128, %rax
	pxor	%xmm2, %xmm15
	cmpq	%rsi, %r9
	pxor	%xmm8, %xmm0
	pxor	%xmm13, %xmm3
	pxor	%xmm13, %xmm5
	paddq	%xmm15, %xmm11
	movdqa	.LC5(%rip), %xmm13
	movdqa	%xmm11, %xmm14
	paddq	%xmm0, %xmm9
	paddq	.LC7(%rip), %xmm11
	paddq	%xmm3, %xmm1
	movdqa	%xmm0, 744(%rsp)
	paddq	%xmm5, %xmm12
	paddq	%xmm1, %xmm14
	paddq	%xmm14, %xmm13
	paddq	%xmm12, %xmm13
	movdqa	%xmm13, %xmm2
	paddq	.LC6(%rip), %xmm14
	movdqa	%xmm12, %xmm0
	paddq	%xmm9, %xmm14
	psllq	$7, %xmm13
	psrlq	$57, %xmm2
	por	%xmm2, %xmm13
	movdqa	%xmm14, %xmm2
	paddq	%xmm9, %xmm0
	psllq	$19, %xmm14
	paddq	%xmm0, %xmm11
	psrlq	$45, %xmm2
	por	%xmm2, %xmm14
	paddq	.LC8(%rip), %xmm1
	movdqa	%xmm11, %xmm2
	paddq	%xmm0, %xmm1
	psllq	$31, %xmm11
	movdqa	%xmm1, %xmm0
	movdqa	504(%rsp), %xmm9
	psrlq	$33, %xmm2
	por	%xmm2, %xmm11
	movdqa	%xmm1, %xmm2
	psrlq	$11, %xmm0
	movdqa	%xmm10, %xmm1
	movdqa	%xmm3, 680(%rsp)
	paddq	.LC1(%rip), %xmm10
	psllq	$53, %xmm2
	por	%xmm0, %xmm2
	paddq	%xmm7, %xmm1
	movdqa	%xmm11, %xmm0
	movdqa	%xmm13, %xmm3
	paddq	.LC2(%rip), %xmm7
	movdqa	%xmm5, 584(%rsp)
	pxor	%xmm2, %xmm0
	pxor	%xmm14, %xmm3
	pxor	%xmm0, %xmm13
	pxor	%xmm0, %xmm14
	movdqa	%xmm6, %xmm0
	pxor	%xmm3, %xmm2
	paddq	%xmm4, %xmm0
	paddq	%xmm0, %xmm10
	paddq	%xmm0, %xmm7
	movdqa	%xmm7, %xmm0
	psllq	$23, %xmm7
	pxor	%xmm3, %xmm11
	movdqa	%xmm10, %xmm3
	psllq	$11, %xmm10
	psrlq	$41, %xmm0
	por	%xmm0, %xmm7
	movdqa	.LC3(%rip), %xmm0
	psrlq	$53, %xmm3
	por	%xmm3, %xmm10
	paddq	%xmm1, %xmm0
	paddq	%xmm6, %xmm0
	movdqa	%xmm0, %xmm3
	paddq	.LC4(%rip), %xmm1
	psllq	$37, %xmm0
	paddq	%xmm4, %xmm1
	psrlq	$27, %xmm3
	por	%xmm3, %xmm0
	movdqa	%xmm1, %xmm3
	psllq	$59, %xmm1
	movdqa	%xmm10, %xmm4
	movdqa	.LC5(%rip), %xmm12
	psrlq	$5, %xmm3
	por	%xmm3, %xmm1
	movdqa	%xmm0, %xmm8
	pxor	%xmm7, %xmm4
	pxor	%xmm1, %xmm8
	pxor	%xmm4, %xmm1
	pxor	%xmm0, %xmm4
	movdqa	.LC5(%rip), %xmm0
	pxor	%xmm8, %xmm7
	pxor	%xmm10, %xmm8
	paddq	%xmm14, %xmm1
	paddq	%xmm13, %xmm4
	movdqa	%xmm4, %xmm3
	paddq	%xmm2, %xmm7
	paddq	%xmm11, %xmm8
	movdqa	%xmm8, %xmm5
	paddq	%xmm7, %xmm3
	paddq	.LC7(%rip), %xmm8
	paddq	%xmm3, %xmm8
	paddq	%xmm1, %xmm5
	paddq	%xmm5, %xmm0
	paddq	%xmm4, %xmm0
	movdqa	%xmm0, %xmm4
	paddq	.LC6(%rip), %xmm5
	psllq	$7, %xmm0
	paddq	%xmm7, %xmm5
	movdqa	.LC8(%rip), %xmm7
	psrlq	$57, %xmm4
	por	%xmm4, %xmm0
	movdqa	%xmm5, %xmm4
	psllq	$19, %xmm5
	paddq	%xmm1, %xmm7
	paddq	%xmm3, %xmm7
	psrlq	$45, %xmm4
	por	%xmm4, %xmm5
	movdqa	%xmm8, %xmm4
	movdqa	%xmm7, %xmm1
	psllq	$31, %xmm8
	psllq	$53, %xmm7
	movdqa	%xmm0, %xmm3
	psrlq	$33, %xmm4
	por	%xmm4, %xmm8
	psrlq	$11, %xmm1
	por	%xmm1, %xmm7
	movdqa	552(%rsp), %xmm4
	pxor	%xmm5, %xmm3
	movdqa	%xmm8, %xmm10
	movdqa	568(%rsp), %xmm1
	pxor	%xmm7, %xmm10
	pxor	%xmm3, %xmm8
	pxor	%xmm3, %xmm7
	pxor	%xmm10, %xmm5
	pxor	%xmm0, %xmm10
	movdqa	536(%rsp), %xmm0
	paddq	%xmm7, %xmm1
	paddq	%xmm8, %xmm0
	movdqa	%xmm0, %xmm6
	paddq	%xmm5, %xmm4
	paddq	%xmm10, %xmm9
	movdqa	%xmm9, %xmm3
	paddq	.LC7(%rip), %xmm0
	paddq	%xmm4, %xmm6
	paddq	%xmm6, %xmm12
	paddq	.LC6(%rip), %xmm6
	paddq	%xmm1, %xmm3
	paddq	%xmm1, %xmm6
	movdqa	%xmm6, %xmm1
	paddq	%xmm3, %xmm0
	psllq	$19, %xmm6
	paddq	%xmm9, %xmm12
	psrlq	$45, %xmm1
	por	%xmm1, %xmm6
	paddq	.LC8(%rip), %xmm4
	movdqa	%xmm0, %xmm1
	paddq	%xmm3, %xmm4
	movdqa	%xmm12, %xmm9
	movdqa	%xmm4, %xmm3
	psllq	$31, %xmm0
	psllq	$7, %xmm12
	psrlq	$33, %xmm1
	por	%xmm1, %xmm0
	movdqa	%xmm4, %xmm1
	psrlq	$57, %xmm9
	psllq	$53, %xmm3
	por	%xmm9, %xmm12
	psrlq	$11, %xmm1
	por	%xmm1, %xmm3
	movdqa	%xmm0, %xmm1
	movdqa	%xmm12, %xmm4
	pxor	%xmm3, %xmm1
	pxor	%xmm6, %xmm4
	pxor	%xmm1, %xmm12
	pxor	%xmm4, %xmm3
	pxor	%xmm0, %xmm4
	paddq	_ZL14preCompConstV2+112(%rip), %xmm12
	movdqa	%xmm12, %xmm9
	pxor	%xmm1, %xmm6
	paddq	_ZL14preCompConstV2+64(%rip), %xmm3
	paddq	_ZL14preCompConstV2+80(%rip), %xmm4
	paddq	%xmm3, %xmm9
	movdqa	%xmm4, %xmm1
	paddq	.LC1(%rip), %xmm4
	paddq	%xmm9, %xmm4
	movdqa	%xmm4, %xmm0
	paddq	_ZL14preCompConstV2+96(%rip), %xmm6
	psllq	$11, %xmm4
	paddq	%xmm6, %xmm1
	psrlq	$53, %xmm0
	paddq	.LC2(%rip), %xmm6
	por	%xmm0, %xmm4
	paddq	%xmm9, %xmm6
	movdqa	%xmm6, %xmm0
	psllq	$23, %xmm6
	psrlq	$41, %xmm0
	por	%xmm0, %xmm6
	movdqa	.LC3(%rip), %xmm0
	paddq	%xmm1, %xmm0
	paddq	%xmm12, %xmm0
	movdqa	%xmm0, %xmm9
	paddq	.LC4(%rip), %xmm1
	psllq	$37, %xmm0
	paddq	%xmm3, %xmm1
	psrlq	$27, %xmm9
	movdqa	%xmm1, %xmm3
	psllq	$59, %xmm1
	por	%xmm9, %xmm0
	psrlq	$5, %xmm3
	por	%xmm3, %xmm1
	movdqa	%xmm4, %xmm3
	movdqa	%xmm0, %xmm9
	pxor	%xmm6, %xmm3
	pxor	%xmm1, %xmm9
	pxor	%xmm3, %xmm0
	pxor	%xmm9, %xmm6
	pxor	%xmm3, %xmm1
	pxor	%xmm9, %xmm4
	paddq	%xmm0, %xmm10
	movdqa	%xmm6, 568(%rsp)
	paddq	%xmm6, %xmm7
	paddq	%xmm1, %xmm5
	movdqa	%xmm1, 536(%rsp)
	paddq	%xmm4, %xmm8
	movdqa	%xmm10, %xmm1
	movdqa	%xmm0, 552(%rsp)
	movdqa	%xmm8, %xmm0
	paddq	%xmm7, %xmm1
	paddq	.LC1(%rip), %xmm8
	paddq	%xmm1, %xmm8
	movdqa	%xmm8, %xmm3
	psllq	$11, %xmm8
	paddq	%xmm5, %xmm0
	paddq	.LC2(%rip), %xmm5
	paddq	%xmm1, %xmm5
	movdqa	.LC3(%rip), %xmm6
	psrlq	$53, %xmm3
	movdqa	%xmm5, %xmm1
	psllq	$23, %xmm5
	por	%xmm3, %xmm8
	paddq	%xmm0, %xmm6
	paddq	%xmm10, %xmm6
	paddq	.LC4(%rip), %xmm0
	psrlq	$41, %xmm1
	por	%xmm1, %xmm5
	paddq	%xmm7, %xmm0
	movdqa	%xmm6, %xmm1
	movdqa	%xmm0, %xmm7
	psllq	$37, %xmm6
	movdqa	.LC1(%rip), %xmm12
	psrlq	$27, %xmm1
	por	%xmm1, %xmm6
	movdqa	%xmm0, %xmm1
	psllq	$59, %xmm7
	movdqa	.LC3(%rip), %xmm10
	psrlq	$5, %xmm1
	por	%xmm1, %xmm7
	movdqa	%xmm8, %xmm1
	movdqa	%xmm6, %xmm0
	pxor	%xmm5, %xmm1
	pxor	%xmm7, %xmm0
	pxor	%xmm1, %xmm6
	pxor	%xmm0, %xmm8
	pxor	%xmm0, %xmm5
	pxor	%xmm1, %xmm7
	paddq	%xmm6, %xmm13
	movdqa	%xmm13, %xmm1
	paddq	%xmm8, %xmm11
	movdqa	%xmm11, %xmm0
	paddq	%xmm11, %xmm12
	paddq	%xmm5, %xmm2
	paddq	%xmm2, %xmm1
	paddq	%xmm1, %xmm12
	paddq	%xmm7, %xmm14
	movdqa	%xmm12, %xmm3
	paddq	%xmm14, %xmm0
	paddq	.LC2(%rip), %xmm14
	paddq	%xmm1, %xmm14
	movdqa	%xmm14, %xmm1
	movdqa	%xmm14, %xmm9
	psrlq	$53, %xmm3
	paddq	%xmm0, %xmm10
	psrlq	$41, %xmm1
	paddq	%xmm13, %xmm10
	movdqa	.LC4(%rip), %xmm11
	psllq	$11, %xmm12
	psllq	$23, %xmm9
	por	%xmm3, %xmm12
	por	%xmm1, %xmm9
	movdqa	%xmm10, %xmm1
	paddq	%xmm0, %xmm11
	psllq	$37, %xmm10
	paddq	%xmm2, %xmm11
	movdqa	%xmm11, %xmm0
	psrlq	$27, %xmm1
	por	%xmm1, %xmm10
	movdqa	%xmm12, %xmm1
	psrlq	$5, %xmm0
	psllq	$59, %xmm11
	por	%xmm0, %xmm11
	pxor	%xmm9, %xmm1
	movdqa	584(%rsp), %xmm13
	movdqa	%xmm10, %xmm0
	movdqa	%xmm15, %xmm2
	movdqa	680(%rsp), %xmm3
	pxor	%xmm11, %xmm0
	pxor	%xmm1, %xmm10
	pxor	%xmm1, %xmm11
	pxor	%xmm0, %xmm9
	pxor	%xmm0, %xmm12
	paddq	%xmm10, %xmm13
	movdqa	744(%rsp), %xmm0
	movdqa	%xmm13, %xmm14
	paddq	%xmm11, %xmm3
	paddq	%xmm9, %xmm0
	paddq	%xmm12, %xmm2
	paddq	%xmm0, %xmm14
	movdqa	%xmm2, %xmm1
	paddq	.LC1(%rip), %xmm2
	paddq	%xmm14, %xmm2
	movdqa	%xmm2, %xmm15
	psllq	$11, %xmm2
	paddq	%xmm3, %xmm1
	paddq	.LC2(%rip), %xmm3
	psrlq	$53, %xmm15
	por	%xmm15, %xmm2
	paddq	%xmm14, %xmm3
	movdqa	.LC3(%rip), %xmm15
	movdqa	%xmm3, %xmm14
	psllq	$23, %xmm3
	paddq	%xmm1, %xmm15
	paddq	%xmm13, %xmm15
	movdqa	%xmm15, %xmm13
	paddq	.LC4(%rip), %xmm1
	psllq	$37, %xmm15
	paddq	%xmm0, %xmm1
	psrlq	$27, %xmm13
	movdqa	%xmm1, %xmm0
	psrlq	$41, %xmm14
	por	%xmm13, %xmm15
	psllq	$59, %xmm1
	por	%xmm14, %xmm3
	psrlq	$5, %xmm0
	por	%xmm0, %xmm1
	movdqa	%xmm2, %xmm0
	movdqa	%xmm15, %xmm13
	pxor	%xmm3, %xmm0
	pxor	%xmm1, %xmm13
	pxor	%xmm0, %xmm15
	pxor	%xmm13, %xmm2
	pxor	%xmm13, %xmm3
	pxor	%xmm0, %xmm1
	paddq	_ZL14preCompConstV2+176(%rip), %xmm15
	movdqa	.LC5(%rip), %xmm0
	paddq	_ZL14preCompConstV2+144(%rip), %xmm2
	movdqa	%xmm15, %xmm13
	movdqa	%xmm2, %xmm14
	paddq	_ZL14preCompConstV2+128(%rip), %xmm3
	paddq	.LC7(%rip), %xmm2
	paddq	%xmm3, %xmm13
	paddq	_ZL14preCompConstV2+160(%rip), %xmm1
	paddq	%xmm13, %xmm2
	paddq	%xmm1, %xmm14
	paddq	%xmm14, %xmm0
	paddq	.LC6(%rip), %xmm14
	paddq	%xmm3, %xmm14
	movdqa	%xmm14, %xmm3
	paddq	%xmm15, %xmm0
	psllq	$19, %xmm14
	movdqa	%xmm0, %xmm15
	paddq	.LC8(%rip), %xmm1
	psrlq	$45, %xmm3
	por	%xmm3, %xmm14
	movdqa	%xmm2, %xmm3
	paddq	%xmm13, %xmm1
	psrlq	$57, %xmm15
	psllq	$7, %xmm0
	psrlq	$33, %xmm3
	por	%xmm15, %xmm0
	psllq	$31, %xmm2
	por	%xmm3, %xmm2
	movdqa	%xmm1, %xmm3
	psllq	$53, %xmm1
	psrlq	$11, %xmm3
	por	%xmm3, %xmm1
	movdqa	%xmm0, %xmm13
	movdqa	%xmm2, %xmm3
	pxor	%xmm14, %xmm13
	pxor	%xmm1, %xmm3
	pxor	%xmm13, %xmm2
	pxor	%xmm13, %xmm1
	movdqa	568(%rsp), %xmm13
	pxor	%xmm3, %xmm0
	pxor	%xmm3, %xmm14
	paddq	%xmm2, %xmm12
	movdqa	%xmm12, %xmm3
	paddq	%xmm1, %xmm9
	movdqa	%xmm1, 744(%rsp)
	paddq	.LC7(%rip), %xmm12
	paddq	%xmm0, %xmm10
	movdqa	%xmm10, %xmm1
	movdqa	%xmm0, 584(%rsp)
	paddq	%xmm14, %xmm11
	paddq	%xmm11, %xmm3
	paddq	%xmm9, %xmm1
	paddq	%xmm1, %xmm12
	paddq	.LC8(%rip), %xmm11
	paddq	%xmm1, %xmm11
	movdqa	%xmm11, %xmm1
	psllq	$53, %xmm11
	movdqa	%xmm14, 680(%rsp)
	psrlq	$11, %xmm1
	por	%xmm1, %xmm11
	movdqa	.LC5(%rip), %xmm0
	paddq	%xmm3, %xmm0
	paddq	.LC6(%rip), %xmm3
	paddq	%xmm9, %xmm3
	movdqa	%xmm3, %xmm9
	paddq	%xmm10, %xmm0
	psllq	$19, %xmm3
	movdqa	%xmm0, %xmm10
	psllq	$7, %xmm0
	movdqa	552(%rsp), %xmm14
	psrlq	$45, %xmm9
	por	%xmm9, %xmm3
	movdqa	%xmm12, %xmm9
	psrlq	$57, %xmm10
	psllq	$31, %xmm12
	por	%xmm10, %xmm0
	psrlq	$33, %xmm9
	por	%xmm9, %xmm12
	movdqa	%xmm0, %xmm9
	movdqa	%xmm12, %xmm1
	pxor	%xmm3, %xmm9
	pxor	%xmm11, %xmm1
	pxor	%xmm9, %xmm12
	pxor	%xmm1, %xmm3
	pxor	%xmm0, %xmm1
	movdqa	.LC5(%rip), %xmm0
	pxor	%xmm9, %xmm11
	paddq	%xmm12, %xmm8
	movdqa	%xmm8, %xmm10
	paddq	%xmm3, %xmm7
	paddq	.LC7(%rip), %xmm8
	paddq	%xmm1, %xmm6
	movdqa	%xmm6, %xmm9
	paddq	%xmm11, %xmm5
	paddq	%xmm7, %xmm10
	paddq	%xmm10, %xmm0
	paddq	%xmm5, %xmm9
	paddq	.LC6(%rip), %xmm10
	paddq	%xmm5, %xmm10
	movdqa	%xmm10, %xmm5
	paddq	%xmm9, %xmm8
	paddq	%xmm6, %xmm0
	psllq	$19, %xmm10
	movdqa	%xmm0, %xmm6
	paddq	.LC8(%rip), %xmm7
	psrlq	$45, %xmm5
	por	%xmm5, %xmm10
	movdqa	%xmm8, %xmm5
	paddq	%xmm9, %xmm7
	psrlq	$57, %xmm6
	psllq	$7, %xmm0
	psrlq	$33, %xmm5
	por	%xmm6, %xmm0
	psllq	$31, %xmm8
	por	%xmm5, %xmm8
	movdqa	%xmm7, %xmm5
	psllq	$53, %xmm7
	movdqa	536(%rsp), %xmm9
	psrlq	$11, %xmm5
	por	%xmm5, %xmm7
	movdqa	%xmm0, %xmm6
	movdqa	%xmm8, %xmm5
	pxor	%xmm10, %xmm6
	pxor	%xmm7, %xmm5
	pxor	%xmm6, %xmm8
	pxor	%xmm5, %xmm10
	pxor	%xmm0, %xmm5
	movdqa	.LC5(%rip), %xmm0
	pxor	%xmm6, %xmm7
	paddq	%xmm8, %xmm4
	movdqa	%xmm4, %xmm15
	paddq	%xmm10, %xmm9
	paddq	.LC7(%rip), %xmm4
	paddq	%xmm5, %xmm14
	movdqa	%xmm14, %xmm6
	paddq	%xmm7, %xmm13
	paddq	%xmm9, %xmm15
	paddq	%xmm15, %xmm0
	paddq	%xmm13, %xmm6
	paddq	.LC6(%rip), %xmm15
	paddq	%xmm13, %xmm15
	movdqa	%xmm15, %xmm13
	paddq	%xmm6, %xmm4
	psllq	$19, %xmm15
	paddq	%xmm14, %xmm0
	paddq	.LC8(%rip), %xmm9
	movdqa	%xmm0, %xmm14
	psrlq	$45, %xmm13
	por	%xmm13, %xmm15
	movdqa	%xmm4, %xmm13
	paddq	%xmm6, %xmm9
	psllq	$31, %xmm4
	movdqa	%xmm9, %xmm6
	psrlq	$33, %xmm13
	por	%xmm13, %xmm4
	psrlq	$57, %xmm14
	psrlq	$11, %xmm6
	psllq	$7, %xmm0
	psllq	$53, %xmm9
	por	%xmm14, %xmm0
	por	%xmm6, %xmm9
	movdqa	%xmm4, %xmm6
	movdqa	%xmm0, %xmm13
	pxor	%xmm9, %xmm6
	pxor	%xmm15, %xmm13
	pxor	%xmm6, %xmm15
	pxor	%xmm0, %xmm6
	movdqa	.LC1(%rip), %xmm0
	pxor	%xmm13, %xmm9
	pxor	%xmm13, %xmm4
	paddq	_ZL14preCompConstV2+224(%rip), %xmm15
	paddq	_ZL14preCompConstV2+240(%rip), %xmm6
	movdqa	%xmm6, %xmm14
	paddq	_ZL14preCompConstV2+192(%rip), %xmm9
	paddq	_ZL14preCompConstV2+208(%rip), %xmm4
	paddq	%xmm9, %xmm14
	movdqa	%xmm4, %xmm13
	paddq	%xmm4, %xmm0
	paddq	%xmm14, %xmm0
	movdqa	%xmm0, %xmm4
	paddq	%xmm15, %xmm13
	psllq	$11, %xmm0
	paddq	.LC2(%rip), %xmm15
	psrlq	$53, %xmm4
	paddq	%xmm14, %xmm15
	por	%xmm4, %xmm0
	movdqa	%xmm15, %xmm4
	psllq	$23, %xmm15
	psrlq	$41, %xmm4
	por	%xmm4, %xmm15
	movdqa	.LC3(%rip), %xmm4
	paddq	%xmm13, %xmm4
	paddq	%xmm6, %xmm4
	movdqa	%xmm4, %xmm6
	paddq	.LC4(%rip), %xmm13
	psllq	$37, %xmm4
	paddq	%xmm9, %xmm13
	psrlq	$27, %xmm6
	por	%xmm6, %xmm4
	movdqa	%xmm13, %xmm6
	psllq	$59, %xmm13
	psrlq	$5, %xmm6
	por	%xmm6, %xmm13
	movdqa	%xmm0, %xmm6
	movdqa	%xmm4, %xmm9
	pxor	%xmm15, %xmm6
	pxor	%xmm13, %xmm9
	pxor	%xmm6, %xmm4
	pxor	%xmm9, %xmm15
	pxor	%xmm0, %xmm9
	paddq	%xmm4, %xmm5
	movdqa	%xmm5, %xmm0
	pxor	%xmm6, %xmm13
	movdqa	%xmm15, 568(%rsp)
	paddq	%xmm15, %xmm7
	paddq	%xmm9, %xmm8
	paddq	%xmm7, %xmm0
	movdqa	%xmm8, %xmm6
	movdqa	%xmm4, 552(%rsp)
	paddq	.LC1(%rip), %xmm8
	paddq	%xmm0, %xmm8
	movdqa	%xmm8, %xmm4
	paddq	%xmm13, %xmm10
	psllq	$11, %xmm8
	paddq	%xmm10, %xmm6
	paddq	.LC2(%rip), %xmm10
	paddq	%xmm0, %xmm10
	psrlq	$53, %xmm4
	movdqa	%xmm10, %xmm0
	psllq	$23, %xmm10
	por	%xmm4, %xmm8
	movdqa	.LC3(%rip), %xmm4
	psrlq	$41, %xmm0
	por	%xmm0, %xmm10
	paddq	%xmm6, %xmm4
	paddq	%xmm5, %xmm4
	movdqa	.LC4(%rip), %xmm5
	movdqa	%xmm4, %xmm0
	psllq	$37, %xmm4
	paddq	%xmm6, %xmm5
	paddq	%xmm7, %xmm5
	movdqa	%xmm13, 536(%rsp)
	psrlq	$27, %xmm0
	por	%xmm0, %xmm4
	movdqa	%xmm5, %xmm0
	psllq	$59, %xmm5
	psrlq	$5, %xmm0
	por	%xmm0, %xmm5
	movdqa	%xmm8, %xmm0
	movdqa	%xmm4, %xmm6
	movdqa	.LC3(%rip), %xmm7
	pxor	%xmm10, %xmm0
	pxor	%xmm5, %xmm6
	movdqa	680(%rsp), %xmm14
	pxor	%xmm0, %xmm4
	pxor	%xmm6, %xmm10
	pxor	%xmm6, %xmm8
	paddq	%xmm4, %xmm1
	pxor	%xmm0, %xmm5
	movdqa	%xmm1, %xmm0
	paddq	%xmm10, %xmm11
	paddq	%xmm8, %xmm12
	paddq	%xmm11, %xmm0
	movdqa	%xmm12, %xmm13
	paddq	.LC1(%rip), %xmm12
	paddq	%xmm0, %xmm12
	movdqa	%xmm12, %xmm6
	paddq	%xmm5, %xmm3
	psllq	$11, %xmm12
	paddq	%xmm3, %xmm13
	psrlq	$53, %xmm6
	paddq	.LC2(%rip), %xmm3
	por	%xmm6, %xmm12
	paddq	%xmm0, %xmm3
	movdqa	%xmm3, %xmm0
	movdqa	%xmm3, %xmm6
	paddq	%xmm13, %xmm7
	paddq	%xmm1, %xmm7
	paddq	.LC4(%rip), %xmm13
	psrlq	$41, %xmm0
	psllq	$23, %xmm6
	por	%xmm0, %xmm6
	movdqa	%xmm7, %xmm0
	paddq	%xmm11, %xmm13
	psllq	$37, %xmm7
	movdqa	%xmm13, %xmm11
	psrlq	$27, %xmm0
	por	%xmm0, %xmm7
	movdqa	%xmm13, %xmm0
	psllq	$59, %xmm11
	movdqa	584(%rsp), %xmm13
	psrlq	$5, %xmm0
	por	%xmm0, %xmm11
	movdqa	%xmm12, %xmm0
	movdqa	%xmm7, %xmm1
	pxor	%xmm6, %xmm0
	pxor	%xmm11, %xmm1
	pxor	%xmm0, %xmm7
	pxor	%xmm1, %xmm6
	pxor	%xmm1, %xmm12
	movdqa	744(%rsp), %xmm1
	paddq	%xmm7, %xmm13
	movdqa	%xmm13, %xmm15
	paddq	%xmm6, %xmm1
	pxor	%xmm0, %xmm11
	paddq	%xmm1, %xmm15
	paddq	%xmm12, %xmm2
	movdqa	%xmm2, %xmm0
	paddq	.LC1(%rip), %xmm2
	paddq	%xmm15, %xmm2
	movdqa	%xmm2, %xmm3
	psllq	$11, %xmm2
	paddq	%xmm11, %xmm14
	paddq	%xmm14, %xmm0
	psrlq	$53, %xmm3
	por	%xmm3, %xmm2
	movdqa	.LC2(%rip), %xmm3
	paddq	%xmm14, %xmm3
	paddq	%xmm15, %xmm3
	movdqa	.LC3(%rip), %xmm15
	movdqa	%xmm3, %xmm14
	psllq	$23, %xmm3
	paddq	%xmm0, %xmm15
	paddq	%xmm13, %xmm15
	movdqa	%xmm15, %xmm13
	paddq	.LC4(%rip), %xmm0
	psllq	$37, %xmm15
	paddq	%xmm1, %xmm0
	psrlq	$27, %xmm13
	movdqa	%xmm0, %xmm1
	psrlq	$41, %xmm14
	por	%xmm13, %xmm15
	movdqa	%xmm0, %xmm13
	por	%xmm14, %xmm3
	psllq	$59, %xmm1
	psrlq	$5, %xmm13
	por	%xmm13, %xmm1
	movdqa	%xmm2, %xmm13
	movdqa	%xmm15, %xmm0
	pxor	%xmm3, %xmm13
	pxor	%xmm1, %xmm0
	pxor	%xmm13, %xmm15
	pxor	%xmm0, %xmm2
	pxor	%xmm0, %xmm3
	movdqa	.LC5(%rip), %xmm0
	pxor	%xmm13, %xmm1
	paddq	_ZL14preCompConstV2+304(%rip), %xmm15
	paddq	_ZL14preCompConstV2+272(%rip), %xmm2
	movdqa	%xmm15, %xmm13
	movdqa	%xmm2, %xmm14
	paddq	_ZL14preCompConstV2+256(%rip), %xmm3
	paddq	.LC7(%rip), %xmm2
	paddq	%xmm3, %xmm13
	paddq	_ZL14preCompConstV2+288(%rip), %xmm1
	paddq	%xmm1, %xmm14
	paddq	%xmm14, %xmm0
	paddq	.LC6(%rip), %xmm14
	paddq	%xmm3, %xmm14
	movdqa	%xmm14, %xmm3
	paddq	%xmm13, %xmm2
	paddq	%xmm15, %xmm0
	psllq	$19, %xmm14
	movdqa	%xmm0, %xmm15
	paddq	.LC8(%rip), %xmm1
	psrlq	$45, %xmm3
	por	%xmm3, %xmm14
	movdqa	%xmm2, %xmm3
	paddq	%xmm13, %xmm1
	psrlq	$57, %xmm15
	psllq	$7, %xmm0
	psrlq	$33, %xmm3
	por	%xmm15, %xmm0
	psllq	$31, %xmm2
	por	%xmm3, %xmm2
	movdqa	%xmm1, %xmm3
	psllq	$53, %xmm1
	movdqa	568(%rsp), %xmm15
	psrlq	$11, %xmm3
	por	%xmm3, %xmm1
	movdqa	%xmm0, %xmm13
	movdqa	%xmm2, %xmm3
	pxor	%xmm14, %xmm13
	pxor	%xmm1, %xmm3
	pxor	%xmm13, %xmm2
	pxor	%xmm13, %xmm1
	movdqa	536(%rsp), %xmm13
	pxor	%xmm3, %xmm0
	pxor	%xmm3, %xmm14
	paddq	%xmm2, %xmm12
	movdqa	%xmm12, %xmm3
	paddq	%xmm1, %xmm6
	movdqa	%xmm1, 744(%rsp)
	paddq	.LC7(%rip), %xmm12
	paddq	%xmm0, %xmm7
	movdqa	%xmm7, %xmm1
	movdqa	%xmm0, 584(%rsp)
	paddq	%xmm14, %xmm11
	paddq	%xmm11, %xmm3
	paddq	%xmm6, %xmm1
	paddq	%xmm1, %xmm12
	paddq	.LC8(%rip), %xmm11
	paddq	%xmm1, %xmm11
	movdqa	%xmm11, %xmm1
	psllq	$53, %xmm11
	movdqa	%xmm14, 680(%rsp)
	psrlq	$11, %xmm1
	por	%xmm1, %xmm11
	movdqa	.LC5(%rip), %xmm0
	paddq	%xmm3, %xmm0
	paddq	.LC6(%rip), %xmm3
	paddq	%xmm7, %xmm0
	paddq	%xmm6, %xmm3
	movdqa	%xmm0, %xmm7
	psllq	$7, %xmm0
	movdqa	%xmm3, %xmm6
	psllq	$19, %xmm3
	movdqa	.LC6(%rip), %xmm14
	psrlq	$57, %xmm7
	por	%xmm7, %xmm0
	psrlq	$45, %xmm6
	por	%xmm6, %xmm3
	movdqa	%xmm12, %xmm6
	psllq	$31, %xmm12
	psrlq	$33, %xmm6
	por	%xmm6, %xmm12
	movdqa	%xmm0, %xmm1
	movdqa	%xmm12, %xmm7
	pxor	%xmm3, %xmm1
	pxor	%xmm11, %xmm7
	pxor	%xmm1, %xmm12
	pxor	%xmm7, %xmm3
	pxor	%xmm0, %xmm7
	movdqa	.LC5(%rip), %xmm0
	paddq	%xmm12, %xmm8
	movdqa	%xmm8, %xmm6
	paddq	.LC7(%rip), %xmm8
	pxor	%xmm1, %xmm11
	paddq	%xmm3, %xmm5
	paddq	%xmm7, %xmm4
	paddq	%xmm5, %xmm6
	movdqa	%xmm4, %xmm1
	paddq	%xmm6, %xmm0
	paddq	%xmm4, %xmm0
	movdqa	%xmm0, %xmm4
	paddq	%xmm11, %xmm10
	paddq	%xmm6, %xmm14
	psllq	$7, %xmm0
	paddq	%xmm10, %xmm14
	psrlq	$57, %xmm4
	por	%xmm4, %xmm0
	movdqa	%xmm14, %xmm4
	paddq	%xmm10, %xmm1
	psllq	$19, %xmm14
	paddq	%xmm1, %xmm8
	paddq	.LC8(%rip), %xmm5
	paddq	%xmm1, %xmm5
	psrlq	$45, %xmm4
	por	%xmm4, %xmm14
	movdqa	%xmm8, %xmm4
	movdqa	%xmm5, %xmm1
	psllq	$31, %xmm8
	psllq	$53, %xmm5
	psrlq	$33, %xmm4
	por	%xmm4, %xmm8
	psrlq	$11, %xmm1
	por	%xmm1, %xmm5
	movdqa	%xmm0, %xmm1
	movdqa	552(%rsp), %xmm4
	pxor	%xmm14, %xmm1
	movdqa	%xmm8, %xmm10
	pxor	%xmm5, %xmm10
	pxor	%xmm1, %xmm8
	pxor	%xmm1, %xmm5
	movdqa	.LC5(%rip), %xmm1
	pxor	%xmm10, %xmm14
	pxor	%xmm0, %xmm10
	paddq	%xmm8, %xmm9
	movdqa	%xmm9, %xmm0
	paddq	%xmm5, %xmm15
	paddq	.LC7(%rip), %xmm9
	paddq	%xmm14, %xmm13
	paddq	%xmm13, %xmm0
	paddq	%xmm0, %xmm1
	paddq	%xmm10, %xmm4
	movdqa	%xmm4, %xmm6
	paddq	%xmm4, %xmm1
	movdqa	%xmm1, %xmm4
	psllq	$7, %xmm1
	paddq	.LC8(%rip), %xmm13
	paddq	%xmm15, %xmm6
	paddq	%xmm6, %xmm9
	paddq	%xmm6, %xmm13
	psrlq	$57, %xmm4
	por	%xmm4, %xmm1
	movdqa	.LC6(%rip), %xmm4
	paddq	%xmm0, %xmm4
	paddq	%xmm15, %xmm4
	movdqa	%xmm9, %xmm15
	movdqa	%xmm4, %xmm0
	psllq	$31, %xmm9
	psllq	$19, %xmm4
	psrlq	$33, %xmm15
	por	%xmm15, %xmm9
	psrlq	$45, %xmm0
	por	%xmm0, %xmm4
	movdqa	%xmm13, %xmm0
	psllq	$53, %xmm13
	psrlq	$11, %xmm0
	por	%xmm0, %xmm13
	movdqa	%xmm9, %xmm6
	movdqa	%xmm1, %xmm0
	pxor	%xmm13, %xmm6
	pxor	%xmm4, %xmm0
	pxor	%xmm6, %xmm1
	pxor	%xmm0, %xmm13
	pxor	%xmm9, %xmm0
	paddq	_ZL14preCompConstV2+368(%rip), %xmm1
	movdqa	%xmm1, %xmm15
	pxor	%xmm6, %xmm4
	paddq	_ZL14preCompConstV2+320(%rip), %xmm13
	paddq	_ZL14preCompConstV2+336(%rip), %xmm0
	paddq	%xmm13, %xmm15
	movdqa	%xmm0, %xmm6
	paddq	.LC1(%rip), %xmm0
	paddq	%xmm15, %xmm0
	movdqa	%xmm0, %xmm9
	paddq	_ZL14preCompConstV2+352(%rip), %xmm4
	psllq	$11, %xmm0
	paddq	%xmm4, %xmm6
	psrlq	$53, %xmm9
	paddq	.LC2(%rip), %xmm4
	por	%xmm9, %xmm0
	paddq	%xmm15, %xmm4
	movdqa	%xmm4, %xmm9
	psllq	$23, %xmm4
	psrlq	$41, %xmm9
	por	%xmm9, %xmm4
	movdqa	.LC3(%rip), %xmm9
	paddq	%xmm6, %xmm9
	paddq	%xmm1, %xmm9
	movdqa	%xmm9, %xmm1
	paddq	.LC4(%rip), %xmm6
	psllq	$37, %xmm9
	paddq	%xmm13, %xmm6
	psrlq	$27, %xmm1
	por	%xmm1, %xmm9
	movdqa	%xmm6, %xmm1
	psllq	$59, %xmm6
	psrlq	$5, %xmm1
	por	%xmm1, %xmm6
	movdqa	%xmm9, %xmm13
	movdqa	%xmm0, %xmm1
	pxor	%xmm6, %xmm13
	pxor	%xmm4, %xmm1
	pxor	%xmm13, %xmm4
	pxor	%xmm1, %xmm6
	pxor	%xmm1, %xmm9
	pxor	%xmm0, %xmm13
	paddq	%xmm4, %xmm5
	movdqa	%xmm4, 568(%rsp)
	paddq	%xmm6, %xmm14
	paddq	%xmm9, %xmm10
	movdqa	%xmm10, %xmm0
	movdqa	%xmm6, 536(%rsp)
	paddq	%xmm13, %xmm8
	movdqa	%xmm8, %xmm6
	paddq	%xmm5, %xmm0
	paddq	.LC1(%rip), %xmm8
	paddq	%xmm0, %xmm8
	movdqa	%xmm8, %xmm1
	psllq	$11, %xmm8
	paddq	%xmm14, %xmm6
	paddq	.LC2(%rip), %xmm14
	paddq	%xmm0, %xmm14
	movdqa	%xmm14, %xmm0
	psrlq	$53, %xmm1
	movdqa	%xmm14, %xmm4
	por	%xmm1, %xmm8
	psrlq	$41, %xmm0
	movdqa	%xmm9, 552(%rsp)
	psllq	$23, %xmm4
	por	%xmm0, %xmm4
	movdqa	.LC3(%rip), %xmm0
	paddq	%xmm6, %xmm0
	paddq	%xmm10, %xmm0
	movdqa	%xmm0, %xmm1
	paddq	.LC4(%rip), %xmm6
	psllq	$37, %xmm0
	paddq	%xmm5, %xmm6
	psrlq	$27, %xmm1
	por	%xmm1, %xmm0
	movdqa	%xmm6, %xmm1
	movdqa	%xmm8, %xmm5
	psllq	$59, %xmm6
	movdqa	.LC3(%rip), %xmm9
	psrlq	$5, %xmm1
	por	%xmm1, %xmm6
	movdqa	%xmm0, %xmm1
	pxor	%xmm4, %xmm5
	movdqa	680(%rsp), %xmm14
	pxor	%xmm6, %xmm1
	pxor	%xmm5, %xmm6
	pxor	%xmm0, %xmm5
	movdqa	%xmm7, %xmm0
	pxor	%xmm1, %xmm8
	pxor	%xmm1, %xmm4
	paddq	%xmm6, %xmm3
	paddq	%xmm5, %xmm0
	movdqa	%xmm0, %xmm1
	paddq	%xmm8, %xmm12
	movdqa	%xmm12, %xmm10
	paddq	.LC1(%rip), %xmm12
	paddq	%xmm4, %xmm11
	paddq	%xmm11, %xmm1
	paddq	%xmm1, %xmm12
	movdqa	%xmm12, %xmm7
	paddq	%xmm3, %xmm10
	paddq	%xmm10, %xmm9
	paddq	%xmm0, %xmm9
	movdqa	%xmm9, %xmm0
	paddq	.LC2(%rip), %xmm3
	psrlq	$53, %xmm7
	paddq	%xmm1, %xmm3
	psllq	$11, %xmm12
	movdqa	%xmm3, %xmm1
	psrlq	$27, %xmm0
	paddq	.LC4(%rip), %xmm10
	por	%xmm7, %xmm12
	movdqa	%xmm3, %xmm7
	paddq	%xmm11, %xmm10
	psllq	$37, %xmm9
	por	%xmm0, %xmm9
	psrlq	$41, %xmm1
	movdqa	%xmm10, %xmm0
	psllq	$23, %xmm7
	por	%xmm1, %xmm7
	psllq	$59, %xmm10
	movdqa	744(%rsp), %xmm11
	psrlq	$5, %xmm0
	por	%xmm0, %xmm10
	movdqa	%xmm12, %xmm0
	movdqa	%xmm9, %xmm1
	pxor	%xmm7, %xmm0
	pxor	%xmm10, %xmm1
	pxor	%xmm0, %xmm9
	pxor	%xmm0, %xmm10
	movdqa	584(%rsp), %xmm0
	pxor	%xmm1, %xmm7
	pxor	%xmm1, %xmm12
	paddq	%xmm9, %xmm0
	movdqa	%xmm0, %xmm15
	paddq	%xmm10, %xmm14
	paddq	%xmm7, %xmm11
	paddq	%xmm11, %xmm15
	paddq	%xmm12, %xmm2
	movdqa	%xmm2, %xmm1
	paddq	.LC1(%rip), %xmm2
	paddq	%xmm15, %xmm2
	movdqa	%xmm2, %xmm3
	psllq	$11, %xmm2
	paddq	%xmm14, %xmm1
	psrlq	$53, %xmm3
	por	%xmm3, %xmm2
	movdqa	.LC2(%rip), %xmm3
	paddq	%xmm14, %xmm3
	paddq	%xmm15, %xmm3
	movdqa	.LC3(%rip), %xmm15
	movdqa	%xmm3, %xmm14
	psllq	$23, %xmm3
	paddq	%xmm1, %xmm15
	paddq	%xmm0, %xmm15
	movdqa	%xmm15, %xmm0
	paddq	.LC4(%rip), %xmm1
	psllq	$37, %xmm15
	paddq	%xmm11, %xmm1
	psrlq	$27, %xmm0
	por	%xmm0, %xmm15
	psrlq	$41, %xmm14
	movdqa	%xmm1, %xmm0
	por	%xmm14, %xmm3
	psllq	$59, %xmm1
	psrlq	$5, %xmm0
	por	%xmm0, %xmm1
	movdqa	%xmm15, %xmm11
	movdqa	%xmm2, %xmm0
	pxor	%xmm1, %xmm11
	pxor	%xmm3, %xmm0
	pxor	%xmm11, %xmm2
	pxor	%xmm0, %xmm15
	pxor	%xmm11, %xmm3
	pxor	%xmm0, %xmm1
	paddq	_ZL14preCompConstV2+400(%rip), %xmm2
	movdqa	.LC5(%rip), %xmm0
	paddq	_ZL14preCompConstV2+432(%rip), %xmm15
	movdqa	%xmm2, %xmm14
	paddq	.LC7(%rip), %xmm2
	movdqa	%xmm15, %xmm11
	paddq	_ZL14preCompConstV2+384(%rip), %xmm3
	paddq	_ZL14preCompConstV2+416(%rip), %xmm1
	paddq	%xmm1, %xmm14
	paddq	%xmm14, %xmm0
	paddq	%xmm3, %xmm11
	paddq	.LC6(%rip), %xmm14
	paddq	%xmm3, %xmm14
	movdqa	%xmm14, %xmm3
	paddq	%xmm11, %xmm2
	paddq	%xmm15, %xmm0
	psllq	$19, %xmm14
	movdqa	%xmm0, %xmm15
	paddq	.LC8(%rip), %xmm1
	psrlq	$45, %xmm3
	por	%xmm3, %xmm14
	movdqa	%xmm2, %xmm3
	paddq	%xmm11, %xmm1
	psrlq	$57, %xmm15
	psllq	$7, %xmm0
	psrlq	$33, %xmm3
	por	%xmm15, %xmm0
	psllq	$31, %xmm2
	por	%xmm3, %xmm2
	movdqa	%xmm1, %xmm3
	psllq	$53, %xmm1
	movdqa	.LC6(%rip), %xmm15
	psrlq	$11, %xmm3
	por	%xmm3, %xmm1
	movdqa	%xmm0, %xmm11
	movdqa	%xmm2, %xmm3
	pxor	%xmm14, %xmm11
	pxor	%xmm1, %xmm3
	pxor	%xmm11, %xmm2
	pxor	%xmm3, %xmm0
	pxor	%xmm11, %xmm1
	pxor	%xmm3, %xmm14
	paddq	%xmm2, %xmm12
	movdqa	%xmm12, %xmm3
	paddq	%xmm0, %xmm9
	movdqa	%xmm0, 584(%rsp)
	paddq	.LC7(%rip), %xmm12
	paddq	%xmm1, %xmm7
	movdqa	%xmm1, 744(%rsp)
	paddq	%xmm14, %xmm10
	paddq	%xmm10, %xmm3
	movdqa	%xmm9, %xmm1
	paddq	.LC8(%rip), %xmm10
	movdqa	%xmm14, 680(%rsp)
	paddq	%xmm7, %xmm1
	paddq	%xmm1, %xmm12
	paddq	%xmm1, %xmm10
	movdqa	%xmm10, %xmm1
	psllq	$53, %xmm10
	movdqa	.LC5(%rip), %xmm0
	psrlq	$11, %xmm1
	por	%xmm1, %xmm10
	paddq	%xmm3, %xmm0
	paddq	%xmm9, %xmm0
	movdqa	%xmm0, %xmm9
	paddq	.LC6(%rip), %xmm3
	psllq	$7, %xmm0
	paddq	%xmm7, %xmm3
	psrlq	$57, %xmm9
	movdqa	%xmm3, %xmm7
	por	%xmm9, %xmm0
	movdqa	%xmm3, %xmm9
	movdqa	%xmm12, %xmm3
	psllq	$19, %xmm7
	psllq	$31, %xmm12
	psrlq	$45, %xmm9
	por	%xmm9, %xmm7
	movdqa	552(%rsp), %xmm9
	psrlq	$33, %xmm3
	por	%xmm3, %xmm12
	movdqa	%xmm0, %xmm1
	movdqa	%xmm12, %xmm11
	pxor	%xmm7, %xmm1
	pxor	%xmm10, %xmm11
	pxor	%xmm1, %xmm12
	pxor	%xmm1, %xmm10
	pxor	%xmm11, %xmm7
	pxor	%xmm0, %xmm11
	paddq	%xmm12, %xmm8
	movdqa	.LC5(%rip), %xmm0
	movdqa	%xmm8, %xmm3
	paddq	%xmm10, %xmm4
	paddq	.LC7(%rip), %xmm8
	paddq	%xmm7, %xmm6
	paddq	%xmm11, %xmm5
	paddq	%xmm6, %xmm3
	movdqa	%xmm5, %xmm1
	paddq	%xmm3, %xmm0
	paddq	%xmm3, %xmm15
	paddq	%xmm5, %xmm0
	paddq	%xmm4, %xmm15
	movdqa	%xmm0, %xmm5
	paddq	%xmm4, %xmm1
	movdqa	%xmm15, %xmm3
	paddq	%xmm1, %xmm8
	psllq	$7, %xmm0
	psrlq	$57, %xmm5
	psllq	$19, %xmm15
	por	%xmm5, %xmm0
	psrlq	$45, %xmm3
	por	%xmm3, %xmm15
	movdqa	%xmm8, %xmm3
	paddq	.LC8(%rip), %xmm6
	paddq	%xmm1, %xmm6
	movdqa	%xmm6, %xmm1
	movdqa	%xmm6, %xmm5
	psrlq	$33, %xmm3
	psllq	$31, %xmm8
	por	%xmm3, %xmm8
	psrlq	$11, %xmm1
	movdqa	536(%rsp), %xmm6
	psllq	$53, %xmm5
	por	%xmm1, %xmm5
	movdqa	%xmm0, %xmm1
	movdqa	.LC5(%rip), %xmm3
	movdqa	%xmm8, %xmm14
	pxor	%xmm15, %xmm1
	movdqa	568(%rsp), %xmm4
	pxor	%xmm5, %xmm14
	pxor	%xmm1, %xmm8
	pxor	%xmm14, %xmm15
	pxor	%xmm0, %xmm14
	paddq	%xmm8, %xmm13
	movdqa	%xmm13, %xmm0
	pxor	%xmm1, %xmm5
	paddq	%xmm15, %xmm6
	paddq	.LC7(%rip), %xmm13
	paddq	%xmm14, %xmm9
	paddq	%xmm6, %xmm0
	movdqa	%xmm9, %xmm1
	paddq	%xmm0, %xmm3
	paddq	%xmm9, %xmm3
	movdqa	%xmm3, %xmm9
	paddq	%xmm5, %xmm4
	paddq	.LC6(%rip), %xmm0
	paddq	%xmm4, %xmm1
	paddq	%xmm4, %xmm0
	psrlq	$57, %xmm9
	movdqa	%xmm0, %xmm4
	psllq	$7, %xmm3
	por	%xmm9, %xmm3
	movdqa	%xmm0, %xmm9
	paddq	%xmm1, %xmm13
	psllq	$19, %xmm4
	paddq	.LC8(%rip), %xmm6
	psrlq	$45, %xmm9
	por	%xmm9, %xmm4
	paddq	%xmm1, %xmm6
	movdqa	%xmm13, %xmm9
	movdqa	%xmm6, %xmm0
	psllq	$31, %xmm13
	psllq	$53, %xmm6
	psrlq	$33, %xmm9
	por	%xmm9, %xmm13
	psrlq	$11, %xmm0
	por	%xmm0, %xmm6
	movdqa	%xmm3, %xmm0
	movdqa	%xmm4, %xmm1
	movdqa	%xmm13, %xmm9
	pxor	%xmm4, %xmm0
	pxor	%xmm6, %xmm9
	pxor	%xmm0, %xmm6
	pxor	%xmm13, %xmm0
	pxor	%xmm9, %xmm3
	pxor	%xmm9, %xmm1
	paddq	_ZL14preCompConstV2+448(%rip), %xmm6
	paddq	_ZL14preCompConstV2+464(%rip), %xmm0
	movdqa	%xmm0, %xmm4
	paddq	.LC1(%rip), %xmm0
	paddq	_ZL14preCompConstV2+496(%rip), %xmm3
	movdqa	%xmm3, %xmm9
	paddq	_ZL14preCompConstV2+480(%rip), %xmm1
	paddq	%xmm1, %xmm4
	paddq	.LC2(%rip), %xmm1
	paddq	%xmm6, %xmm9
	paddq	%xmm9, %xmm0
	paddq	%xmm9, %xmm1
	movdqa	%xmm1, %xmm9
	psllq	$23, %xmm1
	movdqa	%xmm0, %xmm13
	psllq	$11, %xmm0
	psrlq	$41, %xmm9
	por	%xmm9, %xmm1
	movdqa	.LC3(%rip), %xmm9
	psrlq	$53, %xmm13
	por	%xmm13, %xmm0
	paddq	%xmm4, %xmm9
	paddq	%xmm3, %xmm9
	movdqa	%xmm9, %xmm3
	paddq	.LC4(%rip), %xmm4
	psllq	$37, %xmm9
	paddq	%xmm6, %xmm4
	psrlq	$27, %xmm3
	por	%xmm3, %xmm9
	movdqa	%xmm4, %xmm3
	psllq	$59, %xmm4
	psrlq	$5, %xmm3
	por	%xmm3, %xmm4
	movdqa	%xmm9, %xmm6
	movdqa	%xmm0, %xmm3
	pxor	%xmm4, %xmm6
	pxor	%xmm1, %xmm3
	pxor	%xmm6, %xmm0
	pxor	%xmm6, %xmm1
	pxor	%xmm3, %xmm9
	paddq	%xmm8, %xmm0
	movdqa	.LC1(%rip), %xmm8
	pxor	%xmm3, %xmm4
	paddq	%xmm5, %xmm1
	movdqa	%xmm0, %xmm6
	paddq	%xmm14, %xmm9
	movdqa	%xmm9, %xmm5
	paddq	%xmm0, %xmm8
	paddq	%xmm15, %xmm4
	paddq	%xmm4, %xmm6
	paddq	%xmm1, %xmm5
	paddq	%xmm5, %xmm8
	movdqa	%xmm8, %xmm3
	psllq	$11, %xmm8
	psrlq	$53, %xmm3
	por	%xmm3, %xmm8
	movdqa	.LC2(%rip), %xmm3
	paddq	%xmm4, %xmm3
	paddq	%xmm5, %xmm3
	movdqa	%xmm3, %xmm5
	psllq	$23, %xmm3
	psrlq	$41, %xmm5
	por	%xmm5, %xmm3
	movdqa	.LC3(%rip), %xmm5
	paddq	%xmm6, %xmm5
	paddq	%xmm9, %xmm5
	movdqa	%xmm5, %xmm13
	paddq	.LC4(%rip), %xmm6
	psllq	$37, %xmm5
	paddq	%xmm1, %xmm6
	psrlq	$27, %xmm13
	por	%xmm13, %xmm5
	movdqa	%xmm6, %xmm13
	psllq	$59, %xmm6
	psrlq	$5, %xmm13
	por	%xmm13, %xmm6
	movdqa	%xmm5, %xmm14
	movdqa	%xmm8, %xmm13
	pxor	%xmm6, %xmm14
	pxor	%xmm3, %xmm13
	pxor	%xmm14, %xmm8
	pxor	%xmm14, %xmm3
	pxor	%xmm13, %xmm6
	pxor	%xmm13, %xmm5
	paddq	%xmm12, %xmm8
	paddq	%xmm10, %xmm3
	paddq	%xmm7, %xmm6
	movdqa	%xmm8, %xmm7
	paddq	.LC1(%rip), %xmm8
	paddq	%xmm11, %xmm5
	movdqa	%xmm5, %xmm10
	paddq	%xmm6, %xmm7
	paddq	.LC2(%rip), %xmm6
	paddq	%xmm3, %xmm10
	paddq	%xmm10, %xmm8
	paddq	%xmm10, %xmm6
	movdqa	%xmm6, %xmm10
	psllq	$23, %xmm6
	movdqa	%xmm8, %xmm11
	psllq	$11, %xmm8
	psrlq	$41, %xmm10
	por	%xmm10, %xmm6
	movdqa	.LC3(%rip), %xmm10
	psrlq	$53, %xmm11
	por	%xmm11, %xmm8
	paddq	%xmm7, %xmm10
	paddq	%xmm5, %xmm10
	movdqa	%xmm10, %xmm5
	paddq	.LC4(%rip), %xmm7
	psllq	$37, %xmm10
	paddq	%xmm3, %xmm7
	psrlq	$27, %xmm5
	movdqa	%xmm7, %xmm3
	psllq	$59, %xmm7
	por	%xmm5, %xmm10
	psrlq	$5, %xmm3
	por	%xmm3, %xmm7
	movdqa	%xmm8, %xmm3
	movdqa	%xmm10, %xmm5
	pxor	%xmm6, %xmm3
	pxor	%xmm7, %xmm5
	pxor	%xmm3, %xmm10
	pxor	%xmm5, %xmm6
	pxor	%xmm5, %xmm8
	pxor	%xmm3, %xmm7
	paddq	584(%rsp), %xmm10
	paddq	744(%rsp), %xmm6
	paddq	%xmm2, %xmm8
	paddq	696(%rsp), %xmm8
	paddq	680(%rsp), %xmm7
	movdqa	%xmm8, 696(%rsp)
	paddq	664(%rsp), %xmm7
	paddq	616(%rsp), %xmm10
	paddq	520(%rsp), %xmm6
	paddq	632(%rsp), %xmm0
	paddq	600(%rsp), %xmm4
	paddq	728(%rsp), %xmm9
	paddq	712(%rsp), %xmm1
	movdqa	%xmm8, 1032(%rsp)
	movdqa	%xmm7, 664(%rsp)
	movdqa	%xmm7, 1048(%rsp)
	movdqa	%xmm10, 616(%rsp)
	movdqa	%xmm10, 1064(%rsp)
	movdqa	%xmm6, 520(%rsp)
	movdqa	%xmm6, 1080(%rsp)
	movdqa	%xmm0, 632(%rsp)
	movdqa	%xmm0, 1096(%rsp)
	movdqa	%xmm4, 600(%rsp)
	movdqa	%xmm4, 1112(%rsp)
	movdqa	%xmm9, 728(%rsp)
	movdqa	%xmm9, 1128(%rsp)
	movdqa	%xmm1, 712(%rsp)
	movdqa	%xmm1, 1144(%rsp)
	jne	.L20
	movq	96(%rsp), %rbx
	movq	%rsi, %rax
	salq	$4, %rax
	movq	%rax, 120(%rsp)
	leaq	(%rbx,%rsi,2), %rbx
	movq	%rbx, 96(%rsp)
.L21:
	pshufd	$14, 1032(%rsp), %xmm0
	addq	%rsi, %rsi
	paddq	1032(%rsp), %xmm0
	movq	%xmm0, 472(%rsp)
	pshufd	$14, 1048(%rsp), %xmm0
	movq	472(%rsp), %rax
	paddq	1048(%rsp), %xmm0
	movq	%xmm0, 504(%rsp)
	pshufd	$14, 1064(%rsp), %xmm0
	movq	504(%rsp), %rbx
	movq	%rax, 776(%rsp)
	paddq	1064(%rsp), %xmm0
	movq	%xmm0, 552(%rsp)
	pshufd	$14, 1080(%rsp), %xmm0
	movq	552(%rsp), %rdi
	movq	%rbx, 784(%rsp)
	paddq	1080(%rsp), %xmm0
	movq	%xmm0, 536(%rsp)
	pshufd	$14, 1096(%rsp), %xmm0
	movq	%rdi, 792(%rsp)
	movq	536(%rsp), %r9
	paddq	1096(%rsp), %xmm0
	movq	%xmm0, 488(%rsp)
	pshufd	$14, 1112(%rsp), %xmm0
	movq	488(%rsp), %r10
	movq	%r9, 800(%rsp)
	paddq	1112(%rsp), %xmm0
	movq	%xmm0, -112(%rsp)
	pshufd	$14, 1128(%rsp), %xmm0
	movq	-112(%rsp), %rbx
	movq	%r10, 808(%rsp)
	paddq	1128(%rsp), %xmm0
	movq	%xmm0, -112(%rsp)
	movq	-112(%rsp), %rdi
	movq	%rbx, 816(%rsp)
	movq	%rdi, 824(%rsp)
	pshufd	$14, 1144(%rsp), %xmm0
	movq	16(%rsp), %rax
	movq	%rsi, 64(%rsp)
	paddq	1144(%rsp), %xmm0
	movq	%xmm0, 456(%rsp)
	movq	456(%rsp), %r11
	shrq	$6, %rax
	cmpq	%rsi, %rax
	movq	%rax, 136(%rsp)
	movq	%r11, 832(%rsp)
	jbe	.L19
	movq	112(%rsp), %rax
	leaq	(%rdx,%r8), %rsi
	movabsq	$7667772426219706969, %r9
	movabsq	$4195444129992158507, %r11
	movq	%rbx, 408(%rsp)
	movabsq	$-8247349341179448980, %rbx
	addq	%r11, %rdx
	movq	%rsi, 392(%rsp)
	movabsq	$6220970056051541820, %r10
	addq	%r9, %rax
	movq	%rdx, 248(%rsp)
	leaq	(%rcx,%r12), %rdx
	addq	%rsi, %rax
	leaq	(%r12,%r9), %rsi
	addq	%rbx, %rcx
	rorq	$41, %rax
	movq	%rdi, 424(%rsp)
	leaq	(%r14,%r11), %rdi
	movq	%rax, 440(%rsp)
	leaq	0(%r13,%r14), %rax
	addq	%r10, %r8
	movq	%r8, 264(%rsp)
	addq	%rax, %rcx
	addq	%rax, %rsi
	leaq	0(%r13,%r10), %rax
	rorq	$53, %rcx
	rorq	$41, %rsi
	addq	%rdx, %rax
	addq	%rdi, %rdx
	movq	%rcx, %rdi
	rorq	$5, %rdx
	rorq	$27, %rax
	xorq	%rsi, %rdi
	movq	%rdx, %r8
	xorq	%rdi, %rdx
	xorq	%rax, %rdi
	xorq	%rax, %r8
	movq	48(%rsp), %rax
	addq	88(%rsp), %rax
	xorq	%r8, %rsi
	xorq	%rcx, %r8
	leaq	(%r15,%rbx), %rcx
	movq	%rsi, 184(%rsp)
	movq	56(%rsp), %rsi
	movq	%rdx, 216(%rsp)
	movq	%rdi, 360(%rsp)
	addq	%rax, %rcx
	movq	56(%rsp), %rdx
	movq	48(%rsp), %rdi
	addq	%r9, %rsi
	rorq	$53, %rcx
	movq	%r8, 200(%rsp)
	addq	%rax, %rsi
	movq	88(%rsp), %rax
	addq	%r15, %rdx
	addq	%r11, %rdi
	rorq	$41, %rsi
	addq	%r10, %rax
	addq	%rdx, %rax
	addq	%rdi, %rdx
	movq	%rcx, %rdi
	rorq	$5, %rdx
	rorq	$27, %rax
	movq	%rdx, %r8
	xorq	%rax, %r8
	xorq	%rsi, %rdi
	xorq	%r8, %rsi
	xorq	%rdi, %rdx
	xorq	%rcx, %r8
	xorq	%rax, %rdi
	movq	%rsi, 232(%rsp)
	movq	24(%rsp), %rax
	movq	80(%rsp), %rcx
	addq	32(%rsp), %rax
	movq	40(%rsp), %rsi
	movq	%rdx, 376(%rsp)
	movq	40(%rsp), %rdx
	addq	80(%rsp), %rdx
	addq	%rbx, %rcx
	movq	%rdi, 168(%rsp)
	movq	24(%rsp), %rdi
	addq	%r9, %rsi
	addq	%rax, %rcx
	movq	%r8, 344(%rsp)
	addq	%rax, %rsi
	movq	32(%rsp), %rax
	rorq	$53, %rcx
	rorq	$41, %rsi
	addq	%r11, %rdi
	addq	%r10, %rax
	addq	%rdx, %rax
	addq	%rdi, %rdx
	movq	%rsi, %rdi
	rorq	$27, %rax
	xorq	%rcx, %rdi
	rorq	$5, %rdx
	movq	%rax, %r8
	xorq	%rdx, %r8
	xorq	%rdi, %rdx
	xorq	%rax, %rdi
	movq	120(%rsp), %rax
	movq	%rdx, 312(%rsp)
	xorq	%r8, %rsi
	movq	-88(%rsp), %rdx
	xorq	%rcx, %r8
	movq	%rsi, 280(%rsp)
	movq	%r8, 296(%rsp)
	movq	%rdi, 328(%rsp)
	salq	$3, %rax
	addq	%rax, %rdx
	movq	%rdx, 648(%rsp)
	addq	72(%rsp), %rax
	movq	96(%rsp), %rcx
	movq	%rax, 520(%rsp)
	movq	136(%rsp), %rax
	subq	64(%rsp), %rax
	movq	%rcx, 632(%rsp)
	addq	96(%rsp), %rax
	movq	%rax, 152(%rsp)
	.p2align 4,,10
	.p2align 3
.L22:
	addq	$1, 632(%rsp)
	movq	104(%rsp), %rcx
	movabsq	$-8247349341179448980, %rbx
	xorq	632(%rsp), %rcx
	movq	112(%rsp), %rsi
	movabsq	$7860495443403156170, %r9
	movq	264(%rsp), %rax
	movq	440(%rsp), %rdx
	movabsq	$-6792583489299504353, %r12
	movq	440(%rsp), %rdi
	movabsq	$-3833335565246798826, %r10
	movabsq	$2580067509209331373, %r14
	movabsq	$-1457182779415996031, %r11
	movabsq	$-6802927476391842224, %r13
	addq	%rcx, %rsi
	addq	392(%rsp), %rcx
	addq	%rsi, %rax
	addq	248(%rsp), %rsi
	rolq	$37, %rax
	addq	%rbx, %rcx
	rolq	$59, %rsi
	rolq	$11, %rcx
	movq	%rsi, %r8
	xorq	%rcx, %rdx
	xorq	%rax, %r8
	xorq	%rdx, %rsi
	xorq	%rdx, %rax
	xorq	%r8, %rcx
	xorq	%r8, %rdi
	leaq	(%rcx,%rsi), %r8
	leaq	(%rdi,%rax), %rdx
	addq	%r12, %rdi
	addq	%r14, %rsi
	addq	%r11, %rax
	addq	%r13, %rcx
	addq	%r9, %r8
	addq	%r10, %rdx
	movabsq	$-6657276164713376882, %r9
	leaq	(%rdi,%r8), %r15
	addq	%rdx, %rsi
	addq	%r8, %rax
	addq	%rdx, %rcx
	rolq	$53, %rsi
	rolq	$7, %rax
	rolq	$19, %r15
	rolq	$31, %rcx
	movq	%rsi, %rdx
	movq	%r15, %rdi
	xorq	%rcx, %rdx
	movabsq	$-5426079245872290139, %r8
	xorq	%rax, %rdi
	movq	232(%rsp), %r10
	movabsq	$-3329063056561552456, %r11
	xorq	%rdi, %rsi
	xorq	%rcx, %rdi
	xorq	%rdx, %r15
	xorq	%rax, %rdx
	movq	%r15, %r12
	addq	216(%rsp), %r12
	movq	%rdx, 664(%rsp)
	movq	%rdi, %rdx
	addq	200(%rsp), %rdx
	movq	664(%rsp), %rax
	movq	%rsi, %rbx
	addq	360(%rsp), %rax
	addq	184(%rsp), %rbx
	movq	%rsi, 728(%rsp)
	movabsq	$-5426079245872290139, %r14
	movq	%rdi, 712(%rsp)
	movabsq	$-3329063056561552456, %rdi
	movq	%r15, 696(%rsp)
	leaq	(%r12,%rdx), %rsi
	movabsq	$-1087367646907149102, %r15
	addq	%r9, %r12
	addq	%r8, %rdx
	movq	376(%rsp), %r8
	leaq	(%rbx,%rax), %rcx
	addq	%rdi, %rbx
	addq	%r15, %rax
	addq	%rsi, %rbx
	addq	%rsi, %rax
	rolq	$19, %rbx
	addq	%rcx, %r12
	rolq	$7, %rax
	addq	%rcx, %rdx
	rolq	$53, %r12
	movq	%rbx, %r13
	rolq	$31, %rdx
	xorq	%rax, %r13
	movq	%r12, %rdi
	xorq	%rdx, %rdi
	xorq	%r13, %r12
	xorq	%rdx, %r13
	movq	344(%rsp), %rdx
	xorq	%rdi, %rbx
	xorq	%rax, %rdi
	movq	168(%rsp), %rax
	addq	%rbx, %r8
	addq	%r12, %r10
	addq	%r13, %rdx
	leaq	(%r8,%rdx), %rsi
	addq	%rdi, %rax
	leaq	(%r10,%rax), %rcx
	addq	%r15, %rax
	addq	%r11, %r10
	addq	%rsi, %rax
	addq	%rsi, %r10
	movq	280(%rsp), %r15
	rolq	$7, %rax
	rolq	$19, %r10
	addq	%r9, %r8
	addq	%r14, %rdx
	addq	%rcx, %r8
	movq	%r10, %r11
	addq	%rcx, %rdx
	rolq	$53, %r8
	xorq	%rax, %r11
	rolq	$31, %rdx
	movq	%r8, %r9
	movq	296(%rsp), %rcx
	xorq	%r11, %r8
	xorq	%rdx, %r9
	xorq	%rdx, %r11
	movq	312(%rsp), %rdx
	addq	%r8, %r15
	movq	328(%rsp), %rsi
	movq	%r15, 744(%rsp)
	xorq	%r9, %r10
	movq	744(%rsp), %r14
	xorq	%rax, %r9
	addq	%r11, %rcx
	movabsq	$-1087367646907149102, %rax
	addq	%r10, %rdx
	addq	%r9, %rsi
	leaq	(%rdx,%rcx), %r15
	addq	%rsi, %r14
	addq	%rax, %rsi
	leaq	(%rsi,%r15), %rax
	movabsq	$-3329063056561552456, %rsi
	addq	744(%rsp), %rsi
	rolq	$7, %rax
	addq	%r15, %rsi
	movabsq	$-5426079245872290139, %r15
	addq	%r15, %rcx
	movabsq	$-6657276164713376882, %r15
	rolq	$19, %rsi
	addq	%r15, %rdx
	addq	%r14, %rcx
	movq	%rsi, %r15
	addq	%r14, %rdx
	rolq	$31, %rcx
	xorq	%rax, %r15
	rolq	$53, %rdx
	movq	%rdx, %r14
	xorq	%r15, %rdx
	xorq	%rcx, %r14
	xorq	%r15, %rcx
	xorq	%r14, %rsi
	xorq	%r14, %rax
	movabsq	$-3210636887397455352, %r14
	leaq	(%rdx,%rax), %r15
	addq	%r14, %r15
	leaq	(%rcx,%rsi), %r14
	movq	%r14, 744(%rsp)
	movabsq	$5597446114060141266, %r14
	addq	744(%rsp), %r14
	movq	%r14, 744(%rsp)
	movabsq	$2199824780781266189, %r14
	addq	%r14, %rcx
	movabsq	$2818044418319133066, %r14
	addq	%r14, %rsi
	movabsq	$2553129884740551573, %r14
	addq	%r15, %rcx
	addq	%r15, %rsi
	addq	%r14, %rdx
	movabsq	$4652647413905693402, %r15
	addq	744(%rsp), %rdx
	addq	%r15, %rax
	addq	744(%rsp), %rax
	rolq	$23, %rsi
	rolq	$11, %rcx
	movq	%rsi, %r14
	xorq	%rcx, %r14
	rolq	$59, %rdx
	rolq	$37, %rax
	movq	%rdx, %r15
	xorq	%r14, %rdx
	xorq	%rax, %r14
	xorq	%rax, %r15
	addq	%r14, %r9
	addq	%rdx, %r10
	xorq	%r15, %rsi
	xorq	%rcx, %r15
	movq	%rsi, 616(%rsp)
	addq	%r8, %rsi
	movq	%r15, 600(%rsp)
	leaq	(%rsi,%r9), %rax
	addq	%r15, %r11
	movabsq	$7667772426219706969, %r8
	movabsq	$-8247349341179448980, %r15
	leaq	(%r10,%r11), %rcx
	addq	%r10, %r8
	addq	%r15, %r11
	movq	%rdx, 744(%rsp)
	addq	%rax, %r8
	leaq	(%r11,%rax), %rdx
	movabsq	$6220970056051541820, %rax
	movabsq	$4195444129992158507, %r10
	addq	%rax, %r9
	rolq	$23, %r8
	movq	%r14, 680(%rsp)
	leaq	(%r9,%rcx), %rax
	rolq	$11, %rdx
	movq	%r8, %r9
	movq	696(%rsp), %r14
	rolq	$37, %rax
	addq	%rsi, %r10
	xorq	%rdx, %r9
	addq	%rcx, %r10
	rolq	$59, %r10
	movq	%r10, %r11
	xorq	%r9, %r10
	xorq	%rax, %r9
	xorq	%rax, %r11
	leaq	(%r9,%rdi), %rax
	leaq	(%r10,%rbx), %rsi
	xorq	%r11, %r8
	xorq	%rdx, %r11
	movabsq	$7667772426219706969, %rbx
	leaq	(%r11,%r13), %rdx
	addq	%r8, %r12
	movabsq	$4195444129992158507, %r13
	leaq	(%r12,%rax), %rdi
	addq	%r13, %r12
	leaq	(%rsi,%rdx), %rcx
	addq	%rbx, %rsi
	addq	%r15, %rdx
	addq	%rdi, %rdx
	addq	%rsi, %rdi
	movabsq	$6220970056051541820, %rsi
	rolq	$23, %rdi
	addq	%rsi, %rax
	addq	%rcx, %r12
	rolq	$11, %rdx
	addq	%rcx, %rax
	rolq	$59, %r12
	movq	%rdi, %rbx
	rolq	$37, %rax
	movq	%r12, %r13
	xorq	%rdx, %rbx
	movq	728(%rsp), %rsi
	xorq	%rax, %r13
	xorq	%rbx, %r12
	xorq	%rax, %rbx
	movq	664(%rsp), %rax
	movq	712(%rsp), %r15
	addq	%r12, %r14
	xorq	%r13, %rdi
	movq	%r14, 712(%rsp)
	xorq	%rdx, %r13
	movq	712(%rsp), %rdx
	addq	%rbx, %rax
	addq	%rdi, %rsi
	movabsq	$-8247349341179448980, %rcx
	leaq	(%rsi,%rax), %r14
	addq	%r13, %r15
	addq	%r15, %rdx
	addq	%rcx, %r15
	leaq	(%r15,%r14), %rcx
	movabsq	$7667772426219706969, %r15
	addq	712(%rsp), %r15
	rolq	$11, %rcx
	addq	%r14, %r15
	movabsq	$6220970056051541820, %r14
	addq	%r14, %rax
	movabsq	$4195444129992158507, %r14
	rolq	$23, %r15
	addq	%r14, %rsi
	addq	%rdx, %rax
	movq	%r15, %r14
	addq	%rdx, %rsi
	rolq	$37, %rax
	xorq	%rcx, %r14
	rolq	$59, %rsi
	movq	%rsi, %rdx
	xorq	%r14, %rsi
	xorq	%rax, %rdx
	xorq	%r14, %rax
	movabsq	$6175231417442077265, %r14
	xorq	%rdx, %rcx
	xorq	%rdx, %r15
	leaq	(%rcx,%rsi), %rdx
	addq	%r14, %rdx
	leaq	(%r15,%rax), %r14
	movq	%r14, 728(%rsp)
	movabsq	$1022059294516476377, %r14
	addq	728(%rsp), %r14
	movq	%r14, 728(%rsp)
	movabsq	$-6093410837277433488, %r14
	addq	%r14, %rax
	movabsq	$2699039428325208307, %r14
	addq	%r14, %r15
	movabsq	$1810550724721602985, %r14
	addq	%rdx, %rax
	addq	%r14, %rsi
	addq	%r15, %rdx
	addq	728(%rsp), %rsi
	movabsq	$-7718674717865192741, %r15
	rolq	$19, %rdx
	rolq	$7, %rax
	addq	%r15, %rcx
	addq	728(%rsp), %rcx
	movq	%rdx, %r15
	xorq	%rax, %r15
	rolq	$53, %rsi
	movq	%rsi, %r14
	rolq	$31, %rcx
	xorq	%rcx, %r14
	xorq	%r15, %rsi
	xorq	%rcx, %r15
	xorq	%r14, %rdx
	addq	%r15, %r13
	xorq	%rax, %r14
	movq	%rdx, %rcx
	addq	%r14, %rbx
	addq	%rsi, %rdi
	addq	%r12, %rcx
	movq	%r15, 712(%rsp)
	movq	%rdx, 696(%rsp)
	movabsq	$-1087367646907149102, %r15
	leaq	(%rcx,%r13), %rdx
	movq	%rsi, 728(%rsp)
	leaq	(%rdi,%rbx), %rsi
	addq	%r15, %rbx
	movq	%r14, 664(%rsp)
	leaq	(%rbx,%rdx), %rax
	movabsq	$-3329063056561552456, %rbx
	movabsq	$-5426079245872290139, %r14
	addq	%rbx, %rdi
	leaq	(%rdi,%rdx), %r12
	movabsq	$-5426079245872290139, %rdi
	rolq	$7, %rax
	addq	%rdi, %r13
	movabsq	$-6657276164713376882, %rdi
	addq	%rcx, %rdi
	leaq	0(%r13,%rsi), %rdx
	rolq	$19, %r12
	addq	%rsi, %rdi
	movq	%r12, %r13
	rolq	$53, %rdi
	rolq	$31, %rdx
	xorq	%rax, %r13
	movq	%rdi, %rbx
	xorq	%r13, %rdi
	xorq	%rdx, %r13
	xorq	%rdx, %rbx
	addq	%r13, %r11
	addq	%rdi, %r8
	xorq	%rbx, %r12
	xorq	%rax, %rbx
	leaq	(%r12,%r10), %rcx
	addq	%rbx, %r9
	leaq	(%r8,%r9), %rsi
	addq	%r15, %r9
	movq	616(%rsp), %r15
	leaq	(%rcx,%r11), %rdx
	addq	%r14, %r11
	leaq	(%r9,%rdx), %rax
	movabsq	$-3329063056561552456, %r9
	addq	%r9, %r8
	leaq	(%r8,%rdx), %r10
	leaq	(%r11,%rsi), %rdx
	movabsq	$-6657276164713376882, %r8
	addq	%rcx, %r8
	rolq	$7, %rax
	movq	600(%rsp), %rcx
	rolq	$31, %rdx
	rolq	$19, %r10
	addq	%rsi, %r8
	rolq	$53, %r8
	movq	%r10, %r11
	movq	680(%rsp), %rsi
	xorq	%rax, %r11
	movq	%r8, %r9
	xorq	%rdx, %r9
	xorq	%r11, %r8
	xorq	%rdx, %r11
	movq	744(%rsp), %rdx
	addq	%r8, %r15
	xorq	%r9, %r10
	movq	%r15, 744(%rsp)
	movq	744(%rsp), %r14
	xorq	%rax, %r9
	addq	%r11, %rcx
	addq	%r9, %rsi
	movabsq	$-1087367646907149102, %rax
	addq	%r10, %rdx
	leaq	(%rdx,%rcx), %r15
	addq	%rsi, %r14
	addq	%rax, %rsi
	leaq	(%rsi,%r15), %rax
	movabsq	$-3329063056561552456, %rsi
	addq	744(%rsp), %rsi
	rolq	$7, %rax
	addq	%r15, %rsi
	movabsq	$-5426079245872290139, %r15
	addq	%r15, %rcx
	movabsq	$-6657276164713376882, %r15
	rolq	$19, %rsi
	addq	%r15, %rdx
	addq	%r14, %rcx
	movq	%rsi, %r15
	addq	%r14, %rdx
	rolq	$31, %rcx
	xorq	%rax, %r15
	rolq	$53, %rdx
	movq	%rdx, %r14
	xorq	%r15, %rdx
	xorq	%rcx, %r14
	xorq	%r15, %rcx
	xorq	%r14, %rax
	xorq	%r14, %rsi
	movabsq	$7657736904968069610, %r14
	leaq	(%rdx,%rax), %r15
	addq	%r14, %r15
	leaq	(%rcx,%rsi), %r14
	movq	%r14, 744(%rsp)
	movabsq	$-1692866721100317761, %r14
	addq	744(%rsp), %r14
	movq	%r14, 744(%rsp)
	movabsq	$-2293503970026868299, %r14
	addq	%r14, %rcx
	movabsq	$21060333966808527, %r14
	addq	%r15, %rcx
	addq	%r14, %rsi
	movabsq	$-3751294463443135658, %r14
	addq	%r15, %rsi
	addq	%r14, %rdx
	movabsq	$3378701480745353979, %r15
	addq	744(%rsp), %rdx
	addq	%r15, %rax
	addq	744(%rsp), %rax
	rolq	$23, %rsi
	rolq	$11, %rcx
	movq	%rsi, %r14
	xorq	%rcx, %r14
	rolq	$59, %rdx
	rolq	$37, %rax
	movq	%rdx, %r15
	xorq	%r14, %rdx
	xorq	%rax, %r14
	xorq	%rax, %r15
	addq	%r14, %r9
	addq	%rdx, %r10
	xorq	%r15, %rsi
	xorq	%rcx, %r15
	movq	%rsi, 616(%rsp)
	addq	%r8, %rsi
	addq	%r15, %r11
	leaq	(%rsi,%r9), %rax
	movq	%r15, 600(%rsp)
	movabsq	$7667772426219706969, %r8
	movabsq	$-8247349341179448980, %r15
	leaq	(%r10,%r11), %rcx
	addq	%r10, %r8
	addq	%r15, %r11
	movq	%rdx, 744(%rsp)
	addq	%rax, %r8
	leaq	(%r11,%rax), %rdx
	movabsq	$4195444129992158507, %r10
	movabsq	$6220970056051541820, %rax
	addq	%rax, %r9
	addq	%rsi, %r10
	rolq	$23, %r8
	leaq	(%r9,%rcx), %rax
	addq	%rcx, %r10
	rolq	$11, %rdx
	rolq	$59, %r10
	movq	%r8, %r9
	movq	%r14, 680(%rsp)
	rolq	$37, %rax
	movq	%r10, %r11
	xorq	%rdx, %r9
	xorq	%rax, %r11
	movq	696(%rsp), %r14
	xorq	%r11, %r8
	xorq	%rdx, %r11
	xorq	%r9, %r10
	leaq	(%r8,%rdi), %rsi
	xorq	%rax, %r9
	addq	%r10, %r12
	addq	%r11, %r13
	addq	%r9, %rbx
	movabsq	$7667772426219706969, %rdi
	leaq	(%rsi,%rbx), %rax
	leaq	(%r12,%r13), %rcx
	addq	%r12, %rdi
	movabsq	$6220970056051541820, %r12
	addq	%r15, %r13
	movq	712(%rsp), %r15
	addq	%r12, %rbx
	movabsq	$4195444129992158507, %r12
	leaq	0(%r13,%rax), %rdx
	addq	%rax, %rdi
	addq	%rsi, %r12
	leaq	(%rbx,%rcx), %rax
	rolq	$23, %rdi
	addq	%rcx, %r12
	rolq	$11, %rdx
	rolq	$59, %r12
	movq	%rdi, %rbx
	rolq	$37, %rax
	xorq	%rdx, %rbx
	movq	%r12, %r13
	movq	728(%rsp), %rsi
	xorq	%rax, %r13
	xorq	%rbx, %r12
	xorq	%rax, %rbx
	movq	664(%rsp), %rax
	xorq	%r13, %rdi
	xorq	%rdx, %r13
	addq	%rdi, %rsi
	addq	%r13, %r15
	addq	%r12, %r14
	movabsq	$-8247349341179448980, %rcx
	movq	%r14, 712(%rsp)
	addq	%r15, %r14
	addq	%rbx, %rax
	addq	%rcx, %r15
	leaq	(%rsi,%rax), %rdx
	leaq	(%r15,%rdx), %rcx
	movabsq	$7667772426219706969, %r15
	addq	712(%rsp), %r15
	rolq	$11, %rcx
	addq	%rdx, %r15
	movabsq	$6220970056051541820, %rdx
	rolq	$23, %r15
	addq	%rdx, %rax
	movabsq	$4195444129992158507, %rdx
	addq	%rdx, %rsi
	addq	%r14, %rax
	addq	%r14, %rsi
	rolq	$37, %rax
	movq	%r15, %r14
	rolq	$59, %rsi
	xorq	%rcx, %r14
	movq	%rsi, %rdx
	xorq	%r14, %rsi
	xorq	%rax, %rdx
	xorq	%r14, %rax
	movabsq	$-2738949068654747313, %r14
	xorq	%rdx, %rcx
	xorq	%rdx, %r15
	leaq	(%rcx,%rsi), %rdx
	addq	%r14, %rdx
	leaq	(%r15,%rax), %r14
	movq	%r14, 728(%rsp)
	movabsq	$-1023045325627492857, %r14
	addq	728(%rsp), %r14
	movq	%r14, 728(%rsp)
	movabsq	$5522384568424980818, %r14
	addq	%r14, %rax
	movabsq	$7484883476188376383, %r14
	addq	%r14, %r15
	movabsq	$-8571305747174237030, %r14
	addq	%rdx, %rax
	addq	%r14, %rsi
	addq	%r15, %rdx
	addq	728(%rsp), %rsi
	movabsq	$-6250998732066177304, %r15
	rolq	$19, %rdx
	rolq	$7, %rax
	addq	%r15, %rcx
	addq	728(%rsp), %rcx
	movq	%rdx, %r15
	xorq	%rax, %r15
	rolq	$53, %rsi
	movq	%rsi, %r14
	xorq	%r15, %rsi
	rolq	$31, %rcx
	movq	%rsi, 728(%rsp)
	xorq	%rcx, %r14
	xorq	%rcx, %r15
	xorq	%r14, %rdx
	addq	%r15, %r13
	xorq	%rax, %r14
	addq	%rdx, %r12
	movq	%r15, 712(%rsp)
	addq	%r14, %rbx
	addq	%rsi, %rdi
	movq	%rdx, 696(%rsp)
	movabsq	$-1087367646907149102, %r15
	leaq	(%r12,%r13), %rdx
	leaq	(%rdi,%rbx), %rcx
	addq	%r15, %rbx
	movabsq	$-5426079245872290139, %rsi
	movq	%r14, 664(%rsp)
	movabsq	$-3329063056561552456, %r14
	leaq	(%rbx,%rdx), %rax
	movabsq	$-3329063056561552456, %rbx
	addq	%rsi, %r13
	addq	%rbx, %rdi
	addq	%rdx, %rdi
	leaq	0(%r13,%rcx), %rdx
	movabsq	$-6657276164713376882, %r13
	addq	%r13, %r12
	rolq	$19, %rdi
	rolq	$7, %rax
	addq	%r12, %rcx
	rolq	$31, %rdx
	movq	%rdi, %r12
	rolq	$53, %rcx
	xorq	%rax, %r12
	movq	%rcx, %rsi
	xorq	%r12, %rcx
	xorq	%rdx, %r12
	xorq	%rdx, %rsi
	addq	%r12, %r11
	addq	%rcx, %r8
	xorq	%rsi, %rdi
	xorq	%rax, %rsi
	addq	%rdi, %r10
	addq	%rsi, %r9
	leaq	(%r10,%r11), %rdx
	leaq	(%r8,%r9), %rbx
	addq	%r14, %r8
	addq	%r15, %r9
	movabsq	$-5426079245872290139, %r15
	leaq	(%r8,%rdx), %r14
	movq	%r13, %r8
	addq	%r15, %r11
	addq	%r10, %r8
	leaq	(%r9,%rdx), %rax
	leaq	(%r11,%rbx), %rdx
	addq	%rbx, %r8
	rolq	$19, %r14
	movq	744(%rsp), %r9
	rolq	$53, %r8
	rolq	$7, %rax
	rolq	$31, %rdx
	movq	%r14, %r15
	movq	%r8, %r13
	movq	680(%rsp), %r11
	xorq	%rax, %r15
	xorq	%rdx, %r13
	xorq	%r13, %r14
	xorq	%r15, %r8
	xorq	%rax, %r13
	xorq	%rdx, %r15
	movq	616(%rsp), %rax
	movq	600(%rsp), %rdx
	addq	%r14, %r9
	addq	%r13, %r11
	addq	%r8, %rax
	addq	%r15, %rdx
	movq	%rax, 744(%rsp)
	leaq	(%r9,%rdx), %rbx
	movq	%rax, %r10
	movabsq	$-1087367646907149102, %rax
	addq	%r11, %r10
	addq	%rax, %r11
	leaq	(%r11,%rbx), %rax
	movabsq	$-3329063056561552456, %r11
	addq	744(%rsp), %r11
	rolq	$7, %rax
	addq	%rbx, %r11
	movabsq	$-5426079245872290139, %rbx
	addq	%rbx, %rdx
	movabsq	$-6657276164713376882, %rbx
	rolq	$19, %r11
	addq	%rbx, %r9
	addq	%r10, %rdx
	movq	%r11, %rbx
	addq	%r10, %r9
	rolq	$31, %rdx
	xorq	%rax, %rbx
	rolq	$53, %r9
	movq	%r9, %r10
	xorq	%rbx, %r9
	xorq	%rdx, %r10
	xorq	%rbx, %rdx
	xorq	%r10, %rax
	xorq	%r10, %r11
	movabsq	$1649971794476935487, %r10
	leaq	(%r9,%rax), %rbx
	addq	%r10, %rbx
	leaq	(%rdx,%r11), %r10
	movq	%r10, 744(%rsp)
	movabsq	$1915007920973660762, %r10
	addq	744(%rsp), %r10
	movq	%r10, 744(%rsp)
	movabsq	$9059564915322872455, %r10
	addq	%r10, %rdx
	movabsq	$-7724133909308953704, %r10
	addq	%rbx, %rdx
	addq	%r10, %r11
	movabsq	$3257124934342745045, %r10
	rolq	$11, %rdx
	addq	%rbx, %r11
	addq	%r10, %r9
	movabsq	$8809261046177890769, %rbx
	addq	744(%rsp), %r9
	rolq	$23, %r11
	addq	%rbx, %rax
	addq	744(%rsp), %rax
	movq	%r11, %r10
	xorq	%rdx, %r10
	rolq	$59, %r9
	rolq	$37, %rax
	movq	%r9, %rbx
	xorq	%r10, %r9
	xorq	%rax, %rbx
	xorq	%rax, %r10
	addq	%r9, %r14
	xorq	%rbx, %r11
	xorq	%rdx, %rbx
	addq	%r10, %r13
	addq	%rbx, %r15
	addq	%r11, %r8
	movq	%r11, 616(%rsp)
	leaq	(%r8,%r13), %rax
	leaq	(%r14,%r15), %r11
	movq	%rbx, 600(%rsp)
	movq	%r9, 744(%rsp)
	movabsq	$6220970056051541820, %rbx
	movq	%r10, 680(%rsp)
	movabsq	$-8247349341179448980, %rdx
	movabsq	$4195444129992158507, %r10
	movabsq	$7667772426219706969, %r9
	addq	%rbx, %r13
	addq	%r10, %r8
	addq	%rdx, %r15
	addq	%r14, %r9
	leaq	(%r15,%rax), %rdx
	movabsq	$-8247349341179448980, %r14
	addq	%rax, %r9
	leaq	0(%r13,%r11), %rax
	addq	%r8, %r11
	rolq	$23, %r9
	rolq	$59, %r11
	rolq	$11, %rdx
	rolq	$37, %rax
	movq	%r11, %r8
	movq	%r9, %r10
	xorq	%rax, %r8
	xorq	%rdx, %r10
	movabsq	$7667772426219706969, %r15
	xorq	%r8, %r9
	xorq	%r10, %r11
	xorq	%rdx, %r8
	xorq	%rax, %r10
	addq	%r9, %rcx
	addq	%r8, %r12
	leaq	(%r10,%rsi), %rax
	addq	%r11, %rdi
	leaq	(%rdi,%r12), %r13
	addq	%r14, %r12
	addq	%r15, %rdi
	leaq	(%rcx,%rax), %rsi
	addq	%rbx, %rax
	movabsq	$4195444129992158507, %rbx
	addq	%rbx, %rcx
	addq	%r13, %rax
	movq	712(%rsp), %r15
	leaq	(%r12,%rsi), %rdx
	addq	%rdi, %rsi
	leaq	(%rcx,%r13), %r12
	rolq	$23, %rsi
	movq	696(%rsp), %r13
	rolq	$37, %rax
	rolq	$11, %rdx
	movq	%rsi, %rbx
	rolq	$59, %r12
	xorq	%rdx, %rbx
	movq	%r12, %rdi
	xorq	%rbx, %r12
	xorq	%rax, %rdi
	xorq	%rax, %rbx
	addq	%r12, %r13
	xorq	%rdi, %rsi
	xorq	%rdx, %rdi
	movq	%r13, 712(%rsp)
	movq	728(%rsp), %r14
	addq	%rdi, %r15
	movq	664(%rsp), %rax
	movabsq	$-8247349341179448980, %rdx
	addq	%r15, %r13
	addq	%rdx, %r15
	addq	%rsi, %r14
	addq	%rbx, %rax
	leaq	(%r14,%rax), %rcx
	leaq	(%r15,%rcx), %rdx
	movabsq	$7667772426219706969, %r15
	addq	712(%rsp), %r15
	rolq	$11, %rdx
	addq	%rcx, %r15
	movabsq	$6220970056051541820, %rcx
	addq	%rcx, %rax
	rolq	$23, %r15
	leaq	(%rax,%r13), %rcx
	movabsq	$4195444129992158507, %rax
	addq	%rax, %r14
	rolq	$37, %rcx
	addq	%r13, %r14
	movq	%r15, %r13
	rolq	$59, %r14
	xorq	%rdx, %r13
	movq	%r14, %rax
	xorq	%r13, %r14
	xorq	%rcx, %rax
	xorq	%r13, %rcx
	movabsq	$-2922945419276229487, %r13
	xorq	%rax, %rdx
	xorq	%rax, %r15
	leaq	(%rdx,%r14), %rax
	addq	%r13, %rax
	leaq	(%r15,%rcx), %r13
	movq	%r13, 728(%rsp)
	movabsq	$9210284522589112667, %r13
	addq	728(%rsp), %r13
	movq	%r13, 728(%rsp)
	movabsq	$-1584252685182818982, %r13
	addq	%r13, %rcx
	movabsq	$6378106504303230091, %r13
	addq	%r13, %r15
	movabsq	$-3482973570042694885, %r13
	addq	%rax, %rcx
	addq	%r13, %r14
	addq	%r15, %rax
	addq	728(%rsp), %r14
	movabsq	$6923416813890349993, %r15
	rolq	$19, %rax
	rolq	$7, %rcx
	addq	%r15, %rdx
	addq	728(%rsp), %rdx
	movq	%rax, %r15
	xorq	%rcx, %r15
	rolq	$53, %r14
	movq	%r14, %r13
	xorq	%r15, %r14
	rolq	$31, %rdx
	addq	%r14, %rsi
	movq	%r14, 728(%rsp)
	xorq	%rdx, %r13
	xorq	%r15, %rdx
	movq	%r14, preCompInternalState(%rip)
	xorq	%r13, %rax
	movq	%r13, %r15
	addq	%rdx, %rdi
	xorq	%rcx, %r15
	addq	%rax, %r12
	movabsq	$-1087367646907149102, %rcx
	leaq	(%r12,%rdi), %r14
	addq	%r15, %rbx
	movq	%rdx, preCompInternalState+8(%rip)
	leaq	(%rsi,%rbx), %r13
	addq	%rcx, %rbx
	movq	%rax, preCompInternalState+16(%rip)
	leaq	(%rbx,%r14), %rcx
	movabsq	$-3329063056561552456, %rbx
	movq	%r15, preCompInternalState+24(%rip)
	rolq	$7, %rcx
	addq	%rbx, %rsi
	movabsq	$-6657276164713376882, %rbx
	addq	%r14, %rsi
	movabsq	$-5426079245872290139, %r14
	addq	%rbx, %r12
	addq	%r14, %rdi
	rolq	$19, %rsi
	addq	%r13, %rdi
	addq	%r12, %r13
	movq	%rsi, %r14
	rolq	$53, %r13
	rolq	$31, %rdi
	xorq	%rcx, %r14
	movq	%r13, %rbx
	xorq	%r14, %r13
	xorq	%rdi, %r14
	xorq	%rdi, %rbx
	addq	%r13, %r9
	addq	%r14, %r8
	xorq	%rbx, %rsi
	xorq	%rcx, %rbx
	movabsq	$-3329063056561552456, %rdi
	addq	%rbx, %r10
	addq	%rsi, %r11
	movq	%rsi, 664(%rsp)
	movabsq	$-1087367646907149102, %rsi
	leaq	(%r9,%r10), %rcx
	addq	%r9, %rdi
	addq	%r10, %rsi
	movq	%rbx, 584(%rsp)
	movabsq	$-5426079245872290139, %r9
	leaq	(%r11,%r8), %rbx
	movabsq	$-6657276164713376882, %r10
	addq	%r9, %r8
	addq	%r10, %r11
	addq	%rcx, %r8
	movq	%r13, 712(%rsp)
	addq	%rbx, %rdi
	addq	%r11, %rcx
	addq	%rbx, %rsi
	rolq	$19, %rdi
	rolq	$53, %rcx
	rolq	$7, %rsi
	rolq	$31, %r8
	movq	%rdi, %r10
	movq	%rcx, %r9
	xorq	%rsi, %r10
	xorq	%r8, %r9
	movq	600(%rsp), %rbx
	xorq	%r10, %rcx
	xorq	%r9, %rdi
	xorq	%r9, %rsi
	movq	744(%rsp), %r9
	xorq	%r10, %r8
	movq	%rcx, %r11
	movq	680(%rsp), %r10
	addq	616(%rsp), %r11
	addq	%r8, %rbx
	movq	%rcx, 568(%rsp)
	movq	%r14, 696(%rsp)
	movabsq	$-3329063056561552456, %rcx
	addq	%rdi, %r9
	movabsq	$-1087367646907149102, %r14
	leaq	(%r9,%rbx), %r13
	addq	%rsi, %r10
	leaq	(%r11,%r10), %r12
	addq	%r14, %r10
	addq	%rcx, %r11
	movabsq	$-6657276164713376882, %r14
	addq	%r13, %r10
	addq	%r13, %r11
	addq	%r14, %r9
	movabsq	$-5426079245872290139, %r13
	rolq	$19, %r11
	addq	%r13, %rbx
	addq	%r12, %r9
	rolq	$7, %r10
	addq	%r12, %rbx
	rolq	$53, %r9
	movq	%r11, %r13
	rolq	$31, %rbx
	movq	%r9, %r12
	xorq	%r10, %r13
	xorq	%rbx, %r12
	xorq	%r13, %r9
	xorq	%r13, %rbx
	xorq	%r12, %r11
	xorq	%r12, %r10
	movabsq	$-5486504877919021346, %r13
	movabsq	$853475092736589577, %r12
	movabsq	$-4925106476758491821, %r14
	movabsq	$1906713845121804688, %rcx
	addq	%r11, %r13
	addq	%r9, %rcx
	addq	%r10, %r14
	addq	%rbx, %r12
	movq	%r13, InternalState+104(%rip)
	movq	%r14, InternalState+112(%rip)
	movq	%r12, InternalState+96(%rip)
	addq	%rcx, %r14
	addq	%r13, %r12
	movq	%rcx, InternalState+120(%rip)
	movabsq	$2181267548300685623, %r13
	movabsq	$-7393874248442859403, %rcx
	addq	%rcx, %rbx
	addq	%r13, %r11
	movabsq	$1295863579293049999, %rcx
	addq	%r14, %rbx
	addq	%r11, %r14
	movabsq	$6102157975113963195, %r11
	addq	%r11, %r9
	addq	%rcx, %r10
	rolq	$23, %r14
	addq	%r12, %r10
	addq	%r9, %r12
	movq	%r14, %r9
	rolq	$59, %r12
	rolq	$37, %r10
	rolq	$11, %rbx
	movq	%r12, %r13
	xorq	%rbx, %r9
	movabsq	$7667772426219706969, %r11
	xorq	%r10, %r13
	xorq	%r9, %r12
	xorq	%r9, %r10
	xorq	%r13, %r14
	xorq	%r13, %rbx
	movq	%r12, preCompInternalState+112(%rip)
	movq	%r14, preCompInternalState+96(%rip)
	addq	568(%rsp), %r14
	addq	%rdi, %r12
	movq	%rbx, preCompInternalState+104(%rip)
	movq	%r10, preCompInternalState+120(%rip)
	addq	%r8, %rbx
	addq	%rsi, %r10
	leaq	(%r12,%rbx), %r9
	movabsq	$-8247349341179448980, %r13
	movabsq	$4195444129992158507, %r8
	movabsq	$7667772426219706969, %rsi
	movabsq	$6220970056051541820, %rdi
	leaq	(%r14,%r10), %rcx
	movq	%rbx, InternalState+64(%rip)
	movq	%r12, InternalState+72(%rip)
	addq	%r13, %rbx
	addq	%rsi, %r12
	movq	%r10, InternalState+80(%rip)
	movq	%r14, InternalState+88(%rip)
	addq	%rdi, %r10
	addq	%r8, %r14
	addq	%rcx, %rbx
	addq	%r9, %r10
	addq	%r12, %rcx
	addq	%r14, %r9
	rolq	$11, %rbx
	rolq	$23, %rcx
	rolq	$37, %r10
	rolq	$59, %r9
	movq	%rcx, %rsi
	movq	%r9, %rdi
	xorq	%rbx, %rsi
	movabsq	$6220970056051541820, %r12
	xorq	%r10, %rdi
	xorq	%rsi, %r9
	xorq	%rsi, %r10
	xorq	%rdi, %rbx
	movq	%r9, preCompInternalState+80(%rip)
	xorq	%rdi, %rcx
	movq	%rbx, preCompInternalState+72(%rip)
	addq	664(%rsp), %r9
	addq	696(%rsp), %rbx
	movq	%rcx, preCompInternalState+64(%rip)
	movq	%r10, preCompInternalState+88(%rip)
	addq	712(%rsp), %rcx
	addq	584(%rsp), %r10
	movq	520(%rsp), %r14
	movq	%r9, InternalState+40(%rip)
	leaq	(%r9,%rbx), %rsi
	movq	%rbx, InternalState+32(%rip)
	addq	%r11, %r9
	movq	%rcx, InternalState+56(%rip)
	addq	%r13, %rbx
	movq	648(%rsp), %r13
	movq	%r10, InternalState+48(%rip)
	leaq	(%rcx,%r10), %rdi
	addq	%r8, %rcx
	addq	%r12, %r10
	addq	%rsi, %r10
	addq	%rcx, %rsi
	addq	%rdi, %rbx
	rolq	$59, %rsi
	addq	%r9, %rdi
	rolq	$37, %r10
	movq	%rsi, %rcx
	rolq	$23, %rdi
	rolq	$11, %rbx
	xorq	%r10, %rcx
	movq	%rdi, %r8
	movabsq	$7860495443403156170, %r9
	xorq	%rcx, %rdi
	xorq	%rbx, %r8
	xorq	%rcx, %rbx
	movq	%rdi, preCompInternalState+32(%rip)
	addq	728(%rsp), %rdi
	xorq	%r8, %rsi
	xorq	%r8, %r10
	movq	%rbx, preCompInternalState+40(%rip)
	movq	%rsi, preCompInternalState+48(%rip)
	movq	%r10, preCompInternalState+56(%rip)
	addq	%rax, %rsi
	addq	%r15, %r10
	addq	%rdx, %rbx
	movq	%rsi, InternalState+8(%rip)
	movq	%r10, InternalState+16(%rip)
	movq	%rbx, InternalState(%rip)
	movq	%rdi, InternalState+24(%rip)
	movabsq	$-8247349341179448980, %r15
	xorq	0(%r13), %rbx
	movabsq	$-3833335565246798826, %r10
	movq	%rbx, InternalState(%rip)
	movq	%rbx, 64(%r14)
	movabsq	$4195444129992158507, %rbx
	movq	8(%r13), %rax
	xorq	InternalState+8(%rip), %rax
	movq	%rax, InternalState+8(%rip)
	movq	%rax, 72(%r14)
	movq	16(%r13), %rax
	xorq	InternalState+16(%rip), %rax
	movq	%rax, InternalState+16(%rip)
	movq	%rax, 80(%r14)
	movq	24(%r13), %rax
	xorq	InternalState+24(%rip), %rax
	movq	%rax, InternalState+24(%rip)
	movq	%rax, 88(%r14)
	movq	32(%r13), %rax
	xorq	InternalState+64(%rip), %rax
	movq	%rax, InternalState+64(%rip)
	movq	%rax, 96(%r14)
	movq	40(%r13), %rax
	xorq	InternalState+72(%rip), %rax
	movq	%rax, InternalState+72(%rip)
	movq	%rax, 104(%r14)
	movq	48(%r13), %rax
	xorq	InternalState+80(%rip), %rax
	movq	%rax, InternalState+80(%rip)
	movq	%rax, 112(%r14)
	movq	56(%r13), %rax
	xorq	InternalState+88(%rip), %rax
	movabsq	$-6802927476391842224, %r13
	movq	%rax, InternalState+88(%rip)
	movq	%rax, 120(%r14)
	movabsq	$2580067509209331373, %r14
	movq	InternalState(%rip), %rcx
	movq	InternalState+8(%rip), %rdi
	movq	InternalState+16(%rip), %rax
	movq	InternalState+24(%rip), %rsi
	leaq	(%rdi,%rcx), %rdx
	addq	%r11, %rdi
	addq	%r15, %rcx
	leaq	(%rsi,%rax), %r8
	addq	%rbx, %rsi
	addq	%r12, %rax
	addq	%rdx, %rsi
	addq	%rdx, %rax
	movabsq	$-6792583489299504353, %r12
	addq	%r8, %rdi
	addq	%r8, %rcx
	rolq	$59, %rsi
	rolq	$23, %rdi
	rolq	$11, %rcx
	rolq	$37, %rax
	movq	%rsi, %r8
	movq	%rdi, %rdx
	movabsq	$-1457182779415996031, %r11
	xorq	%rax, %r8
	xorq	%rcx, %rdx
	movabsq	$-8247349341179448980, %rbx
	xorq	%rdx, %rsi
	xorq	%r8, %rcx
	xorq	%r8, %rdi
	leaq	(%rcx,%rsi), %r8
	xorq	%rdx, %rax
	leaq	(%rdi,%rax), %rdx
	addq	%r12, %rdi
	addq	%r11, %rax
	addq	%r9, %r8
	movabsq	$6220970056051541820, %r9
	movabsq	$-3329063056561552456, %r12
	leaq	(%rdi,%r8), %r15
	addq	%r8, %rax
	addq	%r10, %rdx
	rolq	$7, %rax
	movabsq	$7667772426219706969, %r8
	movabsq	$4195444129992158507, %r10
	rolq	$19, %r15
	addq	%r13, %rcx
	addq	%r14, %rsi
	addq	%rdx, %rsi
	addq	%rdx, %rcx
	movq	%r15, %rdi
	rolq	$53, %rsi
	rolq	$31, %rcx
	xorq	%rax, %rdi
	movq	%rsi, %rdx
	xorq	%rdi, %rsi
	xorq	%rcx, %rdi
	xorq	%rcx, %rdx
	movq	InternalState+40(%rip), %rcx
	movq	%rsi, 728(%rsp)
	xorq	%rdx, %r15
	xorq	%rax, %rdx
	movq	InternalState+48(%rip), %rax
	movq	%r15, 696(%rsp)
	movq	%rdx, 664(%rsp)
	movabsq	$-1087367646907149102, %r11
	movq	InternalState+32(%rip), %rdx
	movq	InternalState+56(%rip), %r15
	movabsq	$-5426079245872290139, %r14
	movq	%rdi, 712(%rsp)
	leaq	(%rcx,%rdx), %rsi
	leaq	(%r15,%rax), %rdi
	addq	%r8, %rcx
	addq	%r10, %r15
	addq	%rbx, %rdx
	addq	%r9, %rax
	addq	%rdi, %rcx
	addq	%rsi, %r15
	addq	%rdi, %rdx
	rolq	$23, %rcx
	addq	%rsi, %rax
	rolq	$59, %r15
	rolq	$11, %rdx
	rolq	$37, %rax
	movq	%r15, %r13
	movq	%rcx, %rsi
	xorq	%rax, %r13
	movabsq	$-6657276164713376882, %rbx
	xorq	%rdx, %rsi
	xorq	%r13, %rdx
	xorq	%rcx, %r13
	addq	712(%rsp), %rdx
	xorq	%rsi, %r15
	xorq	%rsi, %rax
	addq	696(%rsp), %r15
	addq	664(%rsp), %rax
	movabsq	$7667772426219706969, %r10
	addq	728(%rsp), %r13
	movq	InternalState+88(%rip), %rdi
	movabsq	$-8247349341179448980, %r9
	leaq	(%r15,%rdx), %rsi
	addq	%rbx, %r15
	addq	%r14, %rdx
	leaq	0(%r13,%rax), %rcx
	addq	%r12, %r13
	addq	%r11, %rax
	addq	%rsi, %r13
	addq	%rsi, %rax
	movabsq	$4195444129992158507, %rbx
	addq	%rcx, %r15
	rolq	$19, %r13
	addq	%rcx, %rdx
	rolq	$53, %r15
	rolq	$7, %rax
	rolq	$31, %rdx
	movq	%r13, %r12
	movq	%r15, %r14
	movq	InternalState+72(%rip), %rcx
	xorq	%rax, %r12
	xorq	%rdx, %r14
	movabsq	$6220970056051541820, %r11
	xorq	%r12, %r15
	xorq	%r14, %r13
	xorq	%rdx, %r12
	xorq	%rax, %r14
	movq	InternalState+64(%rip), %rdx
	movq	InternalState+80(%rip), %rax
	leaq	(%rcx,%rdx), %rsi
	leaq	(%rdi,%rax), %r8
	addq	%r10, %rcx
	addq	%rbx, %rdi
	addq	%r9, %rdx
	addq	%r11, %rax
	addq	%r8, %rcx
	addq	%rsi, %rdi
	addq	%r8, %rdx
	rolq	$23, %rcx
	addq	%rsi, %rax
	rolq	$59, %rdi
	rolq	$37, %rax
	rolq	$11, %rdx
	movq	%rdi, %r9
	movq	%rcx, %rsi
	xorq	%rax, %r9
	movabsq	$-6657276164713376882, %rbx
	xorq	%rdx, %rsi
	xorq	%r9, %rdx
	xorq	%rcx, %r9
	xorq	%rsi, %rax
	addq	%r15, %r9
	xorq	%rsi, %rdi
	addq	%r14, %rax
	addq	%r12, %rdx
	addq	%r13, %rdi
	leaq	(%r9,%rax), %rcx
	leaq	(%rdi,%rdx), %rsi
	movabsq	$-3329063056561552456, %r10
	addq	%rbx, %rdi
	movabsq	$-5426079245872290139, %r11
	addq	%r10, %r9
	addq	%r11, %rdx
	addq	%rcx, %rdi
	movabsq	$-1087367646907149102, %r8
	addq	%r8, %rax
	addq	%rsi, %r9
	addq	%rcx, %rdx
	rolq	$53, %rdi
	rolq	$31, %rdx
	addq	%rsi, %rax
	rolq	$19, %r9
	movq	%rdi, %r8
	rolq	$7, %rax
	xorq	%rdx, %r8
	movq	InternalState+96(%rip), %rcx
	movq	InternalState+104(%rip), %rsi
	movq	%r9, %r10
	movq	InternalState+120(%rip), %rbx
	xorq	%r8, %r9
	xorq	%rax, %r10
	xorq	%rax, %r8
	movq	InternalState+112(%rip), %rax
	xorq	%r10, %rdi
	xorq	%rdx, %r10
	movabsq	$-8247349341179448980, %rdx
	leaq	(%rsi,%rcx), %r11
	addq	%rdx, %rcx
	movabsq	$7667772426219706969, %rdx
	addq	%rax, %rbx
	addq	%rdx, %rsi
	movabsq	$4195444129992158507, %rdx
	addq	%rbx, %rcx
	addq	%rbx, %rsi
	movabsq	$6220970056051541820, %rbx
	rolq	$11, %rcx
	rolq	$23, %rsi
	addq	%rbx, %rax
	addq	InternalState+120(%rip), %rdx
	addq	%r11, %rax
	movq	%rsi, %rbx
	rolq	$37, %rax
	xorq	%rcx, %rbx
	addq	%r11, %rdx
	rolq	$59, %rdx
	movq	%rdx, %r11
	xorq	%rbx, %rdx
	xorq	%rax, %r11
	addq	%r9, %rdx
	xorq	%rbx, %rax
	xorq	%r11, %rcx
	xorq	%r11, %rsi
	addq	%r8, %rax
	addq	%rdi, %rsi
	addq	%r10, %rcx
	movq	%rsi, 680(%rsp)
	leaq	(%rdx,%rcx), %rbx
	movq	%rsi, %r11
	movabsq	$-1087367646907149102, %rsi
	addq	%rax, %r11
	addq	%rax, %rsi
	leaq	(%rsi,%rbx), %rax
	movabsq	$-3329063056561552456, %rsi
	addq	680(%rsp), %rsi
	rolq	$7, %rax
	addq	%rbx, %rsi
	movabsq	$-5426079245872290139, %rbx
	addq	%rbx, %rcx
	movabsq	$-6657276164713376882, %rbx
	rolq	$19, %rsi
	addq	%rbx, %rdx
	addq	%r11, %rcx
	movq	%rsi, %rbx
	addq	%r11, %rdx
	rolq	$31, %rcx
	xorq	%rax, %rbx
	rolq	$53, %rdx
	movq	%rdx, %r11
	xorq	%rbx, %rdx
	xorq	%rcx, %r11
	xorq	%rbx, %rcx
	xorq	%r11, %rsi
	xorq	%r11, %rax
	movabsq	$-3210636887397455352, %r11
	leaq	(%rdx,%rax), %rbx
	addq	%r11, %rbx
	leaq	(%rcx,%rsi), %r11
	movq	%r11, 744(%rsp)
	movabsq	$5597446114060141266, %r11
	addq	744(%rsp), %r11
	movq	%r11, 744(%rsp)
	movabsq	$2199824780781266189, %r11
	addq	%r11, %rcx
	movabsq	$2818044418319133066, %r11
	addq	%r11, %rsi
	movabsq	$2553129884740551573, %r11
	addq	%rbx, %rcx
	addq	%rbx, %rsi
	addq	%r11, %rdx
	movabsq	$4652647413905693402, %rbx
	addq	744(%rsp), %rdx
	addq	%rbx, %rax
	addq	744(%rsp), %rax
	rolq	$23, %rsi
	rolq	$11, %rcx
	movq	%rsi, %r11
	xorq	%rcx, %r11
	rolq	$59, %rdx
	rolq	$37, %rax
	movq	%rdx, %rbx
	xorq	%r11, %rdx
	xorq	%rax, %r11
	xorq	%rax, %rbx
	addq	%rdx, %r9
	addq	%r11, %r8
	xorq	%rbx, %rsi
	xorq	%rcx, %rbx
	movq	%rdx, 744(%rsp)
	addq	%rbx, %r10
	movq	%rsi, 616(%rsp)
	addq	%rdi, %rsi
	leaq	(%rsi,%r8), %rax
	leaq	(%r9,%r10), %rcx
	movq	%rbx, 600(%rsp)
	movabsq	$-8247349341179448980, %rdx
	movabsq	$6220970056051541820, %rbx
	movabsq	$7667772426219706969, %rdi
	addq	%rbx, %r8
	addq	%rdx, %r10
	addq	%r9, %rdi
	leaq	(%r10,%rax), %rdx
	addq	%rax, %rdi
	movabsq	$4195444129992158507, %r9
	leaq	(%r8,%rcx), %rax
	addq	%rsi, %r9
	rolq	$23, %rdi
	rolq	$11, %rdx
	movq	%rdi, %r8
	movq	%r11, 680(%rsp)
	rolq	$37, %rax
	addq	%rcx, %r9
	xorq	%rdx, %r8
	rolq	$59, %r9
	movq	%r9, %r10
	xorq	%r8, %r9
	xorq	%rax, %r8
	xorq	%rax, %r10
	leaq	(%r8,%r14), %rax
	leaq	(%r9,%r13), %r11
	xorq	%r10, %rdi
	xorq	%rdx, %r10
	movabsq	$-8247349341179448980, %r13
	leaq	(%rdi,%r15), %rsi
	addq	%r10, %r12
	movabsq	$7667772426219706969, %r14
	leaq	(%r11,%r12), %rcx
	addq	%r13, %r12
	addq	%r14, %r11
	leaq	(%rsi,%rax), %rbx
	movabsq	$6220970056051541820, %r15
	addq	%r15, %rax
	movq	712(%rsp), %r15
	leaq	(%r12,%rbx), %rdx
	movabsq	$4195444129992158507, %r12
	addq	%rbx, %r11
	addq	%rsi, %r12
	rolq	$23, %r11
	addq	%rcx, %rax
	addq	%rcx, %r12
	rolq	$11, %rdx
	movq	%r11, %rbx
	rolq	$59, %r12
	rolq	$37, %rax
	xorq	%rdx, %rbx
	movq	%r12, %r13
	xorq	%rbx, %r12
	xorq	%rax, %rbx
	xorq	%rax, %r13
	movq	696(%rsp), %rax
	movq	728(%rsp), %rsi
	xorq	%r13, %r11
	xorq	%rdx, %r13
	movabsq	$-8247349341179448980, %rcx
	addq	%r13, %r15
	addq	%r12, %rax
	addq	%r11, %rsi
	movq	%rax, 712(%rsp)
	movq	664(%rsp), %rax
	movq	712(%rsp), %rdx
	addq	%rbx, %rax
	leaq	(%rsi,%rax), %r14
	addq	%r15, %rdx
	addq	%rcx, %r15
	leaq	(%r15,%r14), %rcx
	movabsq	$7667772426219706969, %r15
	rolq	$11, %rcx
	addq	712(%rsp), %r15
	addq	%r14, %r15
	movabsq	$6220970056051541820, %r14
	addq	%r14, %rax
	movabsq	$4195444129992158507, %r14
	rolq	$23, %r15
	addq	%r14, %rsi
	addq	%rdx, %rax
	movq	%r15, %r14
	addq	%rdx, %rsi
	rolq	$37, %rax
	xorq	%rcx, %r14
	rolq	$59, %rsi
	movq	%rsi, %rdx
	xorq	%r14, %rsi
	xorq	%rax, %rdx
	xorq	%r14, %rax
	movabsq	$6175231417442077265, %r14
	xorq	%rdx, %rcx
	xorq	%rdx, %r15
	leaq	(%rcx,%rsi), %rdx
	addq	%r14, %rdx
	leaq	(%r15,%rax), %r14
	movq	%r14, 728(%rsp)
	movabsq	$1022059294516476377, %r14
	addq	728(%rsp), %r14
	movq	%r14, 728(%rsp)
	movabsq	$-6093410837277433488, %r14
	addq	%r14, %rax
	movabsq	$2699039428325208307, %r14
	addq	%r14, %r15
	movabsq	$1810550724721602985, %r14
	addq	%rdx, %rax
	addq	%r14, %rsi
	addq	%r15, %rdx
	addq	728(%rsp), %rsi
	movabsq	$-7718674717865192741, %r15
	rolq	$19, %rdx
	rolq	$7, %rax
	addq	%r15, %rcx
	addq	728(%rsp), %rcx
	movq	%rdx, %r15
	xorq	%rax, %r15
	rolq	$53, %rsi
	movq	%rsi, %r14
	xorq	%r15, %rsi
	rolq	$31, %rcx
	movq	%rsi, 728(%rsp)
	xorq	%rcx, %r14
	xorq	%rcx, %r15
	xorq	%r14, %rdx
	xorq	%rax, %r14
	addq	%r15, %r13
	movq	%rdx, %rcx
	addq	%r14, %rbx
	addq	%rsi, %r11
	addq	%r12, %rcx
	movq	%r15, 712(%rsp)
	movq	%rdx, 696(%rsp)
	movabsq	$-1087367646907149102, %r15
	leaq	(%rcx,%r13), %rdx
	leaq	(%r11,%rbx), %rsi
	addq	%r15, %rbx
	movq	%r14, 664(%rsp)
	movabsq	$-3329063056561552456, %r14
	leaq	(%rbx,%rdx), %rax
	movabsq	$-3329063056561552456, %rbx
	addq	%rbx, %r11
	leaq	(%r11,%rdx), %r12
	movabsq	$-5426079245872290139, %r11
	rolq	$7, %rax
	addq	%r11, %r13
	movabsq	$-6657276164713376882, %r11
	addq	%rcx, %r11
	leaq	0(%r13,%rsi), %rdx
	rolq	$19, %r12
	addq	%rsi, %r11
	movq	%r12, %r13
	rolq	$53, %r11
	rolq	$31, %rdx
	xorq	%rax, %r13
	movq	%r11, %rbx
	xorq	%r13, %r11
	xorq	%rdx, %r13
	xorq	%rdx, %rbx
	addq	%r13, %r10
	addq	%r11, %rdi
	xorq	%rbx, %r12
	xorq	%rax, %rbx
	leaq	(%r12,%r9), %rcx
	addq	%rbx, %r8
	leaq	(%rdi,%r8), %rsi
	addq	%r14, %rdi
	addq	%r15, %r8
	leaq	(%rcx,%r10), %rdx
	movabsq	$-5426079245872290139, %r15
	addq	%r15, %r10
	leaq	(%rdi,%rdx), %r9
	movabsq	$-6657276164713376882, %rdi
	leaq	(%r8,%rdx), %rax
	addq	%rcx, %rdi
	leaq	(%r10,%rsi), %rdx
	movq	600(%rsp), %rcx
	addq	%rsi, %rdi
	rolq	$19, %r9
	rolq	$7, %rax
	rolq	$53, %rdi
	rolq	$31, %rdx
	movq	%r9, %r10
	movq	%rdi, %r8
	xorq	%rax, %r10
	movq	680(%rsp), %rsi
	xorq	%rdx, %r8
