	.syntax unified
	.cpu cortex-a15
	.eabi_attribute 27, 3	@ Tag_ABI_HardFP_use
	.eabi_attribute 28, 1	@ Tag_ABI_VFP_args
	.fpu neon
	.eabi_attribute 20, 1	@ Tag_ABI_FP_denormal
	.eabi_attribute 21, 1	@ Tag_ABI_FP_exceptions
	.eabi_attribute 23, 3	@ Tag_ABI_FP_number_model
	.eabi_attribute 24, 1	@ Tag_ABI_align8_needed
	.eabi_attribute 25, 1	@ Tag_ABI_align8_preserved
	.eabi_attribute 26, 2	@ Tag_ABI_enum_size
	.eabi_attribute 30, 2	@ Tag_ABI_optimization_goals
	.eabi_attribute 34, 1	@ Tag_CPU_unaligned_access
	.eabi_attribute 18, 4	@ Tag_ABI_PCS_wchar_t
	.file	"scream.c"
@ GNU C (Debian 4.7.2-5) version 4.7.2 (arm-linux-gnueabihf)
@	compiled by GNU C version 4.7.2, GMP version 5.0.5, MPFR version 3.1.0-p10, MPC version 0.9
@ GGC heuristics: --param ggc-min-expand=100 --param ggc-min-heapsize=131072
@ options passed:  -imultilib . -imultiarch arm-linux-gnueabihf
@ crypto_aead/scream12v2/neon/scream.c -mcpu=cortex-a15 -mtune=cortex-a15
@ -mfpu=neon -mfloat-abi=hard -mthumb -mtls-dialect=gnu
@ -auxbase-strip crypto_aead/scream12v2/neon/scream.s -g -O3 -Wall -Wextra
@ -std=c99 -fno-schedule-insns -fomit-frame-pointer -funroll-loops
@ -fpeel-loops -fverbose-asm
@ options enabled:  -fauto-inc-dec -fbranch-count-reg -fcaller-saves
@ -fcombine-stack-adjustments -fcommon -fcompare-elim -fcprop-registers
@ -fcrossjumping -fcse-follow-jumps -fdebug-types-section -fdefer-pop
@ -fdelete-null-pointer-checks -fdevirtualize -fdwarf2-cfi-asm
@ -fearly-inlining -feliminate-unused-debug-types -fexpensive-optimizations
@ -fforward-propagate -ffunction-cse -fgcse -fgcse-after-reload -fgcse-lm
@ -fgnu-runtime -fguess-branch-probability -fident -fif-conversion
@ -fif-conversion2 -findirect-inlining -finline -finline-atomics
@ -finline-functions -finline-functions-called-once
@ -finline-small-functions -fipa-cp -fipa-cp-clone -fipa-profile
@ -fipa-pure-const -fipa-reference -fipa-sra -fira-share-save-slots
@ -fira-share-spill-slots -fivopts -fkeep-static-consts
@ -fleading-underscore -fmath-errno -fmerge-constants -fmerge-debug-strings
@ -fmove-loop-invariants -fomit-frame-pointer -foptimize-register-move
@ -foptimize-sibling-calls -foptimize-strlen -fpartial-inlining
@ -fpeel-loops -fpeephole -fpeephole2 -fpredictive-commoning
@ -fprefetch-loop-arrays -freg-struct-return -fregmove -frename-registers
@ -freorder-blocks -freorder-functions -frerun-cse-after-loop
@ -fsched-critical-path-heuristic -fsched-dep-count-heuristic
@ -fsched-group-heuristic -fsched-interblock -fsched-last-insn-heuristic
@ -fsched-rank-heuristic -fsched-spec -fsched-spec-insn-heuristic
@ -fsched-stalled-insns-dep -fschedule-insns2 -fsection-anchors
@ -fshow-column -fshrink-wrap -fsigned-zeros -fsplit-ivs-in-unroller
@ -fsplit-wide-types -fstrict-aliasing -fstrict-overflow
@ -fstrict-volatile-bitfields -fthread-jumps -ftoplevel-reorder
@ -ftrapping-math -ftree-bit-ccp -ftree-builtin-call-dce -ftree-ccp
@ -ftree-ch -ftree-copy-prop -ftree-copyrename -ftree-cselim -ftree-dce
@ -ftree-dominator-opts -ftree-dse -ftree-forwprop -ftree-fre
@ -ftree-loop-distribute-patterns -ftree-loop-if-convert -ftree-loop-im
@ -ftree-loop-ivcanon -ftree-loop-optimize -ftree-parallelize-loops=
@ -ftree-phiprop -ftree-pre -ftree-pta -ftree-reassoc -ftree-scev-cprop
@ -ftree-sink -ftree-slp-vectorize -ftree-sra -ftree-switch-conversion
@ -ftree-tail-merge -ftree-ter -ftree-vect-loop-version -ftree-vectorize
@ -ftree-vrp -funit-at-a-time -funroll-loops -funswitch-loops
@ -fvar-tracking -fvar-tracking-assignments -fverbose-asm -fweb
@ -fzero-initialized-in-bss -mglibc -mlittle-endian -msched-prolog -mthumb
@ -munaligned-access -mvectorize-with-neon-quad

	.text
.Ltext0:
	.cfi_sections	.debug_frame
	.align	2
	.global	write128
	.thumb
	.thumb_func
	.type	write128, %function
write128:
.LFB1886:
	.file 1 "crypto_aead/scream12v2/neon/helper.h"
	.loc 1 3 0
	.cfi_startproc
	@ args = 4, pretend = 0, frame = 32
	@ frame_needed = 0, uses_anonymous_args = 0
	@ link register save eliminated.
.LVL0:
	push	{r4}	@
.LCFI0:
	.cfi_def_cfa_offset 4
	.cfi_offset 4, -4
	fstmfdd	sp!, {d8, d9, d10, d11, d12, d13, d14, d15}	@,
.LCFI1:
	.cfi_def_cfa_offset 68
	.cfi_offset 80, -68
	.cfi_offset 82, -60
	.cfi_offset 84, -52
	.cfi_offset 86, -44
	.cfi_offset 88, -36
	.cfi_offset 90, -28
	.cfi_offset 92, -20
	.cfi_offset 94, -12
.LBB802:
.LBB803:
.LBB804:
	.file 2 "/usr/lib/gcc/arm-linux-gnueabihf/4.7/include/arm_neon.h"
	.loc 2 7648 0
	vldmia	r0, {d2-d3}	@ *in128_1(D), tmp474
	vldr	d24, [r0, #64]	@, MEM[(v16qu *)in128_1(D) + 64B]
	vldr	d25, [r0, #72]	@, MEM[(v16qu *)in128_1(D) + 64B]
.LBE804:
.LBE803:
.LBE802:
.LBB807:
.LBB808:
.LBB809:
	vldr	d6, [r0, #128]	@, MEM[(v16qu *)in128_1(D) + 128B]
	vldr	d7, [r0, #136]	@, MEM[(v16qu *)in128_1(D) + 128B]
	vldr	d20, [r0, #192]	@, MEM[(v16qu *)in128_1(D) + 192B]
	vldr	d21, [r0, #200]	@, MEM[(v16qu *)in128_1(D) + 192B]
.LBE809:
.LBE808:
.LBE807:
.LBB812:
.LBB813:
.LBB814:
	vldr	d30, [r0, #16]	@, MEM[(v16qu *)in128_1(D) + 16B]
	vldr	d31, [r0, #24]	@, MEM[(v16qu *)in128_1(D) + 16B]
	vldr	d18, [r0, #80]	@, MEM[(v16qu *)in128_1(D) + 80B]
	vldr	d19, [r0, #88]	@, MEM[(v16qu *)in128_1(D) + 80B]
.LBE814:
.LBE813:
.LBE812:
.LBB817:
.LBB818:
.LBB819:
	vldr	d28, [r0, #144]	@, MEM[(v16qu *)in128_1(D) + 144B]
	vldr	d29, [r0, #152]	@, MEM[(v16qu *)in128_1(D) + 144B]
	vldr	d16, [r0, #208]	@, MEM[(v16qu *)in128_1(D) + 208B]
	vldr	d17, [r0, #216]	@, MEM[(v16qu *)in128_1(D) + 208B]
.LBE819:
.LBE818:
.LBE817:
.LBB822:
.LBB823:
.LBB824:
	vldr	d0, [r0, #32]	@, MEM[(v16qu *)in128_1(D) + 32B]
	vldr	d1, [r0, #40]	@, MEM[(v16qu *)in128_1(D) + 32B]
	vldr	d26, [r0, #96]	@, MEM[(v16qu *)in128_1(D) + 96B]
	vldr	d27, [r0, #104]	@, MEM[(v16qu *)in128_1(D) + 96B]
.LBE824:
.LBE823:
.LBE822:
.LBB827:
.LBB828:
.LBB829:
	vldr	d4, [r0, #160]	@, MEM[(v16qu *)in128_1(D) + 160B]
	vldr	d5, [r0, #168]	@, MEM[(v16qu *)in128_1(D) + 160B]
	vldr	d22, [r0, #224]	@, MEM[(v16qu *)in128_1(D) + 224B]
	vldr	d23, [r0, #232]	@, MEM[(v16qu *)in128_1(D) + 224B]
.LBE829:
.LBE828:
.LBE827:
.LBB832:
.LBB833:
.LBB834:
	vldr	d10, [r0, #48]	@, MEM[(v16qu *)in128_1(D) + 48B]
	vldr	d11, [r0, #56]	@, MEM[(v16qu *)in128_1(D) + 48B]
	vldr	d8, [r0, #112]	@, MEM[(v16qu *)in128_1(D) + 112B]
	vldr	d9, [r0, #120]	@, MEM[(v16qu *)in128_1(D) + 112B]
.LBE834:
.LBE833:
.LBE832:
.LBB837:
.LBB838:
.LBB839:
	vldr	d14, [r0, #176]	@, MEM[(v16qu *)in128_1(D) + 176B]
	vldr	d15, [r0, #184]	@, MEM[(v16qu *)in128_1(D) + 176B]
.LBE839:
.LBE838:
.LBE837:
.LBB844:
.LBB806:
.LBB805:
	vzip.8	q1, q12	@ tmp474, c__$val$1
.LVL1:
.LBE805:
.LBE806:
.LBE844:
.LBB845:
.LBB811:
.LBB810:
	vzip.8	q3, q10	@ tmp479, c__$val$1
.LVL2:
.LBE810:
.LBE811:
.LBE845:
.LBB846:
.LBB816:
.LBB815:
	vzip.8	q15, q9	@ tmp484, c__$val$1
.LVL3:
.LBE815:
.LBE816:
.LBE846:
.LBB847:
.LBB821:
.LBB820:
	vzip.8	q14, q8	@ tmp489, c__$val$1
.LVL4:
.LBE820:
.LBE821:
.LBE847:
.LBB848:
.LBB826:
.LBB825:
	vzip.8	q0, q13	@ tmp494, c__$val$1
.LVL5:
.LBE825:
.LBE826:
.LBE848:
.LBB849:
.LBB831:
.LBB830:
	vzip.8	q2, q11	@ tmp499, c__$val$1
.LVL6:
.LBE830:
.LBE831:
.LBE849:
.LBB850:
.LBB836:
.LBB835:
	vzip.8	q5, q4	@ tmp504, c__$val$1
.LVL7:
.LBE835:
.LBE836:
.LBE850:
.LBB851:
.LBB842:
.LBB840:
	vldr	d12, [r0, #240]	@, MEM[(v16qu *)in128_1(D) + 240B]
	vldr	d13, [r0, #248]	@, MEM[(v16qu *)in128_1(D) + 240B]
.LBE840:
.LBE842:
.LBE851:
.LBB852:
.LBB853:
.LBB854:
	vzip.8	q1, q0	@ tmp514, c__$val$1
.LVL8:
.LBE854:
.LBE853:
.LBE852:
.LBB855:
.LBB843:
.LBB841:
	vzip.8	q7, q6	@ tmp509, c__$val$1
.LVL9:
.LBE841:
.LBE843:
.LBE855:
.LBB856:
.LBB857:
.LBB858:
	vzip.8	q3, q2	@ tmp519, c__$val$1
.LVL10:
.LBE858:
.LBE857:
.LBE856:
.LBB859:
.LBB860:
.LBB861:
	vzip.8	q15, q5	@ tmp524, c__$val$1
.LVL11:
.LBE861:
.LBE860:
.LBE859:
.LBB862:
.LBB863:
.LBB864:
	vzip.8	q14, q7	@ tmp529, c__$val$1
.LVL12:
.LBE864:
.LBE863:
.LBE862:
.LBB865:
.LBB866:
.LBB867:
	vzip.8	q12, q13	@ tmp534, c__$val$1
.LVL13:
.LBE867:
.LBE866:
.LBE865:
.LBB868:
.LBB869:
.LBB870:
	vzip.8	q10, q11	@ tmp539, c__$val$1
.LVL14:
.LBE870:
.LBE869:
.LBE868:
.LBB871:
.LBB872:
.LBB873:
	vzip.8	q9, q4	@ tmp544, c__$val$1
.LVL15:
.LBE873:
.LBE872:
.LBE871:
.LBB874:
.LBB875:
.LBB876:
	vzip.8	q8, q6	@ tmp549, c__$val$1
.LVL16:
.LBE876:
.LBE875:
.LBE874:
.LBB877:
.LBB878:
.LBB879:
	vzip.8	q1, q15	@ tmp554, c__$val$1
.LVL17:
.LBE879:
.LBE878:
.LBE877:
.LBB880:
.LBB881:
.LBB882:
	vzip.8	q3, q14	@ tmp559, c__$val$1
.LVL18:
.LBE882:
.LBE881:
.LBE880:
.LBB883:
.LBB884:
.LBB885:
	vzip.8	q0, q5	@ tmp564, c__$val$1
.LVL19:
.LBE885:
.LBE884:
.LBE883:
.LBB886:
.LBB887:
.LBB888:
	vzip.8	q2, q7	@ tmp569, c__$val$1
.LVL20:
.LBE888:
.LBE887:
.LBE886:
.LBB889:
.LBB890:
.LBB891:
	vzip.8	q12, q9	@ tmp574, c__$val$1
.LVL21:
.LBE891:
.LBE890:
.LBE889:
.LBB892:
.LBB893:
.LBB894:
	vzip.8	q10, q8	@ tmp579, c__$val$1
.LVL22:
.LBE894:
.LBE893:
.LBE892:
.LBB895:
.LBB896:
.LBB897:
	vzip.8	q13, q4	@ tmp584, c__$val$1
.LVL23:
.LBE897:
.LBE896:
.LBE895:
.LBB898:
.LBB899:
.LBB900:
	vzip.8	q11, q6	@ tmp589, c__$val$1
.LVL24:
.LBE900:
.LBE899:
.LBE898:
.LBB901:
	.loc 1 42 0
	vzip.8	q1, q3	@ *in128_1(D), c__$val$1
.LVL25:
.LBE901:
.LBB902:
	.loc 1 43 0
	vzip.8	q15, q14	@ MEM[(v16qu *)in128_1(D) + 16B], c__$val$1
.LVL26:
.LBE902:
.LBB903:
	.loc 1 44 0
	vzip.8	q0, q2	@ MEM[(v16qu *)in128_1(D) + 32B], c__$val$1
.LVL27:
.LBE903:
.LBB904:
	.loc 1 45 0
	vzip.8	q5, q7	@ MEM[(v16qu *)in128_1(D) + 48B], c__$val$1
.LVL28:
.LBE904:
.LBB905:
	.loc 1 46 0
	vzip.8	q12, q10	@ MEM[(v16qu *)in128_1(D) + 64B], c__$val$1
.LVL29:
.LBE905:
.LBB906:
	.loc 1 47 0
	vzip.8	q9, q8	@ MEM[(v16qu *)in128_1(D) + 80B], c__$val$1
.LVL30:
.LBE906:
.LBB907:
	.loc 1 48 0
	vzip.8	q13, q11	@ MEM[(v16qu *)in128_1(D) + 96B], c__$val$1
.LVL31:
.LBE907:
.LBB908:
.LBB909:
.LBB910:
	.loc 2 7648 0
	vzip.8	q4, q6	@ c__$val$0, c__$val$1
.LVL32:
.LBE910:
.LBE909:
.LBE908:
.LBB911:
	.loc 1 42 0
	vstmia	r0, {d2-d3}	@ *in128_1(D), *in128_1(D)
	vstr	d6, [r0, #128]	@, MEM[(v16qu *)in128_1(D) + 128B]
	vstr	d7, [r0, #136]	@, MEM[(v16qu *)in128_1(D) + 128B]
.LVL33:
.LBE911:
.LBB912:
	.loc 1 43 0
	vstr	d30, [r0, #16]	@, MEM[(v16qu *)in128_1(D) + 16B]
	vstr	d31, [r0, #24]	@, MEM[(v16qu *)in128_1(D) + 16B]
	vstr	d28, [r0, #144]	@, MEM[(v16qu *)in128_1(D) + 144B]
	vstr	d29, [r0, #152]	@, MEM[(v16qu *)in128_1(D) + 144B]
.LVL34:
.LBE912:
.LBB913:
	.loc 1 44 0
	vstr	d0, [r0, #32]	@, MEM[(v16qu *)in128_1(D) + 32B]
	vstr	d1, [r0, #40]	@, MEM[(v16qu *)in128_1(D) + 32B]
	vstr	d4, [r0, #160]	@, MEM[(v16qu *)in128_1(D) + 160B]
	vstr	d5, [r0, #168]	@, MEM[(v16qu *)in128_1(D) + 160B]
.LVL35:
.LBE913:
.LBB914:
	.loc 1 45 0
	vstr	d10, [r0, #48]	@, MEM[(v16qu *)in128_1(D) + 48B]
	vstr	d11, [r0, #56]	@, MEM[(v16qu *)in128_1(D) + 48B]
	vstr	d14, [r0, #176]	@, MEM[(v16qu *)in128_1(D) + 176B]
	vstr	d15, [r0, #184]	@, MEM[(v16qu *)in128_1(D) + 176B]
.LVL36:
.LBE914:
.LBB915:
	.loc 1 46 0
	vstr	d24, [r0, #64]	@, MEM[(v16qu *)in128_1(D) + 64B]
	vstr	d25, [r0, #72]	@, MEM[(v16qu *)in128_1(D) + 64B]
	vstr	d20, [r0, #192]	@, MEM[(v16qu *)in128_1(D) + 192B]
	vstr	d21, [r0, #200]	@, MEM[(v16qu *)in128_1(D) + 192B]
.LVL37:
.LBE915:
.LBB916:
	.loc 1 47 0
	vstr	d18, [r0, #80]	@, MEM[(v16qu *)in128_1(D) + 80B]
	vstr	d19, [r0, #88]	@, MEM[(v16qu *)in128_1(D) + 80B]
	vstr	d16, [r0, #208]	@, MEM[(v16qu *)in128_1(D) + 208B]
	vstr	d17, [r0, #216]	@, MEM[(v16qu *)in128_1(D) + 208B]
.LVL38:
.LBE916:
.LBB917:
	.loc 1 48 0
	vstr	d26, [r0, #96]	@, MEM[(v16qu *)in128_1(D) + 96B]
	vstr	d27, [r0, #104]	@, MEM[(v16qu *)in128_1(D) + 96B]
	vstr	d22, [r0, #224]	@, MEM[(v16qu *)in128_1(D) + 224B]
	vstr	d23, [r0, #232]	@, MEM[(v16qu *)in128_1(D) + 224B]
.LVL39:
.LBE917:
.LBB918:
	.loc 1 49 0
	vstr	d8, [r0, #112]	@, MEM[(v16qu *)in128_1(D) + 112B]
	vstr	d9, [r0, #120]	@, MEM[(v16qu *)in128_1(D) + 112B]
.LBE918:
	.loc 1 3 0
	sub	sp, sp, #36	@,,
.LCFI2:
	.cfi_def_cfa_offset 104
.LBB919:
	.loc 1 49 0
	vstr	d12, [r0, #240]	@, MEM[(v16qu *)in128_1(D) + 240B]
	vstr	d13, [r0, #248]	@, MEM[(v16qu *)in128_1(D) + 240B]
.LBE919:
	.loc 1 52 0
	cmp	r1, #0	@ out8
	beq	.L2	@
	.loc 1 53 0
	subs	r2, r2, #1	@ tmp631, outlen,
.LVL40:
	cmp	r2, #15	@ tmp631,
	bhi	.L2	@
	tbb	[pc, r2]	@ tmp631
.L19:
	.byte	(.L3-.L19)/2
	.byte	(.L4-.L19)/2
	.byte	(.L5-.L19)/2
	.byte	(.L6-.L19)/2
	.byte	(.L7-.L19)/2
	.byte	(.L8-.L19)/2
	.byte	(.L9-.L19)/2
	.byte	(.L10-.L19)/2
	.byte	(.L11-.L19)/2
	.byte	(.L12-.L19)/2
	.byte	(.L13-.L19)/2
	.byte	(.L14-.L19)/2
	.byte	(.L15-.L19)/2
	.byte	(.L16-.L19)/2
	.byte	(.L17-.L19)/2
	.byte	(.L18-.L19)/2
	.align	1
.L18:
.LVL41:
.LBB920:
.LBB921:
	.loc 2 8322 0
	add	r4, r1, #240	@ tmp632, out8,
.LVL42:
	vst1.8	{d12-d13}, [r4]	@ c__$val$1, MEM[(__builtin_neon_qi[16] *)D.15784_252]
	vldr	d8, [r0, #112]	@, MEM[(v16qu *)in128_1(D) + 112B]
	vldr	d9, [r0, #120]	@, MEM[(v16qu *)in128_1(D) + 112B]
.LVL43:
.L17:
.LBE921:
.LBE920:
.LBB922:
.LBB923:
	add	ip, r1, #224	@ tmp633, out8,
.LVL44:
	vst1.8	{d8-d9}, [ip]	@ c__$val$0, MEM[(__builtin_neon_qi[16] *)D.15785_255]
	vldr	d22, [r0, #224]	@, MEM[(v16qu *)in128_1(D) + 224B]
	vldr	d23, [r0, #232]	@, MEM[(v16qu *)in128_1(D) + 224B]
.LVL45:
.L16:
.LBE923:
.LBE922:
.LBB924:
.LBB925:
	add	r2, r1, #208	@ tmp634, out8,
.LVL46:
	vst1.8	{d22-d23}, [r2]	@ MEM[(v16qu *)in128_1(D) + 224B], MEM[(__builtin_neon_qi[16] *)D.15786_258]
	vldr	d26, [r0, #96]	@, MEM[(v16qu *)in128_1(D) + 96B]
	vldr	d27, [r0, #104]	@, MEM[(v16qu *)in128_1(D) + 96B]
.LVL47:
.L15:
.LBE925:
.LBE924:
.LBB926:
.LBB927:
	add	r4, r1, #192	@ tmp636, out8,
.LVL48:
	vst1.8	{d26-d27}, [r4]	@ MEM[(v16qu *)in128_1(D) + 96B], MEM[(__builtin_neon_qi[16] *)D.15787_261]
	vldr	d16, [r0, #208]	@, MEM[(v16qu *)in128_1(D) + 208B]
	vldr	d17, [r0, #216]	@, MEM[(v16qu *)in128_1(D) + 208B]
.LVL49:
.L14:
.LBE927:
.LBE926:
.LBB928:
.LBB929:
	add	ip, r1, #176	@ tmp638, out8,
.LVL50:
	vst1.8	{d16-d17}, [ip]	@ MEM[(v16qu *)in128_1(D) + 208B], MEM[(__builtin_neon_qi[16] *)D.15788_264]
	vldr	d18, [r0, #80]	@, MEM[(v16qu *)in128_1(D) + 80B]
	vldr	d19, [r0, #88]	@, MEM[(v16qu *)in128_1(D) + 80B]
.LVL51:
.L13:
.LBE929:
.LBE928:
.LBB930:
.LBB931:
	add	r2, r1, #160	@ tmp640, out8,
.LVL52:
	vst1.8	{d18-d19}, [r2]	@ MEM[(v16qu *)in128_1(D) + 80B], MEM[(__builtin_neon_qi[16] *)D.15789_267]
	vldr	d20, [r0, #192]	@, MEM[(v16qu *)in128_1(D) + 192B]
	vldr	d21, [r0, #200]	@, MEM[(v16qu *)in128_1(D) + 192B]
.LVL53:
.L12:
.LBE931:
.LBE930:
.LBB932:
.LBB933:
	add	r4, r1, #144	@ tmp642, out8,
.LVL54:
	vst1.8	{d20-d21}, [r4]	@ MEM[(v16qu *)in128_1(D) + 192B], MEM[(__builtin_neon_qi[16] *)D.15790_270]
	vldr	d24, [r0, #64]	@, MEM[(v16qu *)in128_1(D) + 64B]
	vldr	d25, [r0, #72]	@, MEM[(v16qu *)in128_1(D) + 64B]
.LVL55:
.L11:
.LBE933:
.LBE932:
.LBB934:
.LBB935:
	add	ip, r1, #128	@ tmp644, out8,
.LVL56:
	vst1.8	{d24-d25}, [ip]	@ MEM[(v16qu *)in128_1(D) + 64B], MEM[(__builtin_neon_qi[16] *)D.15791_273]
	vldr	d14, [r0, #176]	@, MEM[(v16qu *)in128_1(D) + 176B]
	vldr	d15, [r0, #184]	@, MEM[(v16qu *)in128_1(D) + 176B]
.LVL57:
.L10:
.LBE935:
.LBE934:
.LBB936:
.LBB937:
	add	r2, r1, #112	@ tmp646, out8,
.LVL58:
	vst1.8	{d14-d15}, [r2]	@ MEM[(v16qu *)in128_1(D) + 176B], MEM[(__builtin_neon_qi[16] *)D.15792_276]
	vldr	d10, [r0, #48]	@, MEM[(v16qu *)in128_1(D) + 48B]
	vldr	d11, [r0, #56]	@, MEM[(v16qu *)in128_1(D) + 48B]
.LVL59:
.L9:
.LBE937:
.LBE936:
.LBB938:
.LBB939:
	add	r4, r1, #96	@ tmp648, out8,
.LVL60:
	vst1.8	{d10-d11}, [r4]	@ MEM[(v16qu *)in128_1(D) + 48B], MEM[(__builtin_neon_qi[16] *)D.15793_279]
	vldr	d4, [r0, #160]	@, MEM[(v16qu *)in128_1(D) + 160B]
	vldr	d5, [r0, #168]	@, MEM[(v16qu *)in128_1(D) + 160B]
.LVL61:
.L8:
.LBE939:
.LBE938:
.LBB940:
.LBB941:
	add	ip, r1, #80	@ tmp650, out8,
.LVL62:
	vst1.8	{d4-d5}, [ip]	@ MEM[(v16qu *)in128_1(D) + 160B], MEM[(__builtin_neon_qi[16] *)D.15794_282]
	vldr	d0, [r0, #32]	@, MEM[(v16qu *)in128_1(D) + 32B]
	vldr	d1, [r0, #40]	@, MEM[(v16qu *)in128_1(D) + 32B]
.LVL63:
.L7:
.LBE941:
.LBE940:
.LBB942:
.LBB943:
	add	r2, r1, #64	@ tmp652, out8,
.LVL64:
	vst1.8	{d0-d1}, [r2]	@ MEM[(v16qu *)in128_1(D) + 32B], MEM[(__builtin_neon_qi[16] *)D.15795_285]
	vldr	d28, [r0, #144]	@, MEM[(v16qu *)in128_1(D) + 144B]
	vldr	d29, [r0, #152]	@, MEM[(v16qu *)in128_1(D) + 144B]
.LVL65:
.L6:
.LBE943:
.LBE942:
.LBB944:
.LBB945:
	add	r4, r1, #48	@ tmp654, out8,
.LVL66:
	vst1.8	{d28-d29}, [r4]	@ MEM[(v16qu *)in128_1(D) + 144B], MEM[(__builtin_neon_qi[16] *)D.15796_288]
	vldr	d30, [r0, #16]	@, MEM[(v16qu *)in128_1(D) + 16B]
	vldr	d31, [r0, #24]	@, MEM[(v16qu *)in128_1(D) + 16B]
.LVL67:
.L5:
.LBE945:
.LBE944:
.LBB946:
.LBB947:
	add	ip, r1, #32	@ tmp656, out8,
.LVL68:
	vst1.8	{d30-d31}, [ip]	@ MEM[(v16qu *)in128_1(D) + 16B], MEM[(__builtin_neon_qi[16] *)D.15797_291]
	vldr	d6, [r0, #128]	@, MEM[(v16qu *)in128_1(D) + 128B]
	vldr	d7, [r0, #136]	@, MEM[(v16qu *)in128_1(D) + 128B]
.LVL69:
.L4:
.LBE947:
.LBE946:
.LBB948:
.LBB949:
	add	r2, r1, #16	@ tmp658, out8,
.LVL70:
	vst1.8	{d6-d7}, [r2]	@ MEM[(v16qu *)in128_1(D) + 128B], MEM[(__builtin_neon_qi[16] *)D.15798_294]
	vldmia	r0, {d2-d3}	@ *in128_1(D), *in128_1(D)
.LVL71:
.L3:
.LBE949:
.LBE948:
.LBB950:
.LBB951:
	vst1.8	{d2-d3}, [r1]	@ *in128_1(D), MEM[(__builtin_neon_qi[16] *)out8_250(D)]
.LVL72:
.L2:
.LBE951:
.LBE950:
	.loc 1 92 0
	cmp	r3, #0	@ cksum
	beq	.L1	@
	.loc 1 93 0
	ldr	r1, [sp, #104]	@ cklen, cklen
.LVL73:
	subs	r2, r1, #1	@ tmp661, cklen,
	cmp	r2, #15	@ tmp661,
	bhi	.L1	@
	tbh	[pc, r2, lsl #1]	@ tmp661
.L37:
	.2byte	(.L21-.L37)/2
	.2byte	(.L22-.L37)/2
	.2byte	(.L23-.L37)/2
	.2byte	(.L24-.L37)/2
	.2byte	(.L25-.L37)/2
	.2byte	(.L26-.L37)/2
	.2byte	(.L27-.L37)/2
	.2byte	(.L28-.L37)/2
	.2byte	(.L29-.L37)/2
	.2byte	(.L30-.L37)/2
	.2byte	(.L31-.L37)/2
	.2byte	(.L32-.L37)/2
	.2byte	(.L33-.L37)/2
	.2byte	(.L34-.L37)/2
	.2byte	(.L35-.L37)/2
	.2byte	(.L36-.L37)/2
.L36:
	.loc 1 95 0
	vldmia	r3, {d8-d9}	@ *cksum_298(D),
	vldr	d12, [r0, #240]	@, MEM[(v16qu *)in128_1(D) + 240B]
	vldr	d13, [r0, #248]	@, MEM[(v16qu *)in128_1(D) + 240B]
.LVL74:
	veor	q11, q4, q6	@ prephitmp.573,,
	vstmia	r3, {d22-d23}	@ *cksum_298(D), prephitmp.573
.L38:
	.loc 1 97 0
	vldr	d26, [r0, #112]	@, MEM[(v16qu *)in128_1(D) + 112B]
	vldr	d27, [r0, #120]	@, MEM[(v16qu *)in128_1(D) + 112B]
	veor	q8, q11, q13	@ prephitmp.573, prephitmp.573,
	vstmia	r3, {d16-d17}	@ *cksum_298(D), prephitmp.573
.L39:
	.loc 1 99 0
	vldr	d18, [r0, #224]	@, MEM[(v16qu *)in128_1(D) + 224B]
	vldr	d19, [r0, #232]	@, MEM[(v16qu *)in128_1(D) + 224B]
	veor	q10, q8, q9	@ prephitmp.573, prephitmp.573,
	vstmia	r3, {d20-d21}	@ *cksum_298(D), prephitmp.573
.L40:
	.loc 1 101 0
	vldr	d24, [r0, #96]	@, MEM[(v16qu *)in128_1(D) + 96B]
	vldr	d25, [r0, #104]	@, MEM[(v16qu *)in128_1(D) + 96B]
	veor	q2, q10, q12	@ prephitmp.573, prephitmp.573,
	vstmia	r3, {d4-d5}	@ *cksum_298(D), prephitmp.573
.L41:
	.loc 1 103 0
	vldr	d0, [r0, #208]	@, MEM[(v16qu *)in128_1(D) + 208B]
	vldr	d1, [r0, #216]	@, MEM[(v16qu *)in128_1(D) + 208B]
	veor	q14, q2, q0	@ prephitmp.573, prephitmp.573,
	vstmia	r3, {d28-d29}	@ *cksum_298(D), prephitmp.573
.L42:
	.loc 1 105 0
	vldr	d30, [r0, #80]	@, MEM[(v16qu *)in128_1(D) + 80B]
	vldr	d31, [r0, #88]	@, MEM[(v16qu *)in128_1(D) + 80B]
	veor	q3, q14, q15	@ prephitmp.573, prephitmp.573,
	vstmia	r3, {d6-d7}	@ *cksum_298(D), prephitmp.573
.L43:
	.loc 1 107 0
	vldr	d2, [r0, #192]	@, MEM[(v16qu *)in128_1(D) + 192B]
	vldr	d3, [r0, #200]	@, MEM[(v16qu *)in128_1(D) + 192B]
	veor	q4, q3, q1	@ prephitmp.573, prephitmp.573,
	vstmia	r3, {d8-d9}	@ *cksum_298(D), prephitmp.573
.L44:
	.loc 1 109 0
	vldr	d12, [r0, #64]	@, MEM[(v16qu *)in128_1(D) + 64B]
	vldr	d13, [r0, #72]	@, MEM[(v16qu *)in128_1(D) + 64B]
	veor	q13, q4, q6	@ prephitmp.573, prephitmp.573,
	vstmia	r3, {d26-d27}	@ *cksum_298(D), prephitmp.573
.L45:
	.loc 1 111 0
	vldr	d22, [r0, #176]	@, MEM[(v16qu *)in128_1(D) + 176B]
	vldr	d23, [r0, #184]	@, MEM[(v16qu *)in128_1(D) + 176B]
	veor	q8, q13, q11	@ prephitmp.573, prephitmp.573,
	vstmia	r3, {d16-d17}	@ *cksum_298(D), prephitmp.573
.L46:
	.loc 1 113 0
	vldr	d18, [r0, #48]	@, MEM[(v16qu *)in128_1(D) + 48B]
	vldr	d19, [r0, #56]	@, MEM[(v16qu *)in128_1(D) + 48B]
	veor	q10, q8, q9	@ prephitmp.573, prephitmp.573,
	vstmia	r3, {d20-d21}	@ *cksum_298(D), prephitmp.573
.L47:
	.loc 1 115 0
	vldr	d12, [r0, #160]	@, MEM[(v16qu *)in128_1(D) + 160B]
	vldr	d13, [r0, #168]	@, MEM[(v16qu *)in128_1(D) + 160B]
	veor	q12, q10, q6	@ prephitmp.573, prephitmp.573,
	vstmia	r3, {d24-d25}	@ *cksum_298(D), prephitmp.573
.L48:
	.loc 1 117 0
	vldr	d4, [r0, #32]	@, MEM[(v16qu *)in128_1(D) + 32B]
	vldr	d5, [r0, #40]	@, MEM[(v16qu *)in128_1(D) + 32B]
	veor	q0, q12, q2	@ prephitmp.573, prephitmp.573,
	vstmia	r3, {d0-d1}	@ *cksum_298(D), prephitmp.573
.L49:
	.loc 1 119 0
	vldr	d28, [r0, #144]	@, MEM[(v16qu *)in128_1(D) + 144B]
	vldr	d29, [r0, #152]	@, MEM[(v16qu *)in128_1(D) + 144B]
	veor	q15, q0, q14	@ prephitmp.573, prephitmp.573,
	vstmia	r3, {d30-d31}	@ *cksum_298(D), prephitmp.573
.L50:
	.loc 1 121 0
	vldr	d6, [r0, #16]	@, MEM[(v16qu *)in128_1(D) + 16B]
	vldr	d7, [r0, #24]	@, MEM[(v16qu *)in128_1(D) + 16B]
	veor	q1, q15, q3	@ prephitmp.573, prephitmp.573,
	vstmia	r3, {d2-d3}	@ *cksum_298(D), prephitmp.573
.L51:
	.loc 1 123 0
	vldr	d8, [r0, #128]	@, MEM[(v16qu *)in128_1(D) + 128B]
	vldr	d9, [r0, #136]	@, MEM[(v16qu *)in128_1(D) + 128B]
	veor	q13, q1, q4	@ prephitmp.573, prephitmp.573,
	vstmia	r3, {d26-d27}	@ *cksum_298(D), prephitmp.573
.L52:
	.loc 1 125 0
	vldmia	r0, {d22-d23}	@ *in128_1(D), *in128_1(D)
	veor	q8, q13, q11	@ tmp678, prephitmp.573, *in128_1(D)
	vstmia	r3, {d16-d17}	@ *cksum_298(D), tmp678
.L1:
	.loc 1 132 0
	add	sp, sp, #36	@,,
	fldmfdd	sp!, {d8, d9, d10, d11, d12, d13, d14, d15}
	pop	{r4}
	bx	lr
.LVL75:
.L21:
	vldmia	r3, {d26-d27}	@ *cksum_298(D), prephitmp.573
	b	.L52	@
.L22:
	vldmia	r3, {d2-d3}	@ *cksum_298(D), prephitmp.573
	b	.L51	@
.L23:
	vldmia	r3, {d30-d31}	@ *cksum_298(D), prephitmp.573
	b	.L50	@
.L24:
	vldmia	r3, {d0-d1}	@ *cksum_298(D), prephitmp.573
	b	.L49	@
.L25:
	vldmia	r3, {d24-d25}	@ *cksum_298(D), prephitmp.573
	b	.L48	@
.L26:
	vldmia	r3, {d20-d21}	@ *cksum_298(D), prephitmp.573
	b	.L47	@
.L27:
	vldmia	r3, {d16-d17}	@ *cksum_298(D), prephitmp.573
	b	.L46	@
.L28:
	vldmia	r3, {d26-d27}	@ *cksum_298(D), prephitmp.573
	b	.L45	@
.L29:
	vldmia	r3, {d8-d9}	@ *cksum_298(D), prephitmp.573
	b	.L44	@
.L30:
	vldmia	r3, {d6-d7}	@ *cksum_298(D), prephitmp.573
	b	.L43	@
.L31:
	vldmia	r3, {d28-d29}	@ *cksum_298(D), prephitmp.573
	b	.L42	@
.L32:
	vldmia	r3, {d4-d5}	@ *cksum_298(D), prephitmp.573
	b	.L41	@
.L33:
	vldmia	r3, {d20-d21}	@ *cksum_298(D), prephitmp.573
	b	.L40	@
.L34:
	vldmia	r3, {d16-d17}	@ *cksum_298(D), prephitmp.573
	b	.L39	@
.L35:
	vldmia	r3, {d22-d23}	@ *cksum_298(D), prephitmp.573
	b	.L38	@
	.cfi_endproc
.LFE1886:
	.size	write128, .-write128
	.align	2
	.global	read128
	.thumb
	.thumb_func
	.type	read128, %function
read128:
.LFB1887:
	.loc 1 135 0
	.cfi_startproc
	@ args = 0, pretend = 0, frame = 112
	@ frame_needed = 0, uses_anonymous_args = 0
	@ link register save eliminated.
.LVL76:
	push	{r4}	@
.LCFI3:
	.cfi_def_cfa_offset 4
	.cfi_offset 4, -4
	fstmfdd	sp!, {d8, d9, d10, d11, d12, d13, d14, d15}	@,
.LCFI4:
	.cfi_def_cfa_offset 68
	.cfi_offset 80, -68
	.cfi_offset 82, -60
	.cfi_offset 84, -52
	.cfi_offset 86, -44
	.cfi_offset 88, -36
	.cfi_offset 90, -28
	.cfi_offset 92, -20
	.cfi_offset 94, -12
.LBB952:
.LBB953:
	.loc 2 7926 0
	mov	r4, r0	@ tmp524, in8
.LBE953:
.LBE952:
.LBB957:
.LBB958:
	add	ip, r0, #32	@ tmp525, in8,
.LBE958:
.LBE957:
	.loc 1 135 0
	sub	sp, sp, #116	@,,
.LCFI5:
	.cfi_def_cfa_offset 184
.LBB960:
.LBB954:
	.loc 2 7926 0
	vld1.8	{d14-d15}, [r4]!	@, MEM[(const __builtin_neon_qi[16] *)in8_1(D)]
	vld1.8	{d12-d13}, [r0]	@, MEM[(const __builtin_neon_qi[16] *)in8_1(D)]
.LBE954:
.LBE960:
.LBB961:
.LBB962:
	vld1.8	{d16-d17}, [r4]	@, MEM[(const __builtin_neon_qi[16] *)D.15628_3]
	vld1.8	{d0-d1}, [r4]	@, MEM[(const __builtin_neon_qi[16] *)D.15628_3]
	vstr	d16, [sp, #32]	@, %sfp
	vstr	d17, [sp, #40]	@, %sfp
.LBE962:
.LBE961:
.LBB964:
.LBB965:
	add	r4, r0, #48	@ tmp526, in8,
.LBE965:
.LBE964:
.LBB967:
.LBB963:
	vstr	d0, [sp, #64]	@, %sfp
	vstr	d1, [sp, #72]	@, %sfp
.LBE963:
.LBE967:
.LBB968:
.LBB959:
	vld1.8	{d16-d17}, [ip]	@ D.16188, MEM[(const __builtin_neon_qi[16] *)D.15629_5]
.LBE959:
.LBE968:
.LBB969:
.LBB966:
	vld1.8	{d18-d19}, [r4]	@ D.16192, MEM[(const __builtin_neon_qi[16] *)D.15630_7]
.LBE966:
.LBE969:
.LBB970:
.LBB971:
	add	ip, r0, #64	@ tmp527, in8,
.LBE971:
.LBE970:
.LBB973:
.LBB974:
	add	r4, r0, #80	@ tmp528, in8,
.LBE974:
.LBE973:
.LBB976:
.LBB972:
	vld1.8	{d20-d21}, [ip]	@ D.16196, MEM[(const __builtin_neon_qi[16] *)D.15631_9]
.LBE972:
.LBE976:
.LBB977:
.LBB975:
	vld1.8	{d22-d23}, [r4]	@ D.16200, MEM[(const __builtin_neon_qi[16] *)D.15632_11]
.LBE975:
.LBE977:
.LBB978:
.LBB979:
	add	ip, r0, #96	@ tmp529, in8,
.LBE979:
.LBE978:
.LBB981:
.LBB982:
	add	r4, r0, #112	@ tmp530, in8,
.LBE982:
.LBE981:
.LBB984:
.LBB980:
	vld1.8	{d24-d25}, [ip]	@ D.16204, MEM[(const __builtin_neon_qi[16] *)D.15633_13]
.LBE980:
.LBE984:
.LBB985:
.LBB983:
	vld1.8	{d26-d27}, [r4]	@ D.16208, MEM[(const __builtin_neon_qi[16] *)D.15634_15]
.LBE983:
.LBE985:
.LBB986:
.LBB987:
	add	ip, r0, #128	@ tmp531, in8,
.LBE987:
.LBE986:
.LBB989:
.LBB990:
	add	r4, r0, #144	@ tmp532, in8,
.LBE990:
.LBE989:
.LBB992:
.LBB988:
	vld1.8	{d28-d29}, [ip]	@ D.16212, MEM[(const __builtin_neon_qi[16] *)D.15635_17]
.LBE988:
.LBE992:
.LBB993:
.LBB991:
	vld1.8	{d30-d31}, [r4]	@ D.16216, MEM[(const __builtin_neon_qi[16] *)D.15636_19]
.LBE991:
.LBE993:
.LBB994:
.LBB995:
	add	ip, r0, #160	@ tmp533, in8,
.LBE995:
.LBE994:
.LBB997:
.LBB998:
	add	r4, r0, #176	@ tmp534, in8,
.LBE998:
.LBE997:
.LBB1000:
.LBB996:
	vld1.8	{d6-d7}, [ip]	@ D.16220, MEM[(const __builtin_neon_qi[16] *)D.15637_21]
.LBE996:
.LBE1000:
.LBB1001:
.LBB999:
	vld1.8	{d4-d5}, [r4]	@ D.16224, MEM[(const __builtin_neon_qi[16] *)D.15638_23]
.LBE999:
.LBE1001:
.LBB1002:
.LBB1003:
	add	ip, r0, #192	@ tmp535, in8,
.LBE1003:
.LBE1002:
.LBB1005:
.LBB1006:
	add	r4, r0, #208	@ tmp536, in8,
.LBE1006:
.LBE1005:
.LBB1008:
.LBB955:
	vstmia	sp, {d12-d13}	@ %sfp,
.LBE955:
.LBE1008:
.LBB1009:
.LBB1007:
	vld1.8	{d0-d1}, [r4]	@ D.16232, MEM[(const __builtin_neon_qi[16] *)D.15640_27]
.LBE1007:
.LBE1009:
.LBB1010:
.LBB956:
	vstr	d14, [sp, #48]	@, %sfp
	vstr	d15, [sp, #56]	@, %sfp
.LVL77:
.LBE956:
.LBE1010:
.LBB1011:
.LBB1012:
	add	r4, r0, #224	@ tmp537, in8,
.LBE1012:
.LBE1011:
.LBB1014:
.LBB1004:
	vld1.8	{d2-d3}, [ip]	@ D.16228, MEM[(const __builtin_neon_qi[16] *)D.15639_25]
.LVL78:
.LBE1004:
.LBE1014:
.LBB1015:
.LBB1016:
	adds	r0, r0, #240	@ tmp538, in8,
.LVL79:
.LBE1016:
.LBE1015:
.LBB1018:
.LBB1013:
	vld1.8	{d8-d9}, [r4]	@ D.16236, MEM[(const __builtin_neon_qi[16] *)D.15641_29]
.LBE1013:
.LBE1018:
.LBB1019:
.LBB1017:
	vld1.8	{d10-d11}, [r0]	@ D.16240, MEM[(const __builtin_neon_qi[16] *)D.15642_31]
.LBE1017:
.LBE1019:
	.loc 1 158 0
	cmp	r2, #0	@ cksum
	beq	.L61	@
	.loc 1 159 0
	subs	r3, r3, #1	@ tmp539, len,
.LVL80:
	cmp	r3, #15	@ tmp539,
	bhi	.L61	@
	tbh	[pc, r3, lsl #1]	@ tmp539
.LVL81:
.L78:
	.2byte	(.L62-.L78)/2
	.2byte	(.L63-.L78)/2
	.2byte	(.L64-.L78)/2
	.2byte	(.L65-.L78)/2
	.2byte	(.L66-.L78)/2
	.2byte	(.L67-.L78)/2
	.2byte	(.L68-.L78)/2
	.2byte	(.L69-.L78)/2
	.2byte	(.L70-.L78)/2
	.2byte	(.L71-.L78)/2
	.2byte	(.L72-.L78)/2
	.2byte	(.L73-.L78)/2
	.2byte	(.L74-.L78)/2
	.2byte	(.L75-.L78)/2
	.2byte	(.L76-.L78)/2
	.2byte	(.L77-.L78)/2
.L77:
	.loc 1 161 0
	vldmia	r2, {d12-d13}	@ *cksum_33(D),
	veor	q7, q5, q6	@ prephitmp.642, D.16240,
.L79:
	.loc 1 163 0
	veor	q6, q7, q4	@ prephitmp.642, prephitmp.642, D.16236
.L80:
	.loc 1 165 0
	veor	q7, q6, q0	@ prephitmp.642, prephitmp.642, D.16232
.L81:
	.loc 1 167 0
	veor	q6, q7, q1	@ prephitmp.642, prephitmp.642, D.16228
.L82:
	.loc 1 169 0
	veor	q7, q6, q2	@ prephitmp.642, prephitmp.642, D.16224
.L83:
	.loc 1 171 0
	veor	q6, q7, q3	@ prephitmp.642, prephitmp.642, D.16220
.L84:
	.loc 1 173 0
	veor	q7, q6, q15	@ prephitmp.642, prephitmp.642, D.16216
.L85:
	.loc 1 175 0
	veor	q6, q7, q14	@ prephitmp.642, prephitmp.642, D.16212
.L86:
	.loc 1 177 0
	veor	q7, q6, q13	@ prephitmp.642, prephitmp.642, D.16208
.L87:
	.loc 1 179 0
	veor	q6, q7, q12	@ prephitmp.642, prephitmp.642, D.16204
.L88:
	.loc 1 181 0
	veor	q7, q6, q11	@ prephitmp.642, prephitmp.642, D.16200
.L89:
	.loc 1 183 0
	veor	q6, q7, q10	@ prephitmp.642, prephitmp.642, D.16196
.L90:
	.loc 1 185 0
	veor	q7, q6, q9	@ prephitmp.642, prephitmp.642, D.16192
.L91:
	.loc 1 187 0
	veor	q6, q7, q8	@, prephitmp.642, D.16188
	vstr	d12, [sp, #16]	@, %sfp
	vstr	d13, [sp, #24]	@, %sfp
.L92:
	.loc 1 189 0
	vldr	d14, [sp, #64]	@, %sfp
	vldr	d15, [sp, #72]	@, %sfp
	veor	q6, q6, q7	@,,
	vstr	d12, [sp, #64]	@, %sfp
	vstr	d13, [sp, #72]	@, %sfp
.L93:
	.loc 1 191 0
	vldr	d14, [sp, #48]	@, %sfp
	vldr	d15, [sp, #56]	@, %sfp
	veor	q6, q6, q7	@,,
	vstmia	r2, {d12-d13}	@ *cksum_33(D),
.LVL82:
.L61:
.LBB1020:
.LBB1021:
.LBB1022:
	.loc 2 7648 0
	vzip.8	q8, q3	@ tmp549, c__$val$1
.LBE1022:
.LBE1021:
.LBE1020:
.LBB1023:
.LBB1024:
.LBB1025:
	vzip.8	q9, q2	@ tmp552, c__$val$1
.LBE1025:
.LBE1024:
.LBE1023:
.LBB1026:
.LBB1027:
.LBB1028:
	vzip.8	q10, q1	@ tmp555, c__$val$1
.LBE1028:
.LBE1027:
.LBE1026:
.LBB1029:
.LBB1030:
.LBB1031:
	vzip.8	q11, q0	@ tmp558, c__$val$1
.LBE1031:
.LBE1030:
.LBE1029:
.LBB1032:
.LBB1033:
.LBB1034:
	vzip.8	q12, q4	@ tmp561, c__$val$1
.LBE1034:
.LBE1033:
.LBE1032:
.LBB1035:
.LBB1036:
.LBB1037:
	vzip.8	q13, q5	@ tmp564, c__$val$1
.LBE1037:
.LBE1036:
.LBE1035:
.LBB1038:
.LBB1039:
.LBB1040:
	vzip.8	q8, q12	@ tmp573, c__$val$1
.LBE1040:
.LBE1039:
.LBE1038:
.LBB1041:
.LBB1042:
.LBB1043:
	vzip.8	q9, q13	@ tmp576, c__$val$1
.LBE1043:
.LBE1042:
.LBE1041:
.LBB1044:
.LBB1045:
.LBB1046:
	vzip.8	q3, q4	@ tmp585, c__$val$1
.LBE1046:
.LBE1045:
.LBE1044:
.LBB1047:
.LBB1048:
.LBB1049:
	vzip.8	q2, q5	@ tmp588, c__$val$1
.LBE1049:
.LBE1048:
.LBE1047:
.LBB1050:
.LBB1051:
.LBB1052:
	vldmia	sp, {d12-d13}	@ %sfp, tmp543
.LBE1052:
.LBE1051:
.LBE1050:
.LBB1055:
.LBB1056:
.LBB1057:
	vldr	d14, [sp, #32]	@, %sfp
	vldr	d15, [sp, #40]	@, %sfp
.LBE1057:
.LBE1056:
.LBE1055:
.LBB1060:
.LBB1054:
.LBB1053:
	vzip.8	q6, q14	@ tmp543, c__$val$1
.LVL83:
.LBE1053:
.LBE1054:
.LBE1060:
.LBB1061:
.LBB1059:
.LBB1058:
	vzip.8	q7, q15	@ tmp546, c__$val$1
.LVL84:
.LBE1058:
.LBE1059:
.LBE1061:
.LBB1062:
.LBB1063:
.LBB1064:
	vzip.8	q6, q10	@ tmp567, c__$val$1
.LVL85:
.LBE1064:
.LBE1063:
.LBE1062:
.LBB1065:
.LBB1066:
.LBB1067:
	vzip.8	q7, q11	@ tmp570, c__$val$1
.LVL86:
.LBE1067:
.LBE1066:
.LBE1065:
.LBB1068:
.LBB1069:
.LBB1070:
	vzip.8	q14, q1	@ tmp579, c__$val$1
.LVL87:
.LBE1070:
.LBE1069:
.LBE1068:
.LBB1071:
.LBB1072:
.LBB1073:
	vzip.8	q15, q0	@ tmp582, c__$val$1
.LVL88:
.LBE1073:
.LBE1072:
.LBE1071:
.LBB1074:
.LBB1075:
.LBB1076:
	vzip.8	q6, q8	@ tmp591, c__$val$1
.LVL89:
.LBE1076:
.LBE1075:
.LBE1074:
.LBB1077:
.LBB1078:
.LBB1079:
	vzip.8	q7, q9	@ tmp594, c__$val$1
.LVL90:
.LBE1079:
.LBE1078:
.LBE1077:
.LBB1080:
.LBB1081:
.LBB1082:
	vzip.8	q10, q12	@ tmp597, c__$val$1
.LVL91:
.LBE1082:
.LBE1081:
.LBE1080:
.LBB1083:
.LBB1084:
.LBB1085:
	vzip.8	q11, q13	@ tmp600, c__$val$1
.LVL92:
.LBE1085:
.LBE1084:
.LBE1083:
.LBB1086:
.LBB1087:
.LBB1088:
	vzip.8	q14, q3	@ tmp603, c__$val$1
.LVL93:
.LBE1088:
.LBE1087:
.LBE1086:
.LBB1089:
.LBB1090:
.LBB1091:
	vzip.8	q15, q2	@ tmp606, c__$val$1
.LVL94:
.LBE1091:
.LBE1090:
.LBE1089:
.LBB1092:
.LBB1093:
.LBB1094:
	vzip.8	q1, q4	@ tmp609, c__$val$1
.LVL95:
.LBE1094:
.LBE1093:
.LBE1092:
.LBB1095:
.LBB1096:
.LBB1097:
	vzip.8	q0, q5	@ tmp612, c__$val$1
.LVL96:
.LBE1097:
.LBE1096:
.LBE1095:
.LBB1098:
.LBB1099:
.LBB1100:
	vzip.8	q6, q7	@ tmp615, c__$val$1
.LVL97:
.LBE1100:
.LBE1099:
.LBE1098:
.LBB1101:
.LBB1102:
.LBB1103:
	vzip.8	q8, q9	@ tmp618, c__$val$1
.LVL98:
.LBE1103:
.LBE1102:
.LBE1101:
.LBB1104:
.LBB1105:
.LBB1106:
	vzip.8	q10, q11	@ tmp621, c__$val$1
.LVL99:
.LBE1106:
.LBE1105:
.LBE1104:
.LBB1107:
.LBB1108:
.LBB1109:
	vzip.8	q12, q13	@ tmp624, c__$val$1
.LVL100:
.LBE1109:
.LBE1108:
.LBE1107:
.LBB1110:
.LBB1111:
.LBB1112:
	vzip.8	q14, q15	@ tmp627, c__$val$1
.LVL101:
.LBE1112:
.LBE1111:
.LBE1110:
.LBB1113:
.LBB1114:
.LBB1115:
	vzip.8	q3, q2	@ tmp630, c__$val$1
.LVL102:
.LBE1115:
.LBE1114:
.LBE1113:
.LBB1116:
.LBB1117:
.LBB1118:
	vzip.8	q1, q0	@ tmp633, c__$val$1
.LVL103:
.LBE1118:
.LBE1117:
.LBE1116:
.LBB1119:
.LBB1120:
.LBB1121:
	vzip.8	q4, q5	@ tmp636, c__$val$1
.LVL104:
.LBE1121:
.LBE1120:
.LBE1119:
	.loc 1 243 0
	vstmia	r1, {d12-d13}	@ *out128_131(D), tmp615
	.loc 1 244 0
	vstr	d16, [r1, #16]	@, MEM[(v16qu *)out128_131(D) + 16B]
	vstr	d17, [r1, #24]	@, MEM[(v16qu *)out128_131(D) + 16B]
	.loc 1 245 0
	vstr	d20, [r1, #32]	@, MEM[(v16qu *)out128_131(D) + 32B]
	vstr	d21, [r1, #40]	@, MEM[(v16qu *)out128_131(D) + 32B]
	.loc 1 246 0
	vstr	d24, [r1, #48]	@, MEM[(v16qu *)out128_131(D) + 48B]
	vstr	d25, [r1, #56]	@, MEM[(v16qu *)out128_131(D) + 48B]
	.loc 1 247 0
	vstr	d28, [r1, #64]	@, MEM[(v16qu *)out128_131(D) + 64B]
	vstr	d29, [r1, #72]	@, MEM[(v16qu *)out128_131(D) + 64B]
	.loc 1 248 0
	vstr	d6, [r1, #80]	@, MEM[(v16qu *)out128_131(D) + 80B]
	vstr	d7, [r1, #88]	@, MEM[(v16qu *)out128_131(D) + 80B]
	.loc 1 249 0
	vstr	d2, [r1, #96]	@, MEM[(v16qu *)out128_131(D) + 96B]
	vstr	d3, [r1, #104]	@, MEM[(v16qu *)out128_131(D) + 96B]
	.loc 1 250 0
	vstr	d8, [r1, #112]	@, MEM[(v16qu *)out128_131(D) + 112B]
	vstr	d9, [r1, #120]	@, MEM[(v16qu *)out128_131(D) + 112B]
	.loc 1 251 0
	vstr	d14, [r1, #128]	@, MEM[(v16qu *)out128_131(D) + 128B]
	vstr	d15, [r1, #136]	@, MEM[(v16qu *)out128_131(D) + 128B]
	.loc 1 252 0
	vstr	d18, [r1, #144]	@, MEM[(v16qu *)out128_131(D) + 144B]
	vstr	d19, [r1, #152]	@, MEM[(v16qu *)out128_131(D) + 144B]
	.loc 1 253 0
	vstr	d22, [r1, #160]	@, MEM[(v16qu *)out128_131(D) + 160B]
	vstr	d23, [r1, #168]	@, MEM[(v16qu *)out128_131(D) + 160B]
	.loc 1 254 0
	vstr	d26, [r1, #176]	@, MEM[(v16qu *)out128_131(D) + 176B]
	vstr	d27, [r1, #184]	@, MEM[(v16qu *)out128_131(D) + 176B]
	.loc 1 255 0
	vstr	d30, [r1, #192]	@, MEM[(v16qu *)out128_131(D) + 192B]
	vstr	d31, [r1, #200]	@, MEM[(v16qu *)out128_131(D) + 192B]
	.loc 1 256 0
	vstr	d4, [r1, #208]	@, MEM[(v16qu *)out128_131(D) + 208B]
	vstr	d5, [r1, #216]	@, MEM[(v16qu *)out128_131(D) + 208B]
	.loc 1 257 0
	vstr	d0, [r1, #224]	@, MEM[(v16qu *)out128_131(D) + 224B]
	vstr	d1, [r1, #232]	@, MEM[(v16qu *)out128_131(D) + 224B]
	.loc 1 258 0
	vstr	d10, [r1, #240]	@, MEM[(v16qu *)out128_131(D) + 240B]
	vstr	d11, [r1, #248]	@, MEM[(v16qu *)out128_131(D) + 240B]
	.loc 1 262 0
	add	sp, sp, #116	@,,
	fldmfdd	sp!, {d8, d9, d10, d11, d12, d13, d14, d15}
	pop	{r4}
	bx	lr
.LVL105:
.L62:
	vldmia	r2, {d14-d15}	@ *cksum_33(D),
	vstr	d14, [sp, #64]	@, %sfp
	vstr	d15, [sp, #72]	@, %sfp
	vmov	q6, q7  @ v16qi	@,
	b	.L93	@
.L63:
	vldmia	r2, {d12-d13}	@ *cksum_33(D),
	vstr	d12, [sp, #16]	@, %sfp
	vstr	d13, [sp, #24]	@, %sfp
	b	.L92	@
.L64:
	vldmia	r2, {d14-d15}	@ *cksum_33(D), prephitmp.642
	b	.L91	@
.L65:
	vldmia	r2, {d12-d13}	@ *cksum_33(D), prephitmp.642
	b	.L90	@
.L66:
	vldmia	r2, {d14-d15}	@ *cksum_33(D), prephitmp.642
	b	.L89	@
.L67:
	vldmia	r2, {d12-d13}	@ *cksum_33(D), prephitmp.642
	b	.L88	@
.L68:
	vldmia	r2, {d14-d15}	@ *cksum_33(D), prephitmp.642
	b	.L87	@
.L69:
	vldmia	r2, {d12-d13}	@ *cksum_33(D), prephitmp.642
	b	.L86	@
.L70:
	vldmia	r2, {d14-d15}	@ *cksum_33(D), prephitmp.642
	b	.L85	@
.L71:
	vldmia	r2, {d12-d13}	@ *cksum_33(D), prephitmp.642
	b	.L84	@
.L72:
	vldmia	r2, {d14-d15}	@ *cksum_33(D), prephitmp.642
	b	.L83	@
.L73:
	vldmia	r2, {d12-d13}	@ *cksum_33(D), prephitmp.642
	b	.L82	@
.L74:
	vldmia	r2, {d14-d15}	@ *cksum_33(D), prephitmp.642
	b	.L81	@
.L75:
	vldmia	r2, {d12-d13}	@ *cksum_33(D), prephitmp.642
	b	.L80	@
.L76:
	vldmia	r2, {d14-d15}	@ *cksum_33(D), prephitmp.642
	b	.L79	@
	.cfi_endproc
.LFE1887:
	.size	read128, .-read128
	.align	2
	.global	encrypt_bloc128
	.thumb
	.thumb_func
	.type	encrypt_bloc128, %function
encrypt_bloc128:
.LFB1888:
	.loc 1 271 0
	.cfi_startproc
	@ args = 16, pretend = 0, frame = 544
	@ frame_needed = 0, uses_anonymous_args = 0
	@ link register save eliminated.
.LVL106:
	push	{r4, r5, r6, r7}	@
.LCFI6:
	.cfi_def_cfa_offset 16
	.cfi_offset 4, -16
	.cfi_offset 5, -12
	.cfi_offset 6, -8
	.cfi_offset 7, -4
	fstmfdd	sp!, {d8, d9, d10, d11, d12, d13, d14, d15}	@,
.LCFI7:
	.cfi_def_cfa_offset 80
	.cfi_offset 80, -80
	.cfi_offset 82, -72
	.cfi_offset 84, -64
	.cfi_offset 86, -56
	.cfi_offset 88, -48
	.cfi_offset 90, -40
	.cfi_offset 92, -32
	.cfi_offset 94, -24
.LBB1122:
.LBB1123:
.LBB1124:
.LBB1125:
	.loc 2 7926 0
	mov	r5, r0	@ tmp2207, in
.LBE1125:
.LBE1124:
.LBB1128:
.LBB1129:
	add	r6, r0, #32	@ tmp2208, in,
.LBE1129:
.LBE1128:
.LBB1131:
.LBB1132:
	add	ip, r0, #48	@ tmp2209, in,
.LBE1132:
.LBE1131:
.LBE1123:
.LBE1122:
	.loc 1 271 0
	sub	sp, sp, #544	@,,
.LCFI8:
	.cfi_def_cfa_offset 624
.LVL107:
.LBB1343:
.LBB1337:
.LBB1134:
.LBB1126:
	.loc 2 7926 0
	vld1.8	{d4-d5}, [r5]!	@, MEM[(const __builtin_neon_qi[16] *)in_1(D)]
	vld1.8	{d2-d3}, [r0]	@, MEM[(const __builtin_neon_qi[16] *)in_1(D)]
.LBE1126:
.LBE1134:
.LBE1337:
.LBE1343:
	.loc 1 271 0
	ldr	r4, [sp, #624]	@ ck_r, ck_r
.LVL108:
.LBB1344:
.LBB1338:
.LBB1135:
.LBB1127:
	.loc 2 7926 0
	vstr	d2, [sp, #32]	@, %sfp
	vstr	d3, [sp, #40]	@, %sfp
	vstr	d4, [sp, #48]	@, %sfp
	vstr	d5, [sp, #56]	@, %sfp
.LVL109:
.LBE1127:
.LBE1135:
.LBB1136:
.LBB1137:
	vld1.8	{d24-d25}, [r5]	@ D.16743, MEM[(const __builtin_neon_qi[16] *)D.16776_16]
.LVL110:
.LBE1137:
.LBE1136:
.LBB1138:
.LBB1130:
	vld1.8	{d10-d11}, [r6]	@ D.16742, MEM[(const __builtin_neon_qi[16] *)D.16775_19]
.LVL111:
.LBE1130:
.LBE1138:
.LBB1139:
.LBB1140:
	add	r5, r0, #64	@ tmp2210, in,
.LVL112:
.LBE1140:
.LBE1139:
.LBB1142:
.LBB1143:
	add	r6, r0, #80	@ tmp2211, in,
.LVL113:
.LBE1143:
.LBE1142:
.LBB1145:
.LBB1133:
	vld1.8	{d12-d13}, [ip]	@ D.16741, MEM[(const __builtin_neon_qi[16] *)D.16774_22]
.LVL114:
.LBE1133:
.LBE1145:
.LBB1146:
.LBB1141:
	vld1.8	{d0-d1}, [r5]	@ D.16740, MEM[(const __builtin_neon_qi[16] *)D.16773_25]
.LVL115:
.LBE1141:
.LBE1146:
.LBB1147:
.LBB1148:
	add	ip, r0, #96	@ tmp2212, in,
.LVL116:
.LBE1148:
.LBE1147:
.LBB1150:
.LBB1151:
	add	r5, r0, #112	@ tmp2213, in,
.LVL117:
.LBE1151:
.LBE1150:
.LBB1153:
.LBB1144:
	vld1.8	{d8-d9}, [r6]	@ D.16739, MEM[(const __builtin_neon_qi[16] *)D.16772_28]
.LVL118:
.LBE1144:
.LBE1153:
.LBB1154:
.LBB1149:
	vld1.8	{d6-d7}, [ip]	@ D.16738, MEM[(const __builtin_neon_qi[16] *)D.16771_31]
.LVL119:
.LBE1149:
.LBE1154:
.LBB1155:
.LBB1156:
	add	r6, r0, #128	@ tmp2214, in,
.LVL120:
.LBE1156:
.LBE1155:
.LBB1158:
.LBB1159:
	add	ip, r0, #144	@ tmp2215, in,
.LVL121:
.LBE1159:
.LBE1158:
.LBB1161:
.LBB1152:
	vld1.8	{d26-d27}, [r5]	@ D.16737, MEM[(const __builtin_neon_qi[16] *)D.16770_34]
.LVL122:
.LBE1152:
.LBE1161:
.LBB1162:
.LBB1157:
	vld1.8	{d30-d31}, [r6]	@ D.16736, MEM[(const __builtin_neon_qi[16] *)D.16769_37]
.LVL123:
.LBE1157:
.LBE1162:
.LBB1163:
.LBB1164:
	add	r5, r0, #160	@ tmp2216, in,
.LVL124:
.LBE1164:
.LBE1163:
.LBB1166:
.LBB1167:
	add	r6, r0, #176	@ tmp2217, in,
.LVL125:
.LBE1167:
.LBE1166:
.LBB1169:
.LBB1160:
	vld1.8	{d20-d21}, [ip]	@ D.16735, MEM[(const __builtin_neon_qi[16] *)D.16768_40]
.LVL126:
.LBE1160:
.LBE1169:
.LBB1170:
.LBB1165:
	vld1.8	{d2-d3}, [r5]	@ D.16734, MEM[(const __builtin_neon_qi[16] *)D.16767_43]
.LVL127:
.LBE1165:
.LBE1170:
.LBB1171:
.LBB1172:
	add	ip, r0, #192	@ tmp2218, in,
.LVL128:
.LBE1172:
.LBE1171:
.LBB1174:
.LBB1175:
	add	r5, r0, #208	@ tmp2219, in,
.LVL129:
.LBE1175:
.LBE1174:
.LBB1177:
.LBB1168:
	vld1.8	{d18-d19}, [r6]	@ D.16733, MEM[(const __builtin_neon_qi[16] *)D.16766_46]
.LVL130:
.LBE1168:
.LBE1177:
.LBE1338:
.LBE1344:
	.loc 1 271 0
	ldr	r7, [sp, #632]	@ ck_w, ck_w
.LBB1345:
.LBB1339:
.LBB1178:
.LBB1179:
	.loc 2 7926 0
	add	r6, r0, #224	@ tmp2220, in,
.LVL131:
.LBE1179:
.LBE1178:
.LBB1181:
.LBB1173:
	vld1.8	{d4-d5}, [ip]	@ D.16732, MEM[(const __builtin_neon_qi[16] *)D.16765_49]
.LVL132:
.LBE1173:
.LBE1181:
.LBB1182:
.LBB1183:
	adds	r0, r0, #240	@ tmp2221, in,
.LVL133:
.LBE1183:
.LBE1182:
.LBB1186:
.LBB1176:
	vld1.8	{d14-d15}, [r5]	@ D.16731, MEM[(const __builtin_neon_qi[16] *)D.16764_52]
.LBE1176:
.LBE1186:
.LBB1187:
.LBB1184:
	vld1.8	{d16-d17}, [r0]	@, MEM[(const __builtin_neon_qi[16] *)D.16762_58]
.LBE1184:
.LBE1187:
.LBB1188:
.LBB1180:
	vld1.8	{d28-d29}, [r6]	@ D.16730, MEM[(const __builtin_neon_qi[16] *)D.16763_55]
.LBE1180:
.LBE1188:
.LBB1189:
.LBB1185:
	vstr	d16, [sp, #64]	@, %sfp
	vstr	d17, [sp, #72]	@, %sfp
.LBE1185:
.LBE1189:
	.loc 1 158 0
	cmp	r4, #0	@ ck_r
	beq	.L98	@
	.loc 1 159 0
	ldr	r0, [sp, #628]	@ n_r, n_r
.LVL134:
	subs	r6, r0, #1	@ tmp2222, n_r,
.LVL135:
	cmp	r6, #15	@ tmp2222,
	bhi	.L98	@
	tbh	[pc, r6, lsl #1]	@ tmp2222
.LVL136:
.L115:
	.2byte	(.L99-.L115)/2
	.2byte	(.L100-.L115)/2
	.2byte	(.L101-.L115)/2
	.2byte	(.L102-.L115)/2
	.2byte	(.L103-.L115)/2
	.2byte	(.L104-.L115)/2
	.2byte	(.L105-.L115)/2
	.2byte	(.L106-.L115)/2
	.2byte	(.L107-.L115)/2
	.2byte	(.L108-.L115)/2
	.2byte	(.L109-.L115)/2
	.2byte	(.L110-.L115)/2
	.2byte	(.L111-.L115)/2
	.2byte	(.L112-.L115)/2
	.2byte	(.L113-.L115)/2
	.2byte	(.L114-.L115)/2
.L113:
	vldmia	r4, {d22-d23}	@ *ck_r_2(D), prephitmp.905
.L116:
	.loc 1 163 0
	veor	q8, q11, q14	@ prephitmp.905, prephitmp.905, D.16730
.L117:
	.loc 1 165 0
	veor	q11, q8, q7	@ prephitmp.905, prephitmp.905, D.16731
.L118:
	.loc 1 167 0
	veor	q8, q11, q2	@ prephitmp.905, prephitmp.905, D.16732
.L119:
	.loc 1 169 0
	veor	q11, q8, q9	@ prephitmp.905, prephitmp.905, D.16733
.L120:
	.loc 1 171 0
	veor	q8, q11, q1	@ prephitmp.905, prephitmp.905, D.16734
.L121:
	.loc 1 173 0
	veor	q11, q8, q10	@ prephitmp.905, prephitmp.905, D.16735
.L122:
	.loc 1 175 0
	veor	q8, q11, q15	@ prephitmp.905, prephitmp.905, D.16736
.L123:
	.loc 1 177 0
	veor	q11, q8, q13	@ prephitmp.905, prephitmp.905, D.16737
.L124:
	.loc 1 179 0
	veor	q8, q11, q3	@ prephitmp.905, prephitmp.905, D.16738
.L125:
	.loc 1 181 0
	veor	q11, q8, q4	@ prephitmp.905, prephitmp.905, D.16739
.L126:
	.loc 1 183 0
	veor	q8, q11, q0	@ prephitmp.905, prephitmp.905, D.16740
.L127:
	.loc 1 185 0
	veor	q11, q8, q6	@ prephitmp.905, prephitmp.905, D.16741
.L128:
	.loc 1 187 0
	veor	q8, q11, q5	@ prephitmp.905, prephitmp.905, D.16742
.L129:
	.loc 1 189 0
	veor	q11, q8, q12	@, prephitmp.905, D.16743
	vstr	d22, [sp, #16]	@, %sfp
	vstr	d23, [sp, #24]	@, %sfp
	vmov	q8, q11  @ v16qi	@,
.L130:
	.loc 1 191 0
	vldr	d22, [sp, #48]	@, %sfp
	vldr	d23, [sp, #56]	@, %sfp
	veor	q8, q8, q11	@,,
	vstmia	r4, {d16-d17}	@ *ck_r_2(D),
.L98:
.LVL137:
	ldr	r4, .L196+32	@ ivtmp.932,
.LVL138:
.LBB1190:
.LBB1191:
.LBB1192:
	.loc 2 7647 0
	vldr	d22, [sp, #32]	@, %sfp
	vldr	d23, [sp, #40]	@, %sfp
.LBE1192:
.LBE1191:
.LBE1190:
.LBE1339:
.LBE1345:
.LBB1346:
.LBB1347:
	.file 3 "crypto_aead/scream12v2/neon/scream.c"
	.loc 3 55 0
	movs	r0, #0	@ t,
.LBE1347:
.LBE1346:
.LBB1426:
.LBB1340:
.LBB1195:
.LBB1194:
.LBB1193:
	.loc 2 7647 0
	vzip.8	q11, q15	@, tmp2227
.LVL139:
	vstr	d22, [sp, #16]	@, %sfp
	vstr	d23, [sp, #24]	@, %sfp
.LVL140:
.LBE1193:
.LBE1194:
.LBE1195:
.LBB1196:
.LBB1197:
.LBB1198:
	vzip.8	q5, q1	@ tmp2240, tmp2241
.LBE1198:
.LBE1197:
.LBE1196:
.LBB1199:
.LBB1200:
.LBB1201:
	vzip.8	q0, q2	@ tmp2254, tmp2255
.LBE1201:
.LBE1200:
.LBE1199:
.LBB1202:
.LBB1203:
.LBB1204:
	vzip.8	q3, q14	@ tmp2268, tmp2269
.LBE1204:
.LBE1203:
.LBE1202:
.LBB1205:
.LBB1206:
.LBB1207:
	vldr	d22, [sp, #16]	@, %sfp
	vldr	d23, [sp, #24]	@, %sfp
.LBE1207:
.LBE1206:
.LBE1205:
.LBB1210:
.LBB1211:
.LBB1212:
	vzip.8	q5, q3	@ tmp2296, tmp2297
.LBE1212:
.LBE1211:
.LBE1210:
.LBB1213:
.LBB1209:
.LBB1208:
	vzip.8	q11, q0	@, tmp2283
.LVL141:
.LBE1208:
.LBE1209:
.LBE1213:
.LBB1214:
.LBB1215:
.LBB1216:
	vzip.8	q11, q5	@, tmp2339
.LBE1216:
.LBE1215:
.LBE1214:
.LBB1219:
.LBB1220:
.LBB1221:
	.loc 1 267 0
	add	r6, r4, #384	@ D.19120, ivtmp.932,
.LBE1221:
.LBE1220:
.LBE1219:
.LBB1226:
.LBB1218:
.LBB1217:
	.loc 2 7647 0
	vstr	d22, [sp, #16]	@, %sfp
	vstr	d23, [sp, #24]	@, %sfp
.LBE1217:
.LBE1218:
.LBE1226:
.LBB1227:
.LBB1228:
.LBB1229:
	vzip.8	q12, q10	@ tmp2233, tmp2234
.LVL142:
.LBE1229:
.LBE1228:
.LBE1227:
.LBB1230:
.LBB1231:
.LBB1232:
	vzip.8	q6, q9	@ tmp2247, tmp2248
.LVL143:
.LBE1232:
.LBE1231:
.LBE1230:
.LBB1233:
.LBB1234:
.LBB1235:
	vzip.8	q4, q7	@ tmp2261, tmp2262
.LVL144:
.LBE1235:
.LBE1234:
.LBE1233:
.LBB1236:
.LBB1237:
.LBB1238:
	vldr	d16, [sp, #64]	@, %sfp
	vldr	d17, [sp, #72]	@, %sfp
.LBE1238:
.LBE1237:
.LBE1236:
.LBB1241:
.LBB1242:
.LBB1243:
	vzip.8	q12, q4	@ tmp2289, tmp2290
.LVL145:
.LBE1243:
.LBE1242:
.LBE1241:
.LBB1244:
.LBB1240:
.LBB1239:
	vzip.8	q13, q8	@ tmp2275, tmp2276
.LVL146:
.LBE1239:
.LBE1240:
.LBE1244:
.LBB1245:
.LBB1246:
.LBB1247:
	vzip.8	q15, q2	@ tmp2310, tmp2311
.LVL147:
.LBE1247:
.LBE1246:
.LBE1245:
.LBB1248:
.LBB1249:
.LBB1250:
	vzip.8	q6, q13	@ tmp2303, tmp2304
.LVL148:
.LBE1250:
.LBE1249:
.LBE1248:
.LBB1251:
.LBB1252:
.LBB1253:
	vzip.8	q10, q7	@ tmp2317, tmp2318
.LVL149:
.LBE1253:
.LBE1252:
.LBE1251:
.LBB1254:
.LBB1255:
.LBB1256:
	vzip.8	q1, q14	@ tmp2324, tmp2325
.LVL150:
.LBE1256:
.LBE1255:
.LBE1254:
.LBB1257:
.LBB1258:
.LBB1259:
	vzip.8	q9, q8	@ tmp2331, tmp2332
.LVL151:
.LBE1259:
.LBE1258:
.LBE1257:
.LBB1260:
.LBB1261:
.LBB1262:
	vmov	q11, q12  @ v16qi	@, tmp2289
.LVL152:
.LBE1262:
.LBE1261:
.LBE1260:
.LBB1265:
.LBB1266:
.LBB1267:
	vzip.8	q0, q3	@ tmp2352, tmp2353
.LVL153:
.LBE1267:
.LBE1266:
.LBE1265:
.LBB1268:
.LBB1264:
.LBB1263:
	vzip.8	q11, q6	@, tmp2346
.LVL154:
.LBE1263:
.LBE1264:
.LBE1268:
.LBB1269:
.LBB1270:
.LBB1271:
	vzip.8	q4, q13	@ tmp2359, tmp2360
.LVL155:
.LBE1271:
.LBE1270:
.LBE1269:
.LBB1272:
.LBB1273:
.LBB1274:
	.loc 2 7648 0
	vzip.8	q5, q6	@,
.LVL156:
.LBE1274:
.LBE1273:
.LBE1272:
.LBB1279:
.LBB1280:
.LBB1281:
	vzip.8	q0, q4	@,
.LVL157:
.LBE1281:
.LBE1280:
.LBE1279:
.LBB1286:
.LBB1287:
.LBB1288:
	.loc 2 7647 0
	vzip.8	q15, q1	@ tmp2366, tmp2367
.LVL158:
.LBE1288:
.LBE1287:
.LBE1286:
.LBB1289:
.LBB1290:
.LBB1291:
	vzip.8	q10, q9	@ tmp2373, tmp2374
.LVL159:
.LBE1291:
.LBE1290:
.LBE1289:
.LBB1292:
.LBB1293:
.LBB1294:
	vzip.8	q2, q14	@ tmp2380, tmp2381
.LVL160:
.LBE1294:
.LBE1293:
.LBE1292:
.LBB1295:
.LBB1296:
.LBB1297:
	vzip.8	q7, q8	@ tmp2387, tmp2388
.LVL161:
.LBE1297:
.LBE1296:
.LBE1295:
.LBB1298:
.LBB1299:
.LBB1300:
	.loc 2 7648 0
	vzip.8	q3, q13	@ prephitmp.786,
.LVL162:
.LBE1300:
.LBE1299:
.LBE1298:
.LBB1303:
.LBB1304:
.LBB1305:
	vzip.8	q2, q7	@ prephitmp.786,
.LVL163:
.LBE1305:
.LBE1304:
.LBE1303:
.LBB1308:
.LBB1309:
.LBB1310:
	vldr	d24, [sp, #16]	@, %sfp
	vldr	d25, [sp, #24]	@, %sfp
.LVL164:
.LBE1310:
.LBE1309:
.LBE1308:
.LBB1315:
.LBB1277:
.LBB1275:
	vstr	d12, [sp, #144]	@, %sfp
	vstr	d13, [sp, #152]	@, %sfp
.LBE1275:
.LBE1277:
.LBE1315:
.LBB1316:
.LBB1313:
.LBB1311:
	vzip.8	q12, q11	@,
.LBE1311:
.LBE1313:
.LBE1316:
.LBB1317:
.LBB1278:
.LBB1276:
	vstr	d10, [sp, #208]	@, %sfp
	vstr	d11, [sp, #216]	@, %sfp
.LBE1276:
.LBE1278:
.LBE1317:
.LBB1318:
.LBB1284:
.LBB1282:
	vstr	d0, [sp, #224]	@, %sfp
	vstr	d1, [sp, #232]	@, %sfp
.LBE1282:
.LBE1284:
.LBE1318:
.LBB1319:
.LBB1320:
.LBB1321:
	vzip.8	q15, q10	@ prephitmp.786,
.LVL165:
.LBE1321:
.LBE1320:
.LBE1319:
.LBB1324:
.LBB1325:
.LBB1326:
	vzip.8	q1, q9	@ prephitmp.786,
.LVL166:
.LBE1326:
.LBE1325:
.LBE1324:
.LBB1329:
.LBB1307:
.LBB1306:
	vstr	d14, [sp, #32]	@, %sfp
	vstr	d15, [sp, #40]	@, %sfp
.LBE1306:
.LBE1307:
.LBE1329:
.LBB1330:
.LBB1224:
.LBB1222:
	vmov	q5, q8  @ v16qi	@ prephitmp.786, tmp2388
.LBE1222:
.LBE1224:
.LBE1330:
.LBE1340:
.LBE1426:
.LBB1427:
.LBB1424:
.LBB1348:
.LBB1349:
.LBB1350:
	.loc 3 194 0
	vmov	q0, q7  @ v16qi	@ prephitmp.786,
.LBE1350:
.LBE1349:
.LBE1348:
.LBE1424:
.LBE1427:
.LBB1428:
.LBB1341:
.LBB1331:
.LBB1314:
.LBB1312:
	.loc 2 7648 0
	vstr	d22, [sp, #96]	@, %sfp
	vstr	d23, [sp, #104]	@, %sfp
	vstr	d24, [sp, #192]	@, %sfp
	vstr	d25, [sp, #200]	@, %sfp
.LVL167:
.LBE1312:
.LBE1314:
.LBE1331:
.LBB1332:
.LBB1285:
.LBB1283:
	vstr	d8, [sp, #160]	@, %sfp
	vstr	d9, [sp, #168]	@, %sfp
.LBE1283:
.LBE1285:
.LBE1332:
.LBB1333:
.LBB1302:
.LBB1301:
	vstr	d26, [sp, #176]	@, %sfp
	vstr	d27, [sp, #184]	@, %sfp
.LVL168:
.LBE1301:
.LBE1302:
.LBE1333:
.LBB1334:
.LBB1323:
.LBB1322:
	vstr	d20, [sp, #48]	@, %sfp
	vstr	d21, [sp, #56]	@, %sfp
.LVL169:
.LBE1322:
.LBE1323:
.LBE1334:
.LBB1335:
.LBB1328:
.LBB1327:
	vstr	d18, [sp, #64]	@, %sfp
	vstr	d19, [sp, #72]	@, %sfp
.LVL170:
.LBE1327:
.LBE1328:
.LBE1335:
.LBB1336:
.LBB1225:
.LBB1223:
	vzip.8	q14, q5	@ prephitmp.786, prephitmp.786
.LVL171:
.LBE1223:
.LBE1225:
.LBE1336:
.LBE1341:
.LBE1428:
.LBB1429:
.LBB1425:
.LBB1375:
.LBB1363:
.LBB1351:
	.loc 3 199 0
	vmov.i8	q6, #15  @ v16qi	@ tmp3688,
.LVL172:
	.loc 3 194 0
	vmov	q7, q3  @ v16qi	@ prephitmp.786, prephitmp.786
.LVL173:
.L131:
.LBE1351:
.LBE1363:
.LBE1375:
	.loc 3 61 0
	add	r5, r3, r0, lsl #4	@, tmp2452, tweakey, t,
	vldr	d16, [sp, #192]	@, %sfp
	vldr	d17, [sp, #200]	@, %sfp
	vldmia	r5, {d6-d7}	@ *D.16894_1537, *D.16894_1537
	vldr	d22, [r5, #16]	@, *D.16894_1552
	vldr	d23, [r5, #24]	@, *D.16894_1552
	veor	q9, q8, q3	@ D.16892,, *D.16894_1537
.LVL174:
	vldr	d24, [sp, #208]	@, %sfp
	vldr	d25, [sp, #216]	@, %sfp
	vldr	d26, [r5, #64]	@, *D.16894_1597
	vldr	d27, [r5, #72]	@, *D.16894_1597
	veor	q4, q12, q11	@ D.16892,, *D.16894_1552
.LVL175:
	veor	q15, q15, q13	@ D.16892, prephitmp.786, *D.16894_1597
.LVL176:
	vldr	d20, [r5, #80]	@, *D.16894_1612
	vldr	d21, [r5, #88]	@, *D.16894_1612
	vldr	d6, [r5, #96]	@, *D.16894_1627
	vldr	d7, [r5, #104]	@, *D.16894_1627
	veor	q1, q1, q10	@ D.16892, prephitmp.786, *D.16894_1612
.LVL177:
	veor	q2, q2, q3	@ D.16892, prephitmp.786, *D.16894_1627
.LVL178:
	vldr	d16, [r5, #112]	@, *D.16894_1642
	vldr	d17, [r5, #120]	@, *D.16894_1642
	vldr	d22, [r5, #32]	@, *D.16894_1567
	vldr	d23, [r5, #40]	@, *D.16894_1567
	veor	q12, q14, q8	@ D.16892, prephitmp.786, *D.16894_1642
.LVL179:
.LBB1376:
	.loc 3 63 0
	vldr	d20, [sp, #224]	@, %sfp
	vldr	d21, [sp, #232]	@, %sfp
	vand	q14, q4, q9	@ D.16888, D.16892, D.16892
.LBE1376:
	.loc 3 61 0
	vldr	d16, [r5, #48]	@, *D.16894_1582
	vldr	d17, [r5, #56]	@, *D.16894_1582
	veor	q13, q14, q11	@ tmp2477, D.16888, *D.16894_1567
.LBB1377:
	.loc 3 63 0
	vand	q14, q15, q9	@ D.16883, D.16892, D.16892
	veor	q3, q13, q10	@ D.16887, tmp2477,
.LBE1377:
	.loc 3 61 0
	veor	q11, q14, q8	@ tmp2482, D.16883, *D.16894_1582
.LBB1378:
	.loc 3 63 0
	veor	q4, q3, q4	@ D.16886, D.16887, D.16892
	veor	q7, q11, q7	@ D.16882, tmp2482, prephitmp.786
	veor	q15, q4, q15	@ D.16878, D.16886, D.16892
	veor	q13, q7, q3	@ D.16881, D.16882, D.16887
	vand	q10, q4, q7	@ tmp2484, D.16886, D.16882
	vand	q14, q15, q13	@ tmp2487, D.16878, D.16881
	veor	q3, q10, q9	@ D.16879, tmp2484, D.16892
	vbic	q8, q12, q2	@ tmp2489, D.16892, D.16892
	veor	q11, q3, q1	@ D.16873, D.16879, D.16892
	veor	q9, q4, q2	@ tmp2485, D.16886, D.16892
	vmvn	q10, q15	@ D.16867, D.16878
.LVL180:
	veor	q4, q9, q3	@ tmp2486, tmp2485, D.16879
	vbic	q15, q1, q12	@ tmp2492, D.16892, D.16892
	veor	q9, q4, q14	@ D.16871, tmp2486, tmp2487
	veor	q3, q8, q3	@, tmp2489, D.16879
	veor	q4, q15, q2	@ tmp2493, tmp2492, D.16892
	vbic	q1, q2, q1	@ tmp2495, D.16892, D.16892
.LVL181:
	veor	q14, q4, q9	@, tmp2493, D.16871
	veor	q2, q13, q12	@ D.16869, D.16881, D.16892
.LVL182:
	vand	q8, q11, q10	@ tmp2498, D.16873, D.16867
	veor	q12, q1, q13	@, tmp2495, D.16881
	vmvn	q7, q7	@ D.16868, D.16882
	vand	q13, q9, q11	@ tmp2497, D.16871, D.16873
	veor	q8, q8, q7	@ D.16882, tmp2498, D.16868
.LBE1378:
	.loc 3 65 0
	vldr	d2, [r4, #-16]	@, MEM[base: D.19117_2862, offset: 4294967280B]
	vldr	d3, [r4, #-8]	@, MEM[base: D.19117_2862, offset: 4294967280B]
.LBB1379:
	.loc 3 63 0
	vstr	d6, [sp, #112]	@, %sfp
	vstr	d7, [sp, #120]	@, %sfp
	vstr	d28, [sp, #128]	@, %sfp
	vstr	d29, [sp, #136]	@, %sfp
	veor	q3, q13, q2	@ D.16887, tmp2497, D.16869
	vstr	d24, [sp, #80]	@, %sfp
	vstr	d25, [sp, #88]	@, %sfp
	veor	q9, q3, q9	@ D.16886, D.16887, D.16871
	veor	q15, q3, q8	@, D.16887, D.16882
	vand	q7, q9, q8	@ tmp2499, D.16886, D.16882
	veor	q10, q9, q10	@ D.16878, D.16886, D.16867
.LBE1379:
	.loc 3 69 0
	vldr	d24, [sp, #96]	@, %sfp
	vldr	d25, [sp, #104]	@, %sfp
.LBB1380:
	.loc 3 63 0
	vand	q4, q10, q15	@ tmp2500, D.16878,
	veor	q11, q7, q11	@ D.16879, tmp2499, D.16873
.LBE1380:
	.loc 3 69 0
	vldr	d4, [r5, #128]	@, *D.16894_1657
	vldr	d5, [r5, #136]	@, *D.16894_1657
.LBB1381:
	.loc 3 63 0
	veor	q14, q11, q4	@ tmp2501, D.16879, tmp2500
.LBE1381:
	.loc 3 65 0
	veor	q7, q11, q1	@ D.16855, D.16879,
	.loc 3 69 0
	vldr	d26, [r5, #144]	@, *D.16894_1672
	vldr	d27, [r5, #152]	@, *D.16894_1672
	veor	q1, q12, q2	@ D.16892,, *D.16894_1657
.LVL183:
	vldr	d6, [sp, #144]	@, %sfp
	vldr	d7, [sp, #152]	@, %sfp
	vldr	d8, [r5, #160]	@, *D.16894_1687
	vldr	d9, [r5, #168]	@, *D.16894_1687
	veor	q3, q3, q13	@ D.16892,, *D.16894_1672
.LVL184:
	vldr	d24, [sp, #64]	@, %sfp
	vldr	d25, [sp, #72]	@, %sfp
	vldr	d26, [r5, #224]	@, *D.16894_1747
	vldr	d27, [r5, #232]	@, *D.16894_1747
.LBB1382:
	.loc 3 63 0
	vstr	d30, [sp, #32]	@, %sfp
	vstr	d31, [sp, #40]	@, %sfp
.LBE1382:
	.loc 3 69 0
	vldr	d22, [r5, #192]	@, *D.16894_1717
	vldr	d23, [r5, #200]	@, *D.16894_1717
.LBB1383:
	.loc 3 63 0
	veor	q15, q14, q9	@ D.16875, tmp2501, D.16886
.LBE1383:
	.loc 3 69 0
	vldr	d4, [r5, #208]	@, *D.16894_1732
	vldr	d5, [r5, #216]	@, *D.16894_1732
	vldr	d28, [sp, #48]	@, %sfp
	vldr	d29, [sp, #56]	@, %sfp
	veor	q2, q12, q2	@ D.16892,, *D.16894_1732
	veor	q11, q14, q11	@ D.16892,, *D.16894_1717
	veor	q12, q0, q13	@ D.16892, prephitmp.786, *D.16894_1747
	vldr	d18, [r5, #176]	@, *D.16894_1702
	vldr	d19, [r5, #184]	@, *D.16894_1702
.LVL185:
.LBB1384:
	.loc 3 71 0
	vand	q13, q11, q1	@ D.16846, D.16892, D.16892
.LBE1384:
	.loc 3 69 0
	vldr	d0, [r5, #240]	@, *D.16894_1762
	vldr	d1, [r5, #248]	@, *D.16894_1762
	veor	q9, q13, q9	@ tmp2534, D.16846, D.16893
	veor	q0, q5, q0	@ D.16892, prephitmp.786, *D.16894_1762
.LBB1385:
	.loc 3 71 0
	vand	q5, q3, q1	@ D.16851, D.16892, D.16892
.LBE1385:
	.loc 3 69 0
	veor	q14, q5, q4	@ tmp2533, D.16851, D.16893
.LBB1386:
	.loc 3 71 0
	vldr	d8, [sp, #160]	@, %sfp
	vldr	d9, [sp, #168]	@, %sfp
	vldr	d10, [sp, #176]	@, %sfp
	vldr	d11, [sp, #184]	@, %sfp
	veor	q14, q14, q4	@ D.16850, tmp2533,
	veor	q4, q9, q5	@ D.16845, tmp2534,
	veor	q3, q14, q3	@ D.16849, D.16850, D.16892
	veor	q14, q4, q14	@ D.16844, D.16845, D.16850
	vand	q13, q3, q4	@ tmp2535, D.16849, D.16845
	veor	q11, q3, q11	@ D.16841, D.16849, D.16892
	veor	q1, q13, q1	@ D.16842, tmp2535, D.16892
	vand	q5, q11, q14	@ tmp2538, D.16841, D.16844
	veor	q13, q1, q2	@ D.16836, D.16842, D.16892
	veor	q3, q3, q12	@ tmp2536, D.16849, D.16892
	vmvn	q11, q11	@ D.16830, D.16841
	veor	q9, q3, q1	@ tmp2537, tmp2536, D.16842
	veor	q3, q9, q5	@ D.16834, tmp2537, tmp2538
	vbic	q5, q2, q0	@ tmp2543, D.16892, D.16892
	vmvn	q9, q4	@ D.16831, D.16845
	vbic	q2, q12, q2	@ tmp2546, D.16892, D.16892
	vbic	q4, q0, q12	@ tmp2540, D.16892, D.16892
	veor	q0, q14, q0	@ D.16832, D.16844, D.16892
	veor	q1, q4, q1	@, tmp2540, D.16842
	veor	q4, q5, q12	@ tmp2544, tmp2543, D.16892
	vstr	d2, [sp, #16]	@, %sfp
	vstr	d3, [sp, #24]	@, %sfp
	veor	q12, q2, q14	@, tmp2546, D.16844
	veor	q1, q4, q3	@, tmp2544, D.16834
	vand	q14, q3, q13	@ tmp2548, D.16834, D.16836
	vand	q4, q13, q11	@ tmp2549, D.16836, D.16830
	veor	q5, q14, q0	@ D.16850, tmp2548, D.16832
	veor	q9, q4, q9	@ D.16845, tmp2549, D.16831
	veor	q3, q5, q3	@ D.16849, D.16850, D.16834
	veor	q0, q5, q9	@ D.16844, D.16850, D.16845
	veor	q11, q3, q11	@ D.16841, D.16849, D.16830
	vstr	d2, [sp, #96]	@, %sfp
	vstr	d3, [sp, #104]	@, %sfp
	vstr	d24, [sp, #144]	@, %sfp
	vstr	d25, [sp, #152]	@, %sfp
	vand	q1, q3, q9	@ tmp2550, D.16849, D.16845
.LBE1386:
.LBB1387:
.LBB1364:
.LBB1352:
	.loc 3 187 0
	vshr.u8	q14, q15, #4	@ t1, D.16875,
.LBE1352:
.LBE1364:
.LBE1387:
.LBB1388:
	.loc 3 71 0
	veor	q4, q1, q13	@ D.16842, tmp2550, D.16836
.LBE1388:
.LBB1389:
.LBB1365:
.LBB1353:
	.loc 3 200 0
	vand	q15, q15, q6	@ tmp2577, D.16875, tmp3688
	.loc 3 190 0
	vand	q14, q14, q6	@ tmp2582, t1, tmp3688
.LBE1353:
.LBE1365:
.LBE1389:
.LBB1390:
	.loc 3 71 0
	vand	q13, q11, q0	@ tmp2551, D.16841, D.16844
.LBE1390:
.LBB1391:
.LBB1366:
.LBB1354:
	.loc 3 186 0
	vshr.u8	q1, q7, #4	@ t0, D.16855,
.LBE1354:
.LBE1366:
.LBE1391:
.LBB1392:
	.loc 3 71 0
	veor	q2, q4, q13	@ tmp2552, D.16842, tmp2551
.LBE1392:
.LBB1393:
.LBB1367:
.LBB1355:
	.loc 3 199 0
	vand	q7, q7, q6	@ tmp2555, D.16855, tmp3688
	.loc 3 189 0
	vand	q1, q1, q6	@ tmp2569, t0, tmp3688
.LBE1355:
.LBE1367:
.LBE1393:
.LBB1394:
	.loc 3 71 0
	veor	q3, q2, q3	@ D.16838, tmp2552, D.16849
.LBE1394:
.LBB1395:
.LBB1368:
.LBB1356:
	.loc 3 199 0
	vldr	d26, .L196	@,
	vldr	d27, .L196+8	@,
	.loc 3 210 0
	vshr.u8	q12, q3, #4	@, D.16838,
	.loc 3 199 0
	vtbl.8	d4, {d26, d27}, d14	@ tmp2553,,, tmp2555
	.loc 3 210 0
	vstr	d24, [sp, #64]	@, %sfp
	vstr	d25, [sp, #72]	@, %sfp
	.loc 3 223 0
	vand	q3, q3, q6	@ tmp2573, D.16838, tmp3688
	.loc 3 199 0
	vtbl.8	d5, {d26, d27}, d15	@,,,
	.loc 3 212 0
	vldr	d24, .L196+16	@,
	vldr	d25, .L196+24	@,
	.loc 3 209 0
	vshr.u8	q5, q4, #4	@ t0, D.16842,
	b	.L197	@
.L198:
	.align	3
.L196:
	.byte	0
	.byte	92
	.byte	-87
	.byte	-11
	.byte	-77
	.byte	-17
	.byte	26
	.byte	70
	.byte	-63
	.byte	-99
	.byte	104
	.byte	52
	.byte	114
	.byte	46
	.byte	-37
	.byte	-121
	.byte	0
	.byte	18
	.byte	111
	.byte	125
	.byte	27
	.byte	9
	.byte	116
	.byte	102
	.byte	-79
	.byte	-93
	.byte	-34
	.byte	-52
	.byte	-86
	.byte	-72
	.byte	-59
	.byte	-41
	.word	.LANCHOR0+16
.L197:
	.loc 3 222 0
	vand	q4, q4, q6	@ tmp2564, D.16842, tmp3688
	.loc 3 212 0
	vand	q5, q5, q6	@ tmp2559, t0, tmp3688
	vtbl.8	d26, {d24, d25}, d10	@ tmp2557,,, tmp2559
	vtbl.8	d27, {d24, d25}, d11	@,,,
	.loc 3 222 0
	vldr	d24, .L199	@,
	vldr	d25, .L199+8	@,
	.loc 3 199 0
	veor	q2, q2, q13	@ tmp2561, tmp2553, tmp2557
	.loc 3 222 0
	vtbl.8	d26, {d24, d25}, d8	@ tmp2562,,, tmp2564
	vtbl.8	d27, {d24, d25}, d9	@,,,
	.loc 3 189 0
	vldr	d24, .L199+16	@,
	vldr	d25, .L199+24	@,
	.loc 3 212 0
	veor	q2, q2, q13	@ tmp2566, tmp2561, tmp2562
	.loc 3 189 0
	vtbl.8	d26, {d24, d25}, d2	@ tmp2567,,, tmp2569
	vtbl.8	d27, {d24, d25}, d3	@,,,
	.loc 3 200 0
	vldr	d24, .L199+32	@,
	vldr	d25, .L199+40	@,
	.loc 3 222 0
	veor	q13, q2, q13	@, tmp2566, tmp2567
	.loc 3 223 0
	vldr	d4, .L199	@,
	vldr	d5, .L199+8	@,
	.loc 3 222 0
	vstr	d26, [sp, #48]	@, %sfp
	vstr	d27, [sp, #56]	@, %sfp
	.loc 3 223 0
	vtbl.8	d26, {d4, d5}, d6	@ tmp2571,,, tmp2573
	vtbl.8	d27, {d4, d5}, d7	@,,,
	.loc 3 200 0
	vtbl.8	d4, {d24, d25}, d30	@ tmp2575,,, tmp2577
	vtbl.8	d5, {d24, d25}, d31	@,,,
	.loc 3 190 0
	vldr	d24, .L199+16	@,
	vldr	d25, .L199+24	@,
	.loc 3 200 0
	veor	q2, q13, q2	@ tmp2579, tmp2571, tmp2575
	.loc 3 190 0
	vtbl.8	d26, {d24, d25}, d28	@ tmp2580,,, tmp2582
	vtbl.8	d27, {d24, d25}, d29	@,,,
	.loc 3 213 0
	veor	q13, q2, q13	@, tmp2579, tmp2580
	vstr	d26, [sp, #160]	@, %sfp
	vstr	d27, [sp, #168]	@, %sfp
	vldr	d4, [sp, #64]	@, %sfp
	vldr	d5, [sp, #72]	@, %sfp
	vldr	d26, .L199+80	@,
	vldr	d27, .L199+88	@,
	vand	q12, q2, q6	@ tmp2587,, tmp3688
	vtbl.8	d4, {d26, d27}, d24	@,,, tmp2587
	vtbl.8	d5, {d26, d27}, d25	@,,,
	.loc 3 223 0
	vldr	d26, [sp, #160]	@, %sfp
	vldr	d27, [sp, #168]	@, %sfp
	veor	q2, q13, q2	@,,
	vstr	d4, [sp, #160]	@, %sfp
	vstr	d5, [sp, #168]	@, %sfp
	.loc 3 204 0
	vldr	d4, .L199+48	@,
	vldr	d5, .L199+56	@,
	vtbl.8	d26, {d4, d5}, d14	@ tmp2589,,, tmp2555
	vtbl.8	d27, {d4, d5}, d15	@,,,
	.loc 3 217 0
	vldr	d14, .L199+64	@,
	vldr	d15, .L199+72	@,
	vtbl.8	d4, {d14, d15}, d10	@ tmp2593,,, tmp2559
	vtbl.8	d5, {d14, d15}, d11	@,,,
	.loc 3 204 0
	veor	q13, q13, q2	@ tmp2597, tmp2589, tmp2593
	.loc 3 227 0
	vldr	d4, .L199+96	@,
	vldr	d5, .L199+104	@,
	vtbl.8	d10, {d4, d5}, d8	@ tmp2598,,, tmp2564
	vtbl.8	d11, {d4, d5}, d9	@,,,
	.loc 3 217 0
	veor	q7, q13, q5	@ tmp2602, tmp2597, tmp2598
	.loc 3 194 0
	vldr	d10, .L199+144	@,
	vldr	d11, .L199+152	@,
	.loc 3 228 0
	vtbl.8	d26, {d4, d5}, d6	@ tmp2607,,, tmp2573
	vtbl.8	d27, {d4, d5}, d7	@,,,
	.loc 3 194 0
	vtbl.8	d8, {d10, d11}, d2	@ tmp2603,,, tmp2569
	vtbl.8	d9, {d10, d11}, d3	@,,,
	.loc 3 205 0
	vldr	d2, .L199+48	@,
	vldr	d3, .L199+56	@,
	.loc 3 227 0
	veor	q4, q7, q4	@, tmp2602, tmp2603
	.loc 3 205 0
	vtbl.8	d6, {d2, d3}, d30	@ tmp2611,,, tmp2577
	vtbl.8	d7, {d2, d3}, d31	@,,,
	.loc 3 195 0
	vtbl.8	d30, {d10, d11}, d28	@ tmp2616,,, tmp2582
	.loc 3 205 0
	veor	q3, q13, q3	@ tmp2615, tmp2607, tmp2611
	.loc 3 195 0
	vtbl.8	d31, {d10, d11}, d29	@,,,
	.loc 3 218 0
	vldr	d26, .L199+64	@,
	vldr	d27, .L199+72	@,
	veor	q15, q3, q15	@ tmp2620, tmp2615, tmp2616
	.loc 3 223 0
	vldr	d10, .L199	@,
	vldr	d11, .L199+8	@,
	.loc 3 218 0
	vtbl.8	d28, {d26, d27}, d24	@ tmp2621,,, tmp2587
	vtbl.8	d29, {d26, d27}, d25	@,,,
	.loc 3 209 0
	vshr.u8	q7, q0, #4	@, D.16844,
	.loc 3 228 0
	veor	q14, q15, q14	@, tmp2620, tmp2621
	.loc 3 186 0
	vldr	d24, [sp, #32]	@, %sfp
	vldr	d25, [sp, #40]	@, %sfp
	.loc 3 228 0
	vstr	d28, [sp, #176]	@, %sfp
	vstr	d29, [sp, #184]	@, %sfp
	.loc 3 186 0
	vshr.u8	q2, q12, #4	@,,
	.loc 3 209 0
	vstr	d14, [sp, #208]	@, %sfp
	vstr	d15, [sp, #216]	@, %sfp
	.loc 3 186 0
	vstr	d4, [sp, #192]	@, %sfp
	vstr	d5, [sp, #200]	@, %sfp
	.loc 3 210 0
	vshr.u8	q3, q9, #4	@ t1, D.16845,
	.loc 3 200 0
	vldr	d2, .L199+32	@,
	vldr	d3, .L199+40	@,
	.loc 3 223 0
	vand	q9, q9, q6	@ tmp2627, D.16845, tmp3688
	.loc 3 213 0
	vand	q12, q3, q6	@ tmp2641, t1, tmp3688
	.loc 3 223 0
	vtbl.8	d28, {d10, d11}, d18	@ tmp2625,,, tmp2627
	vtbl.8	d29, {d10, d11}, d19	@,,,
	.loc 3 228 0
	vldr	d6, .L199+96	@,
	vldr	d7, .L199+104	@,
	.loc 3 227 0
	vstr	d8, [sp, #64]	@, %sfp
	vstr	d9, [sp, #72]	@, %sfp
	.loc 3 187 0
	vshr.u8	q4, q8, #4	@ t1, D.16882,
	.loc 3 200 0
	vand	q8, q8, q6	@ tmp2631, D.16882, tmp3688
	.loc 3 190 0
	vand	q13, q4, q6	@ tmp2636, t1, tmp3688
	.loc 3 200 0
	vtbl.8	d30, {d2, d3}, d16	@ tmp2629,,, tmp2631
	vtbl.8	d31, {d2, d3}, d17	@,,,
	.loc 3 213 0
	vldr	d8, .L199+80	@,
	vldr	d9, .L199+88	@,
	.loc 3 200 0
	veor	q15, q14, q15	@ tmp2633, tmp2625, tmp2629
	.loc 3 190 0
	vldr	d28, .L199+16	@,
	vldr	d29, .L199+24	@,
	vtbl.8	d10, {d28, d29}, d26	@ tmp2634,,, tmp2636
	vtbl.8	d11, {d28, d29}, d27	@,,,
	.loc 3 228 0
	vtbl.8	d28, {d6, d7}, d18	@ tmp2643,,, tmp2627
	.loc 3 213 0
	veor	q2, q15, q5	@ tmp2638, tmp2633, tmp2634
	.loc 3 228 0
	vtbl.8	d29, {d6, d7}, d19	@,,,
	.loc 3 213 0
	vtbl.8	d10, {d8, d9}, d24	@ tmp2639,,, tmp2641
	.loc 3 210 0
	vldr	d6, [sp, #16]	@, %sfp
	vldr	d7, [sp, #24]	@, %sfp
	.loc 3 213 0
	vtbl.8	d11, {d8, d9}, d25	@,,,
	.loc 3 218 0
	vldr	d30, .L199+64	@,
	vldr	d31, .L199+72	@,
	.loc 3 223 0
	veor	q7, q2, q5	@, tmp2638, tmp2639
	.loc 3 222 0
	vldr	d8, .L199	@,
	vldr	d9, .L199+8	@,
	.loc 3 223 0
	vstr	d14, [sp, #224]	@, %sfp
	vstr	d15, [sp, #232]	@, %sfp
	.loc 3 205 0
	vldr	d10, .L199+48	@,
	vldr	d11, .L199+56	@,
	.loc 3 186 0
	vshr.u8	q7, q10, #4	@ t0, D.16878,
	.loc 3 205 0
	vtbl.8	d18, {d10, d11}, d16	@ tmp2647,,, tmp2631
	.loc 3 199 0
	vand	q10, q10, q6	@ tmp2667, D.16878, tmp3688
	.loc 3 205 0
	vtbl.8	d19, {d10, d11}, d17	@,,,
	.loc 3 209 0
	vshr.u8	q2, q11, #4	@ t0, D.16841,
	.loc 3 199 0
	vldr	d10, .L199+32	@,
	vldr	d11, .L199+40	@,
	.loc 3 222 0
	vand	q11, q11, q6	@ tmp2663, D.16841, tmp3688
	.loc 3 205 0
	veor	q1, q14, q9	@ tmp2651, tmp2643, tmp2647
	.loc 3 195 0
	vldr	d18, .L199+144	@,
	vldr	d19, .L199+152	@,
	.loc 3 210 0
	vshr.u8	q14, q3, #4	@ t1,,
	.loc 3 195 0
	vtbl.8	d16, {d18, d19}, d26	@ tmp2652,,, tmp2636
	.loc 3 213 0
	vand	q14, q14, q6	@ tmp2695, t1, tmp3688
	.loc 3 195 0
	vtbl.8	d17, {d18, d19}, d27	@,,,
	.loc 3 218 0
	vtbl.8	d26, {d30, d31}, d24	@ tmp2657,,, tmp2641
	veor	q8, q1, q8	@ tmp2656, tmp2651, tmp2652
	vtbl.8	d27, {d30, d31}, d25	@,,,
	.loc 3 187 0
	vldr	d24, [sp, #112]	@, %sfp
	vldr	d25, [sp, #120]	@, %sfp
	.loc 3 228 0
	veor	q13, q8, q13	@, tmp2656, tmp2657
	.loc 3 212 0
	vldr	d30, .L199+80	@,
	vldr	d31, .L199+88	@,
	.loc 3 222 0
	vtbl.8	d16, {d8, d9}, d22	@ tmp2661,,, tmp2663
	vtbl.8	d17, {d8, d9}, d23	@,,,
	.loc 3 228 0
	vstr	d26, [sp, #240]	@, %sfp
	vstr	d27, [sp, #248]	@, %sfp
	.loc 3 199 0
	vtbl.8	d8, {d10, d11}, d20	@ tmp2665,,, tmp2667
	.loc 3 189 0
	vand	q13, q7, q6	@ tmp2672, t0, tmp3688
	.loc 3 199 0
	vtbl.8	d9, {d10, d11}, d21	@,,,
	.loc 3 189 0
	vldr	d14, .L199+16	@,
	vldr	d15, .L199+24	@,
	.loc 3 199 0
	veor	q1, q8, q4	@ tmp2669, tmp2661, tmp2665
	.loc 3 187 0
	vshr.u8	q9, q12, #4	@ t1,,
	.loc 3 189 0
	vtbl.8	d16, {d14, d15}, d26	@ tmp2670,,, tmp2672
	.loc 3 212 0
	vand	q12, q2, q6	@ tmp2677, t0, tmp3688
	.loc 3 190 0
	vand	q9, q9, q6	@ tmp2690, t1, tmp3688
	.loc 3 189 0
	vtbl.8	d17, {d14, d15}, d27	@,,,
	.loc 3 223 0
	vldr	d4, .L199	@,
	vldr	d5, .L199+8	@,
	.loc 3 212 0
	veor	q4, q1, q8	@ tmp2674, tmp2669, tmp2670
	vtbl.8	d16, {d30, d31}, d24	@ tmp2675,,, tmp2677
	vtbl.8	d17, {d30, d31}, d25	@,,,
	.loc 3 200 0
	vldr	d2, [sp, #112]	@, %sfp
	vldr	d3, [sp, #120]	@, %sfp
	.loc 3 222 0
	veor	q8, q4, q8	@, tmp2674, tmp2675
	.loc 3 200 0
	vand	q15, q1, q6	@ tmp2685,, tmp3688
	.loc 3 222 0
	vstmia	sp, {d16-d17}	@ %sfp,
	.loc 3 204 0
	vldr	d2, .L199+48	@,
	vldr	d3, .L199+56	@,
	.loc 3 223 0
	vand	q8, q3, q6	@ tmp2681,, tmp3688
	.loc 3 227 0
	vldr	d8, .L199+96	@,
	vldr	d9, .L199+104	@,
	.loc 3 223 0
	vtbl.8	d6, {d4, d5}, d16	@ tmp2679,,, tmp2681
	vtbl.8	d7, {d4, d5}, d17	@,,,
	.loc 3 200 0
	vtbl.8	d4, {d10, d11}, d30	@ tmp2683,,, tmp2685
	vtbl.8	d5, {d10, d11}, d31	@,,,
	.loc 3 213 0
	vldr	d10, .L199+80	@,
	vldr	d11, .L199+88	@,
	.loc 3 200 0
	veor	q3, q3, q2	@ tmp2687, tmp2679, tmp2683
	.loc 3 190 0
	vtbl.8	d4, {d14, d15}, d18	@ tmp2688,,, tmp2690
	vtbl.8	d5, {d14, d15}, d19	@,,,
	.loc 3 213 0
	veor	q7, q3, q2	@ tmp2692, tmp2687, tmp2688
	vtbl.8	d4, {d10, d11}, d28	@ tmp2693,,, tmp2695
	vtbl.8	d5, {d10, d11}, d29	@,,,
	.loc 3 222 0
	vldr	d10, .L199	@,
	vldr	d11, .L199+8	@,
	.loc 3 223 0
	veor	q3, q7, q2	@ D.16918, tmp2692, tmp2693
	.loc 3 227 0
	vtbl.8	d4, {d8, d9}, d22	@ tmp2697,,, tmp2663
	vtbl.8	d5, {d8, d9}, d23	@,,,
	.loc 3 204 0
	vtbl.8	d22, {d2, d3}, d20	@ tmp2701,,, tmp2667
	.loc 3 194 0
	vldr	d8, .L199+144	@,
	vldr	d9, .L199+152	@,
	.loc 3 204 0
	vtbl.8	d23, {d2, d3}, d21	@,,,
	.loc 3 194 0
	vtbl.8	d20, {d8, d9}, d26	@ tmp2706,,, tmp2672
	.loc 3 204 0
	veor	q11, q2, q11	@ tmp2705, tmp2697, tmp2701
	.loc 3 194 0
	vtbl.8	d21, {d8, d9}, d27	@,,,
	.loc 3 217 0
	vldr	d4, .L199+64	@,
	vldr	d5, .L199+72	@,
	veor	q10, q11, q10	@ tmp2710, tmp2705, tmp2706
	vtbl.8	d26, {d4, d5}, d24	@ tmp2711,,, tmp2677
	vtbl.8	d27, {d4, d5}, d25	@,,,
	.loc 3 205 0
	vtbl.8	d22, {d2, d3}, d30	@ tmp2719,,, tmp2685
	.loc 3 227 0
	veor	q13, q10, q13	@, tmp2710, tmp2711
	.loc 3 228 0
	vldr	d24, .L199+96	@,
	vldr	d25, .L199+104	@,
	.loc 3 205 0
	vtbl.8	d23, {d2, d3}, d31	@,,,
	.loc 3 228 0
	vtbl.8	d20, {d24, d25}, d16	@ tmp2715,,, tmp2681
	vtbl.8	d21, {d24, d25}, d17	@,,,
	.loc 3 195 0
	vtbl.8	d16, {d8, d9}, d18	@ tmp2724,,, tmp2690
	.loc 3 205 0
	veor	q15, q10, q11	@ tmp2723, tmp2715, tmp2719
	.loc 3 218 0
	vtbl.8	d18, {d4, d5}, d28	@ tmp2729,,, tmp2695
	.loc 3 186 0
	vldr	d24, [sp, #128]	@, %sfp
	vldr	d25, [sp, #136]	@, %sfp
	.loc 3 195 0
	vtbl.8	d17, {d8, d9}, d19	@,,,
	.loc 3 227 0
	vstr	d26, [sp, #16]	@, %sfp
	vstr	d27, [sp, #24]	@, %sfp
	.loc 3 218 0
	veor	q8, q15, q8	@ tmp2728, tmp2723, tmp2724
	vtbl.8	d19, {d4, d5}, d29	@,,,
	.loc 3 199 0
	vldr	d30, .L199+32	@,
	vldr	d31, .L199+40	@,
	.loc 3 228 0
	veor	q11, q8, q9	@ D.16910, tmp2728, tmp2729
	.loc 3 209 0
	vldr	d28, [sp, #96]	@, %sfp
	vldr	d29, [sp, #104]	@, %sfp
	.loc 3 187 0
	vldr	d18, [sp, #80]	@, %sfp
	vldr	d19, [sp, #88]	@, %sfp
	.loc 3 222 0
	vand	q7, q14, q6	@ tmp2735,, tmp3688
	.loc 3 187 0
	vshr.u8	q13, q9, #4	@ t1,,
	.loc 3 210 0
	vldr	d4, [sp, #144]	@, %sfp
	vldr	d5, [sp, #152]	@, %sfp
	.loc 3 190 0
	vand	q13, q13, q6	@ tmp2762, t1, tmp3688
	.loc 3 210 0
	vshr.u8	q4, q2, #4	@ t1,,
	.loc 3 222 0
	vtbl.8	d18, {d10, d11}, d14	@ tmp2733,,, tmp2735
	.loc 3 223 0
	vand	q2, q2, q6	@ tmp2753,, tmp3688
	.loc 3 222 0
	vtbl.8	d19, {d10, d11}, d15	@,,,
	.loc 3 186 0
	vshr.u8	q1, q12, #4	@ t0,,
	.loc 3 199 0
	vand	q5, q12, q6	@ tmp2739,, tmp3688
	.loc 3 189 0
	vand	q1, q1, q6	@ tmp2744, t0, tmp3688
	.loc 3 199 0
	vtbl.8	d16, {d30, d31}, d10	@ tmp2737,,, tmp2739
	vtbl.8	d17, {d30, d31}, d11	@,,,
	.loc 3 209 0
	vshr.u8	q10, q14, #4	@ t0,,
	.loc 3 199 0
	veor	q12, q9, q8	@ tmp2741, tmp2733, tmp2737
	.loc 3 212 0
	vand	q10, q10, q6	@ tmp2749, t0, tmp3688
	b	.L200	@
.L201:
	.align	3
.L199:
	.byte	0
	.byte	75
	.byte	-81
	.byte	-28
	.byte	51
	.byte	120
	.byte	-100
	.byte	-41
	.byte	116
	.byte	63
	.byte	-37
	.byte	-112
	.byte	71
	.byte	12
	.byte	-24
	.byte	-93
	.byte	0
	.byte	109
	.byte	-32
	.byte	-115
	.byte	36
	.byte	73
	.byte	-60
	.byte	-87
	.byte	-91
	.byte	-56
	.byte	69
	.byte	40
	.byte	-127
	.byte	-20
	.byte	97
	.byte	12
	.byte	0
	.byte	92
	.byte	-87
	.byte	-11
	.byte	-77
	.byte	-17
	.byte	26
	.byte	70
	.byte	-63
	.byte	-99
	.byte	104
	.byte	52
	.byte	114
	.byte	46
	.byte	-37
	.byte	-121
	.byte	0
	.byte	56
	.byte	82
	.byte	106
	.byte	123
	.byte	67
	.byte	41
	.byte	17
	.byte	-106
	.byte	-82
	.byte	-60
	.byte	-4
	.byte	-19
	.byte	-43
	.byte	-65
	.byte	-121
	.byte	0
	.byte	103
	.byte	122
	.byte	29
	.byte	112
	.byte	23
	.byte	10
	.byte	109
	.byte	-118
	.byte	-19
	.byte	-16
	.byte	-105
	.byte	-6
	.byte	-99
	.byte	-128
	.byte	-25
	.byte	0
	.byte	18
	.byte	111
	.byte	125
	.byte	27
	.byte	9
	.byte	116
	.byte	102
	.byte	-79
	.byte	-93
	.byte	-34
	.byte	-52
	.byte	-86
	.byte	-72
	.byte	-59
	.byte	-41
	.byte	0
	.byte	70
	.byte	-15
	.byte	-73
	.byte	-95
	.byte	-25
	.byte	80
	.byte	22
	.byte	127
	.byte	57
	.byte	-114
	.byte	-56
	.byte	-34
	.byte	-104
	.byte	47
	.byte	105
	.byte	0
	.byte	75
	.byte	-81
	.byte	-28
	.byte	51
	.byte	120
	.byte	-100
	.byte	-41
	.byte	116
	.byte	63
	.byte	-37
	.byte	-112
	.byte	71
	.byte	12
	.byte	-24
	.byte	-93
	.byte	0
	.byte	109
	.byte	-32
	.byte	-115
	.byte	36
	.byte	73
	.byte	-60
	.byte	-87
	.byte	-91
	.byte	-56
	.byte	69
	.byte	40
	.byte	-127
	.byte	-20
	.byte	97
	.byte	12
	.byte	0
	.byte	-41
	.byte	58
	.byte	-19
	.byte	-27
	.byte	50
	.byte	-33
	.byte	8
	.byte	-2
	.byte	41
	.byte	-60
	.byte	19
	.byte	27
	.byte	-52
	.byte	33
	.byte	-10
	.byte	0
	.byte	92
	.byte	-87
	.byte	-11
	.byte	-77
	.byte	-17
	.byte	26
	.byte	70
	.byte	-63
	.byte	-99
	.byte	104
	.byte	52
	.byte	114
	.byte	46
	.byte	-37
	.byte	-121
	.byte	0
	.byte	18
	.byte	111
	.byte	125
	.byte	27
	.byte	9
	.byte	116
	.byte	102
	.byte	-79
	.byte	-93
	.byte	-34
	.byte	-52
	.byte	-86
	.byte	-72
	.byte	-59
	.byte	-41
	.byte	0
	.byte	70
	.byte	-15
	.byte	-73
	.byte	-95
	.byte	-25
	.byte	80
	.byte	22
	.byte	127
	.byte	57
	.byte	-114
	.byte	-56
	.byte	-34
	.byte	-104
	.byte	47
	.byte	105
	.byte	0
	.byte	56
	.byte	82
	.byte	106
	.byte	123
	.byte	67
	.byte	41
	.byte	17
	.byte	-106
	.byte	-82
	.byte	-60
	.byte	-4
	.byte	-19
	.byte	-43
	.byte	-65
	.byte	-121
	.byte	0
	.byte	-41
	.byte	58
	.byte	-19
	.byte	-27
	.byte	50
	.byte	-33
	.byte	8
	.byte	-2
	.byte	41
	.byte	-60
	.byte	19
	.byte	27
	.byte	-52
	.byte	33
	.byte	-10
	.byte	0
	.byte	103
	.byte	122
	.byte	29
	.byte	112
	.byte	23
	.byte	10
	.byte	109
	.byte	-118
	.byte	-19
	.byte	-16
	.byte	-105
	.byte	-6
	.byte	-99
	.byte	-128
	.byte	-25
.L200:
	vldr	d30, .L199+80	@,
	vldr	d31, .L199+88	@,
	.loc 3 189 0
	vldr	d18, .L199+128	@,
	vldr	d19, .L199+136	@,
	vtbl.8	d16, {d18, d19}, d2	@ tmp2742,,, tmp2744
	vtbl.8	d17, {d18, d19}, d3	@,,,
	.loc 3 212 0
	veor	q14, q12, q8	@ tmp2746, tmp2741, tmp2742
	vtbl.8	d16, {d30, d31}, d20	@ tmp2747,,, tmp2749
	vtbl.8	d17, {d30, d31}, d21	@,,,
	.loc 3 200 0
	vldr	d24, [sp, #80]	@, %sfp
	vldr	d25, [sp, #88]	@, %sfp
	.loc 3 222 0
	veor	q9, q14, q8	@ D.16922, tmp2746, tmp2747
	.loc 3 200 0
	vand	q14, q12, q6	@ tmp2757,, tmp3688
	.loc 3 223 0
	vldr	d16, .L199+112	@,
	vldr	d17, .L199+120	@,
	.loc 3 200 0
	vldr	d24, .L199+160	@,
	vldr	d25, .L199+168	@,
	.loc 3 223 0
	vtbl.8	d30, {d16, d17}, d4	@ tmp2751,,, tmp2753
	vtbl.8	d31, {d16, d17}, d5	@,,,
	.loc 3 200 0
	vtbl.8	d16, {d24, d25}, d28	@ tmp2755,,, tmp2757
	vtbl.8	d17, {d24, d25}, d29	@,,,
	.loc 3 190 0
	vldr	d24, .L199+128	@,
	vldr	d25, .L199+136	@,
	.loc 3 200 0
	veor	q15, q15, q8	@ tmp2759, tmp2751, tmp2755
	.loc 3 190 0
	vtbl.8	d16, {d24, d25}, d26	@ tmp2760,,, tmp2762
	vtbl.8	d17, {d24, d25}, d27	@,,,
	.loc 3 213 0
	veor	q8, q15, q8	@, tmp2759, tmp2760
	vstr	d16, [sp, #96]	@, %sfp
	vstr	d17, [sp, #104]	@, %sfp
	vand	q12, q4, q6	@ tmp2767, t1, tmp3688
	vldr	d30, .L199+176	@,
	vldr	d31, .L199+184	@,
	.loc 3 223 0
	vldr	d16, [sp, #96]	@, %sfp
	vldr	d17, [sp, #104]	@, %sfp
	.loc 3 213 0
	vtbl.8	d8, {d30, d31}, d24	@ tmp2765,,, tmp2767
	vtbl.8	d9, {d30, d31}, d25	@,,,
	.loc 3 223 0
	veor	q15, q8, q4	@ D.16918,, tmp2765
	.loc 3 227 0
	vldr	d16, .L199+96	@,
	vldr	d17, .L199+104	@,
	vtbl.8	d8, {d16, d17}, d14	@,,, tmp2735
	vtbl.8	d9, {d16, d17}, d15	@,,,
	vstr	d8, [sp, #80]	@, %sfp
	vstr	d9, [sp, #88]	@, %sfp
	.loc 3 222 0
	vand	q0, q0, q6	@ tmp2807, D.16844, tmp3688
	.loc 3 204 0
	vldr	d8, .L199+208	@,
	vldr	d9, .L199+216	@,
.LBE1356:
.LBE1368:
.LBE1395:
	.loc 3 69 0
	adds	r0, r0, #16	@ t, t,
.LVL186:
.LBB1396:
.LBB1369:
.LBB1357:
	.loc 3 204 0
	vtbl.8	d14, {d8, d9}, d10	@ tmp2773,,, tmp2739
	vtbl.8	d15, {d8, d9}, d11	@,,,
	vldr	d10, [sp, #80]	@, %sfp
	vldr	d11, [sp, #88]	@, %sfp
	.loc 3 217 0
	vldr	d8, .L199+240	@,
	vldr	d9, .L199+248	@,
	.loc 3 204 0
	veor	q8, q5, q7	@ tmp2777,, tmp2773
	.loc 3 194 0
	vldr	d14, .L199+144	@,
	vldr	d15, .L199+152	@,
	vtbl.8	d10, {d14, d15}, d2	@ tmp2778,,, tmp2744
	vtbl.8	d11, {d14, d15}, d3	@,,,
	.loc 3 217 0
	vtbl.8	d2, {d8, d9}, d20	@ tmp2783,,, tmp2749
	vtbl.8	d3, {d8, d9}, d21	@,,,
	.loc 3 205 0
	vldr	d14, .L199+208	@,
	vldr	d15, .L199+216	@,
	.loc 3 217 0
	veor	q5, q8, q5	@ tmp2782, tmp2777, tmp2778
	.loc 3 227 0
	veor	q8, q5, q1	@ D.16914, tmp2782, tmp2783
	.loc 3 228 0
	vldr	d2, .L199+192	@,
	vldr	d3, .L199+200	@,
	.loc 3 199 0
	vldr	d10, [sp, #32]	@, %sfp
	vldr	d11, [sp, #40]	@, %sfp
	.loc 3 228 0
	vtbl.8	d20, {d2, d3}, d4	@ tmp2787,,, tmp2753
	vtbl.8	d21, {d2, d3}, d5	@,,,
	.loc 3 205 0
	vtbl.8	d4, {d14, d15}, d28	@ tmp2791,,, tmp2757
	.loc 3 199 0
	vand	q1, q5, q6	@ tmp2811,, tmp3688
	.loc 3 205 0
	vtbl.8	d5, {d14, d15}, d29	@,,,
	.loc 3 212 0
	vldr	d10, .L199+176	@,
	vldr	d11, .L199+184	@,
	.loc 3 205 0
	veor	q10, q10, q2	@ tmp2795, tmp2787, tmp2791
	.loc 3 195 0
	vldr	d4, .L199+224	@,
	vldr	d5, .L199+232	@,
	vtbl.8	d28, {d4, d5}, d26	@ tmp2796,,, tmp2762
	vtbl.8	d29, {d4, d5}, d27	@,,,
	.loc 3 218 0
	vtbl.8	d26, {d8, d9}, d24	@ tmp2801,,, tmp2767
	vtbl.8	d27, {d8, d9}, d25	@,,,
	veor	q14, q10, q14	@ tmp2800, tmp2795, tmp2796
	.loc 3 199 0
	vldr	d8, .L199+160	@,
	vldr	d9, .L199+168	@,
	.loc 3 228 0
	veor	q10, q14, q13	@ D.16910, tmp2800, tmp2801
.LVL187:
	.loc 3 199 0
	vtbl.8	d28, {d8, d9}, d2	@ tmp2809,,, tmp2811
	vtbl.8	d29, {d8, d9}, d3	@,,,
	.loc 3 222 0
	vldr	d26, .L199+112	@,
	vldr	d27, .L199+120	@,
	vtbl.8	d24, {d26, d27}, d0	@ tmp2805,,, tmp2807
	vtbl.8	d25, {d26, d27}, d1	@,,,
	.loc 3 199 0
	veor	q2, q12, q14	@ tmp2813, tmp2805, tmp2809
	.loc 3 189 0
	vldr	d24, [sp, #192]	@, %sfp
	vldr	d25, [sp, #200]	@, %sfp
	vldr	d28, .L199+128	@,
	vldr	d29, .L199+136	@,
	vand	q7, q12, q6	@,, tmp3688
	vtbl.8	d24, {d28, d29}, d14	@ tmp2814,,,
	vtbl.8	d25, {d28, d29}, d15	@,,,
	vstr	d14, [sp, #80]	@, %sfp
	vstr	d15, [sp, #88]	@, %sfp
	.loc 3 212 0
	veor	q13, q2, q12	@ tmp2818, tmp2813, tmp2814
	vldr	d14, [sp, #208]	@, %sfp
	vldr	d15, [sp, #216]	@, %sfp
.LBE1357:
.LBE1369:
.LBE1396:
.LBB1397:
	.loc 3 78 0
	vldr	d4, [sp, #160]	@, %sfp
	vldr	d5, [sp, #168]	@, %sfp
.LBE1397:
.LBB1398:
.LBB1370:
.LBB1358:
	.loc 3 212 0
	vand	q7, q7, q6	@ tmp2821,, tmp3688
	vtbl.8	d24, {d10, d11}, d14	@ tmp2819,,, tmp2821
	vtbl.8	d25, {d10, d11}, d15	@,,,
.LBE1358:
.LBE1370:
.LBE1398:
.LBB1399:
	.loc 3 78 0
	vldr	d10, [sp, #48]	@, %sfp
	vldr	d11, [sp, #56]	@, %sfp
.LBE1399:
.LBB1400:
.LBB1371:
.LBB1359:
	.loc 3 222 0
	veor	q4, q13, q12	@ tmp2823, tmp2818, tmp2819
.LBE1359:
.LBE1371:
.LBE1400:
.LBB1401:
	.loc 3 78 0
	vldr	d24, [sp, #48]	@, %sfp
	vldr	d25, [sp, #56]	@, %sfp
	vand	q14, q2, q12	@ tmp2824,,
	vldr	d24, [sp, #224]	@, %sfp
	vldr	d25, [sp, #232]	@, %sfp
	veor	q14, q4, q14	@ D.16887, tmp2823, tmp2824
	vldmia	sp, {d8-d9}	@ %sfp,
	veor	q13, q14, q2	@ D.16886, D.16887,
	vand	q2, q5, q4	@ tmp2825,,
	vldr	d8, [sp, #48]	@, %sfp
	vldr	d9, [sp, #56]	@, %sfp
	veor	q5, q12, q2	@ D.16882,, tmp2825
	vldmia	sp, {d24-d25}	@ %sfp,
	veor	q14, q14, q5	@ D.16881, D.16887, D.16882
	vand	q2, q13, q5	@ tmp2826, D.16886, D.16882
	vmvn	q5, q5	@, D.16882
	veor	q2, q2, q4	@ D.16879, tmp2826,
	vstr	d10, [sp, #96]	@, %sfp
	vstr	d11, [sp, #104]	@, %sfp
	veor	q4, q13, q12	@ D.16878, D.16886,
	vbic	q5, q15, q9	@, D.16918, D.16922
	vand	q12, q4, q14	@ tmp2829, D.16878, D.16881
	veor	q13, q13, q9	@ tmp2827, D.16886, D.16922
	vmvn	q4, q4	@ D.16867, D.16878
.LVL188:
	veor	q13, q13, q2	@ tmp2828, tmp2827, D.16879
	veor	q13, q13, q12	@ D.16871, tmp2828, tmp2829
	veor	q12, q2, q3	@ D.16873, D.16879, D.16918
	veor	q2, q5, q2	@,, D.16879
	vbic	q5, q3, q15	@ tmp2834, D.16918, D.16918
	vstr	d4, [sp, #48]	@, %sfp
	vstr	d5, [sp, #56]	@, %sfp
	vbic	q3, q9, q3	@ tmp2837, D.16922, D.16918
.LVL189:
	veor	q2, q9, q5	@ tmp2835, D.16922, tmp2834
	veor	q9, q3, q14	@, tmp2837, D.16881
.LVL190:
	veor	q5, q2, q13	@, tmp2835, D.16871
	vldr	d6, [sp, #96]	@, %sfp
	vldr	d7, [sp, #104]	@, %sfp
	vstr	d10, [sp, #112]	@, %sfp
	vstr	d11, [sp, #120]	@, %sfp
	vand	q5, q12, q4	@ tmp2840, D.16873, D.16867
	veor	q5, q5, q3	@ D.16882, tmp2840,
.LBE1401:
	.loc 3 80 0
	vldmia	r4, {d6-d7}	@ MEM[base: D.19117_2862, offset: 0B],
	adds	r4, r4, #32	@ ivtmp.932, ivtmp.932,
	.loc 3 88 0
	cmp	r0, #48	@ t,
	it	eq	@
	moveq	r0, #0	@, t,
.LVL191:
	.loc 3 58 0
	cmp	r4, r6	@ ivtmp.932, D.19120
.LBB1402:
	.loc 3 78 0
	veor	q15, q14, q15	@ D.16869, D.16881, D.16918
	vstr	d18, [sp, #128]	@, %sfp
	vstr	d19, [sp, #136]	@, %sfp
	vand	q14, q13, q12	@ tmp2839, D.16871, D.16873
	veor	q2, q14, q15	@ D.16887, tmp2839, D.16869
	veor	q15, q2, q5	@ D.16881, D.16887, D.16882
	veor	q13, q2, q13	@ D.16886, D.16887, D.16871
	vand	q9, q13, q5	@ tmp2841, D.16886, D.16882
	veor	q4, q13, q4	@, D.16886, D.16867
	veor	q12, q9, q12	@ D.16879, tmp2841, D.16873
	vand	q14, q4, q15	@ tmp2842,, D.16881
	vstr	d8, [sp, #32]	@, %sfp
	vstr	d9, [sp, #40]	@, %sfp
	veor	q2, q12, q14	@ tmp2843, D.16879, tmp2842
.LBE1402:
.LBB1403:
.LBB1372:
.LBB1360:
	.loc 3 227 0
	vldr	d8, .L199+192	@,
	vldr	d9, .L199+200	@,
.LBE1360:
.LBE1372:
.LBE1403:
.LBB1404:
	.loc 3 78 0
	veor	q13, q2, q13	@ D.16875, tmp2843, D.16886
.LBE1404:
	.loc 3 80 0
	veor	q12, q12, q3	@ D.16809, D.16879,
.LBB1405:
.LBB1373:
.LBB1361:
	.loc 3 227 0
	vtbl.8	d18, {d8, d9}, d0	@ tmp2845,,, tmp2807
	vtbl.8	d19, {d8, d9}, d1	@,,,
	.loc 3 204 0
	vldr	d0, .L199+208	@,
	vldr	d1, .L199+216	@,
	vtbl.8	d28, {d0, d1}, d2	@ tmp2849,,, tmp2811
	vtbl.8	d29, {d0, d1}, d3	@,,,
	veor	q1, q9, q14	@ tmp2853, tmp2845, tmp2849
	.loc 3 194 0
	vldr	d28, [sp, #80]	@, %sfp
	vldr	d29, [sp, #88]	@, %sfp
	vldr	d18, .L199+224	@,
	vldr	d19, .L199+232	@,
	vtbl.8	d6, {d18, d19}, d28	@ tmp2854,,,
	vtbl.8	d7, {d18, d19}, d29	@,,,
.LBE1361:
.LBE1373:
.LBE1405:
.LBB1406:
	.loc 3 82 0
	vldr	d18, [sp, #64]	@, %sfp
	vldr	d19, [sp, #72]	@, %sfp
.LBE1406:
.LBB1407:
.LBB1374:
.LBB1362:
	.loc 3 217 0
	veor	q14, q1, q3	@ tmp2858, tmp2853, tmp2854
	vldr	d6, .L199+240	@,
	vldr	d7, .L199+248	@,
	vtbl.8	d4, {d6, d7}, d14	@ tmp2859,,, tmp2821
	vtbl.8	d5, {d6, d7}, d15	@,,,
	.loc 3 227 0
	veor	q7, q14, q2	@ tmp2863, tmp2858, tmp2859
.LBE1362:
.LBE1374:
.LBE1407:
.LBB1408:
	.loc 3 82 0
	vldr	d4, [sp, #176]	@, %sfp
	vldr	d5, [sp, #184]	@, %sfp
	vldr	d28, [sp, #240]	@, %sfp
	vldr	d29, [sp, #248]	@, %sfp
	vand	q4, q2, q9	@ tmp2864,,
	veor	q0, q7, q4	@ D.16850, tmp2863, tmp2864
	veor	q3, q0, q2	@ D.16849, D.16850,
	vldr	d4, [sp, #16]	@, %sfp
	vldr	d5, [sp, #24]	@, %sfp
	vand	q1, q9, q2	@ tmp2865,,
	veor	q7, q14, q1	@ D.16845,, tmp2865
	veor	q1, q0, q7	@ D.16844, D.16850, D.16845
	vand	q4, q3, q7	@ tmp2866, D.16849, D.16845
	veor	q0, q4, q9	@ D.16842, tmp2866,
	veor	q9, q3, q2	@ D.16841, D.16849,
	veor	q3, q3, q8	@ tmp2867, D.16849, D.16914
	vand	q14, q9, q1	@ tmp2869, D.16841, D.16844
	veor	q2, q3, q0	@ tmp2868, tmp2867, D.16842
	vmvn	q9, q9	@ D.16830, D.16841
.LVL192:
	veor	q3, q0, q11	@ D.16836, D.16842, D.16910
	veor	q2, q2, q14	@ D.16834, tmp2868, tmp2869
	vmvn	q14, q7	@ D.16831, D.16845
	vbic	q7, q10, q8	@ tmp2871, D.16910, D.16914
	veor	q4, q7, q0	@, tmp2871, D.16842
	vbic	q0, q11, q10	@ tmp2874, D.16910, D.16910
	vstr	d8, [sp, #64]	@, %sfp
	vstr	d9, [sp, #72]	@, %sfp
	veor	q7, q8, q0	@ tmp2875, D.16914, tmp2874
	veor	q10, q1, q10	@ D.16832, D.16844, D.16910
	veor	q4, q7, q2	@, tmp2875, D.16834
	vbic	q11, q8, q11	@ tmp2877, D.16914, D.16910
.LVL193:
	vand	q7, q3, q9	@ tmp2880, D.16836, D.16830
	veor	q8, q11, q1	@, tmp2877, D.16844
.LVL194:
	vstr	d8, [sp, #80]	@, %sfp
	vstr	d9, [sp, #88]	@, %sfp
	vand	q1, q2, q3	@ tmp2879, D.16834, D.16836
	vstr	d16, [sp, #16]	@, %sfp
	vstr	d17, [sp, #24]	@, %sfp
	veor	q0, q1, q10	@ D.16850, tmp2879, D.16832
	veor	q8, q7, q14	@ D.16845, tmp2880, D.16831
	veor	q2, q0, q2	@ D.16849, D.16850, D.16834
	veor	q10, q0, q8	@ D.16844, D.16850, D.16845
	vand	q14, q2, q8	@ tmp2881, D.16849, D.16845
	veor	q9, q2, q9	@ D.16841, D.16849, D.16830
	veor	q11, q14, q3	@ D.16842, tmp2881, D.16836
.LBE1408:
.LBB1409:
.LBB1410:
.LBB1411:
	.loc 3 186 0
	vshr.u8	q1, q12, #4	@ t0, D.16809,
.LBE1411:
.LBE1410:
.LBE1409:
.LBB1418:
	.loc 3 82 0
	vand	q3, q9, q10	@ tmp2882, D.16841, D.16844
.LBE1418:
.LBB1419:
.LBB1415:
.LBB1412:
	.loc 3 199 0
	vand	q12, q12, q6	@ tmp2886, D.16809, tmp3688
.LBE1412:
.LBE1415:
.LBE1419:
.LBB1420:
	.loc 3 82 0
	veor	q4, q11, q3	@ tmp2883, D.16842, tmp2882
.LBE1420:
.LBB1421:
.LBB1416:
.LBB1413:
	.loc 3 189 0
	vand	q1, q1, q6	@ tmp2900, t0, tmp3688
.LBE1413:
.LBE1416:
.LBE1421:
.LBB1422:
	.loc 3 82 0
	veor	q2, q4, q2	@ D.16838, tmp2883, D.16849
.LVL195:
.LBE1422:
.LBB1423:
.LBB1417:
.LBB1414:
	.loc 3 199 0
	vldr	d28, .L202	@,
	vldr	d29, .L202+8	@,
	.loc 3 210 0
	vshr.u8	q7, q2, #4	@, D.16838,
	.loc 3 187 0
	vshr.u8	q3, q13, #4	@ t1, D.16875,
.LVL196:
	.loc 3 223 0
	vand	q2, q2, q6	@ tmp2904, D.16838, tmp3688
	.loc 3 200 0
	vand	q13, q13, q6	@ tmp2908, D.16875, tmp3688
	.loc 3 190 0
	vand	q3, q3, q6	@ tmp2913, t1, tmp3688
.LVL197:
	.loc 3 210 0
	vstr	d14, [sp, #96]	@, %sfp
	vstr	d15, [sp, #104]	@, %sfp
	.loc 3 209 0
	vshr.u8	q0, q11, #4	@ t0, D.16842,
.LVL198:
	.loc 3 199 0
	vtbl.8	d14, {d28, d29}, d24	@ tmp2884,,, tmp2886
.LVL199:
	.loc 3 212 0
	vand	q0, q0, q6	@ tmp2890, t0, tmp3688
.LVL200:
	.loc 3 222 0
	vand	q11, q11, q6	@ tmp2895, D.16842, tmp3688
.LVL201:
	.loc 3 199 0
	vtbl.8	d15, {d28, d29}, d25	@,,,
	.loc 3 212 0
	vldr	d28, .L202+16	@,
	vldr	d29, .L202+24	@,
	vtbl.8	d8, {d28, d29}, d0	@ tmp2888,,, tmp2890
	vtbl.8	d9, {d28, d29}, d1	@,,,
	.loc 3 222 0
	vldr	d28, .L202+32	@,
	vldr	d29, .L202+40	@,
	.loc 3 199 0
	veor	q4, q7, q4	@ tmp2892, tmp2884, tmp2888
	.loc 3 222 0
	vtbl.8	d14, {d28, d29}, d22	@ tmp2893,,, tmp2895
	vtbl.8	d15, {d28, d29}, d23	@,,,
	.loc 3 189 0
	vldr	d28, .L202+48	@,
	vldr	d29, .L202+56	@,
	.loc 3 212 0
	veor	q4, q4, q7	@ tmp2897, tmp2892, tmp2893
	.loc 3 189 0
	vtbl.8	d14, {d28, d29}, d2	@ tmp2898,,, tmp2900
	vtbl.8	d15, {d28, d29}, d3	@,,,
	.loc 3 223 0
	vldr	d28, .L202+32	@,
	vldr	d29, .L202+40	@,
	.loc 3 222 0
	veor	q7, q4, q7	@, tmp2897, tmp2898
	.loc 3 223 0
	vtbl.8	d8, {d28, d29}, d4	@ tmp2902,,, tmp2904
	vtbl.8	d9, {d28, d29}, d5	@,,,
	.loc 3 222 0
	vstr	d14, [sp, #192]	@, %sfp
	vstr	d15, [sp, #200]	@, %sfp
	.loc 3 200 0
	vldr	d28, .L202	@,
	vldr	d29, .L202+8	@,
	vtbl.8	d14, {d28, d29}, d26	@ tmp2906,,, tmp2908
	vtbl.8	d15, {d28, d29}, d27	@,,,
	.loc 3 190 0
	vldr	d28, .L202+48	@,
	vldr	d29, .L202+56	@,
	.loc 3 200 0
	veor	q4, q4, q7	@ tmp2910, tmp2902, tmp2906
	.loc 3 190 0
	vtbl.8	d14, {d28, d29}, d6	@ tmp2911,,, tmp2913
	vtbl.8	d15, {d28, d29}, d7	@,,,
	.loc 3 213 0
	veor	q7, q4, q7	@, tmp2910, tmp2911
	vstr	d14, [sp, #144]	@, %sfp
	vstr	d15, [sp, #152]	@, %sfp
	vldr	d8, [sp, #96]	@, %sfp
	vldr	d9, [sp, #104]	@, %sfp
	vand	q14, q4, q6	@ tmp2918,, tmp3688
	vldr	d8, .L202+16	@,
	vldr	d9, .L202+24	@,
	vtbl.8	d14, {d8, d9}, d28	@,,, tmp2918
	vtbl.8	d15, {d8, d9}, d29	@,,,
	.loc 3 223 0
	vldr	d8, [sp, #144]	@, %sfp
	vldr	d9, [sp, #152]	@, %sfp
	veor	q7, q4, q7	@,,
	vstr	d14, [sp, #208]	@, %sfp
	vstr	d15, [sp, #216]	@, %sfp
.LVL202:
	.loc 3 204 0
	vldr	d14, .L202+176	@,
	vldr	d15, .L202+184	@,
	vtbl.8	d8, {d14, d15}, d24	@ tmp2920,,, tmp2886
	vtbl.8	d9, {d14, d15}, d25	@,,,
	.loc 3 217 0
	vldr	d14, .L202+144	@,
	vldr	d15, .L202+152	@,
	vtbl.8	d24, {d14, d15}, d0	@ tmp2924,,, tmp2890
	vtbl.8	d25, {d14, d15}, d1	@,,,
	.loc 3 194 0
	vldr	d14, .L202+160	@,
	vldr	d15, .L202+168	@,
	.loc 3 204 0
	veor	q4, q4, q12	@ tmp2928, tmp2920, tmp2924
	.loc 3 227 0
	vldr	d24, .L202+128	@,
	vldr	d25, .L202+136	@,
	vtbl.8	d0, {d24, d25}, d22	@ tmp2929,,, tmp2895
	vtbl.8	d1, {d24, d25}, d23	@,,,
	.loc 3 194 0
	vtbl.8	d22, {d14, d15}, d2	@ tmp2934,,, tmp2900
	.loc 3 217 0
	veor	q0, q4, q0	@ tmp2933, tmp2928, tmp2929
	.loc 3 194 0
	vtbl.8	d23, {d14, d15}, d3	@,,,
	.loc 3 228 0
	vldr	d2, .L202+128	@,
	vldr	d3, .L202+136	@,
	.loc 3 227 0
	veor	q11, q0, q11	@, tmp2933, tmp2934
	.loc 3 186 0
	vshr.u8	q0, q15, #4	@ t0, D.16881,
	.loc 3 227 0
	vstr	d22, [sp, #96]	@, %sfp
	vstr	d23, [sp, #104]	@, %sfp
	.loc 3 199 0
	vand	q15, q15, q6	@ tmp2962, D.16881, tmp3688
	.loc 3 228 0
	vtbl.8	d22, {d2, d3}, d4	@ tmp2938,,, tmp2904
	vtbl.8	d23, {d2, d3}, d5	@,,,
	.loc 3 205 0
	vldr	d4, .L202+176	@,
	vldr	d5, .L202+184	@,
	.loc 3 199 0
	vldr	d2, .L202	@,
	vldr	d3, .L202+8	@,
	.loc 3 205 0
	vtbl.8	d24, {d4, d5}, d26	@ tmp2942,,, tmp2908
	vtbl.8	d25, {d4, d5}, d27	@,,,
	.loc 3 195 0
	vtbl.8	d26, {d14, d15}, d6	@ tmp2947,,, tmp2913
	.loc 3 205 0
	veor	q4, q11, q12	@ tmp2946, tmp2938, tmp2942
	.loc 3 199 0
	vtbl.8	d4, {d2, d3}, d30	@ tmp2960,,, tmp2962
	vtbl.8	d5, {d2, d3}, d31	@,,,
	.loc 3 195 0
	vtbl.8	d27, {d14, d15}, d7	@,,,
	.loc 3 218 0
	vldr	d24, .L202+144	@,
	vldr	d25, .L202+152	@,
	veor	q13, q4, q13	@ tmp2951, tmp2946, tmp2947
	vtbl.8	d6, {d24, d25}, d28	@ tmp2952,,, tmp2918
	vtbl.8	d7, {d24, d25}, d29	@,,,
	.loc 3 222 0
	vldr	d14, .L202+32	@,
	vldr	d15, .L202+40	@,
	.loc 3 228 0
	veor	q3, q13, q3	@, tmp2951, tmp2952
	.loc 3 189 0
	vldr	d8, .L202+48	@,
	vldr	d9, .L202+56	@,
	.loc 3 223 0
	vldr	d2, .L202+32	@,
	vldr	d3, .L202+40	@,
	.loc 3 187 0
	vshr.u8	q12, q5, #4	@ t1, D.16882,
	.loc 3 209 0
	vshr.u8	q13, q10, #4	@ t0, D.16844,
	.loc 3 190 0
	vand	q12, q12, q6	@ tmp2985, t1, tmp3688
	.loc 3 222 0
	vand	q10, q10, q6	@ tmp2958, D.16844, tmp3688
	.loc 3 212 0
	vand	q13, q13, q6	@ tmp2972, t0, tmp3688
	.loc 3 200 0
	vand	q5, q5, q6	@ tmp2980, D.16882, tmp3688
	.loc 3 222 0
	vtbl.8	d28, {d14, d15}, d20	@ tmp2956,,, tmp2958
	vtbl.8	d29, {d14, d15}, d21	@,,,
	.loc 3 210 0
	vshr.u8	q11, q8, #4	@ t1, D.16845,
	.loc 3 199 0
	veor	q14, q14, q2	@ tmp2964, tmp2956, tmp2960
	.loc 3 223 0
	vand	q8, q8, q6	@ tmp2976, D.16845, tmp3688
	.loc 3 213 0
	vand	q11, q11, q6	@ tmp2990, t1, tmp3688
	.loc 3 212 0
	vldr	d14, .L202+16	@,
	vldr	d15, .L202+24	@,
	.loc 3 228 0
	vstr	d6, [sp, #144]	@, %sfp
	vstr	d7, [sp, #152]	@, %sfp
.LVL203:
	.loc 3 189 0
	vand	q3, q0, q6	@ tmp2967, t0, tmp3688
	vtbl.8	d4, {d8, d9}, d6	@ tmp2965,,, tmp2967
	vtbl.8	d5, {d8, d9}, d7	@,,,
	.loc 3 200 0
	vldr	d8, .L202	@,
	vldr	d9, .L202+8	@,
	.loc 3 212 0
	veor	q0, q14, q2	@ tmp2969, tmp2964, tmp2965
	vtbl.8	d4, {d14, d15}, d26	@ tmp2970,,, tmp2972
	vtbl.8	d5, {d14, d15}, d27	@,,,
	.loc 3 223 0
	vtbl.8	d28, {d2, d3}, d16	@ tmp2974,,, tmp2976
	.loc 3 222 0
	veor	q2, q0, q2	@, tmp2969, tmp2970
	.loc 3 223 0
	vtbl.8	d29, {d2, d3}, d17	@,,,
	.loc 3 190 0
	vldr	d0, .L202+48	@,
	vldr	d1, .L202+56	@,
	.loc 3 213 0
	vldr	d14, .L202+16	@,
	vldr	d15, .L202+24	@,
	.loc 3 222 0
	vstr	d4, [sp, #224]	@, %sfp
	vstr	d5, [sp, #232]	@, %sfp
	.loc 3 200 0
	vtbl.8	d4, {d8, d9}, d10	@ tmp2978,,, tmp2980
	vtbl.8	d5, {d8, d9}, d11	@,,,
	.loc 3 194 0
	vldr	d8, .L202+160	@,
	vldr	d9, .L202+168	@,
	.loc 3 200 0
	veor	q14, q14, q2	@ tmp2982, tmp2974, tmp2978
	.loc 3 190 0
	vtbl.8	d4, {d0, d1}, d24	@ tmp2983,,, tmp2985
	vtbl.8	d5, {d0, d1}, d25	@,,,
	.loc 3 227 0
	vldr	d0, .L202+128	@,
	vldr	d1, .L202+136	@,
	.loc 3 213 0
	veor	q1, q14, q2	@ tmp2987, tmp2982, tmp2983
	.loc 3 227 0
	vtbl.8	d28, {d0, d1}, d20	@ tmp2992,,, tmp2958
	vtbl.8	d29, {d0, d1}, d21	@,,,
	.loc 3 213 0
	vtbl.8	d4, {d14, d15}, d22	@ tmp2988,,, tmp2990
	vtbl.8	d5, {d14, d15}, d23	@,,,
	.loc 3 223 0
	veor	q7, q1, q2	@ prephitmp.786, tmp2987, tmp2988
.LVL204:
	.loc 3 204 0
	vldr	d4, .L202+176	@,
	vldr	d5, .L202+184	@,
	.loc 3 186 0
	vldr	d2, [sp, #32]	@, %sfp
	vldr	d3, [sp, #40]	@, %sfp
	.loc 3 204 0
	vtbl.8	d20, {d4, d5}, d30	@ tmp2996,,, tmp2962
	vtbl.8	d21, {d4, d5}, d31	@,,,
	.loc 3 194 0
	vtbl.8	d30, {d8, d9}, d6	@ tmp3001,,, tmp2967
	.loc 3 204 0
	veor	q10, q14, q10	@ tmp3000, tmp2992, tmp2996
	.loc 3 194 0
	vtbl.8	d31, {d8, d9}, d7	@,,,
	.loc 3 217 0
	vldr	d28, .L202+144	@,
	vldr	d29, .L202+152	@,
	veor	q15, q10, q15	@ tmp3005, tmp3000, tmp3001
	vtbl.8	d6, {d28, d29}, d26	@ tmp3006,,, tmp2972
	.loc 3 228 0
	vtbl.8	d20, {d0, d1}, d16	@ tmp3010,,, tmp2976
	vtbl.8	d21, {d0, d1}, d17	@,,,
	.loc 3 195 0
	vtbl.8	d26, {d8, d9}, d24	@ tmp3019,,, tmp2985
	.loc 3 217 0
	vtbl.8	d7, {d28, d29}, d27	@,,,
	.loc 3 205 0
	vtbl.8	d16, {d4, d5}, d10	@ tmp3014,,, tmp2980
	.loc 3 227 0
	veor	q3, q15, q3	@, tmp3005, tmp3006
	.loc 3 195 0
	vtbl.8	d27, {d8, d9}, d25	@,,,
	.loc 3 189 0
	vldr	d28, .L202+48	@,
	vldr	d29, .L202+56	@,
	.loc 3 199 0
	vand	q4, q1, q6	@ tmp3034,, tmp3688
	.loc 3 205 0
	vtbl.8	d17, {d4, d5}, d11	@,,,
	.loc 3 186 0
	vshr.u8	q0, q1, #4	@ t0,,
	.loc 3 205 0
	veor	q5, q10, q8	@ tmp3018, tmp3010, tmp3014
	.loc 3 212 0
	vldr	d2, .L202+16	@,
	vldr	d3, .L202+24	@,
	.loc 3 218 0
	veor	q8, q5, q13	@ tmp3023, tmp3018, tmp3019
	.loc 3 209 0
	vshr.u8	q2, q9, #4	@ t0, D.16841,
	.loc 3 199 0
	vldr	d10, .L202	@,
	vldr	d11, .L202+8	@,
	.loc 3 222 0
	vand	q9, q9, q6	@ tmp3030, D.16841, tmp3688
	.loc 3 218 0
	vldr	d26, .L202+144	@,
	vldr	d27, .L202+152	@,
	.loc 3 222 0
	vldr	d20, .L202+32	@,
	vldr	d21, .L202+40	@,
	.loc 3 218 0
	vtbl.8	d24, {d26, d27}, d22	@ tmp3024,,, tmp2990
	vtbl.8	d25, {d26, d27}, d23	@,,,
	.loc 3 199 0
	vtbl.8	d30, {d10, d11}, d8	@ tmp3032,,, tmp3034
	.loc 3 222 0
	vtbl.8	d26, {d20, d21}, d18	@ tmp3028,,, tmp3030
	vtbl.8	d27, {d20, d21}, d19	@,,,
	.loc 3 228 0
	veor	q12, q8, q12	@, tmp3023, tmp3024
	.loc 3 212 0
	vand	q10, q2, q6	@ tmp3044, t0, tmp3688
	.loc 3 199 0
	vtbl.8	d31, {d10, d11}, d9	@,,,
	.loc 3 223 0
	vldr	d4, .L202+32	@,
	vldr	d5, .L202+40	@,
	.loc 3 199 0
	veor	q15, q13, q15	@ tmp3036, tmp3028, tmp3032
	.loc 3 187 0
	vldr	d22, [sp, #48]	@, %sfp
	vldr	d23, [sp, #56]	@, %sfp
	.loc 3 227 0
	vstr	d6, [sp, #160]	@, %sfp
	vstr	d7, [sp, #168]	@, %sfp
	.loc 3 228 0
	vstr	d24, [sp, #176]	@, %sfp
	vstr	d25, [sp, #184]	@, %sfp
.LVL205:
	.loc 3 210 0
	vldr	d6, [sp, #64]	@, %sfp
	vldr	d7, [sp, #72]	@, %sfp
	.loc 3 189 0
	vand	q12, q0, q6	@ tmp3039, t0, tmp3688
	.loc 3 210 0
	vshr.u8	q8, q3, #4	@ t1,,
	.loc 3 189 0
	vtbl.8	d26, {d28, d29}, d24	@ tmp3037,,, tmp3039
	vtbl.8	d27, {d28, d29}, d25	@,,,
	.loc 3 213 0
	vand	q8, q8, q6	@ tmp3062, t1, tmp3688
	.loc 3 212 0
	veor	q0, q15, q13	@ tmp3041, tmp3036, tmp3037
.LVL206:
	.loc 3 187 0
	vshr.u8	q11, q11, #4	@ t1,,
.LVL207:
	.loc 3 212 0
	vtbl.8	d26, {d2, d3}, d20	@ tmp3042,,, tmp3044
	.loc 3 190 0
	vand	q11, q11, q6	@ tmp3057, t1, tmp3688
	.loc 3 212 0
	vtbl.8	d27, {d2, d3}, d21	@,,,
	.loc 3 222 0
	veor	q15, q0, q13	@ prephitmp.786, tmp3041, tmp3042
	.loc 3 223 0
	vand	q13, q3, q6	@ tmp3048,, tmp3688
	.loc 3 200 0
	vldr	d6, [sp, #48]	@, %sfp
	vldr	d7, [sp, #56]	@, %sfp
	.loc 3 223 0
	vtbl.8	d28, {d4, d5}, d26	@ tmp3046,,, tmp3048
	vtbl.8	d29, {d4, d5}, d27	@,,,
	.loc 3 200 0
	vand	q2, q3, q6	@ tmp3052,, tmp3688
	.loc 3 213 0
	vldr	d6, .L202+16	@,
	vldr	d7, .L202+24	@,
	.loc 3 200 0
	vtbl.8	d2, {d10, d11}, d4	@ tmp3050,,, tmp3052
	vtbl.8	d3, {d10, d11}, d5	@,,,
	.loc 3 190 0
	vldr	d10, .L202+48	@,
	vldr	d11, .L202+56	@,
	.loc 3 200 0
	veor	q0, q14, q1	@ tmp3054, tmp3046, tmp3050
	.loc 3 190 0
	vtbl.8	d28, {d10, d11}, d22	@ tmp3055,,, tmp3057
	vtbl.8	d29, {d10, d11}, d23	@,,,
	.loc 3 204 0
	vldr	d10, .L202+176	@,
	vldr	d11, .L202+184	@,
	.loc 3 213 0
	veor	q1, q0, q14	@ tmp3059, tmp3054, tmp3055
	vtbl.8	d28, {d6, d7}, d16	@ tmp3060,,, tmp3062
	vtbl.8	d29, {d6, d7}, d17	@,,,
	.loc 3 227 0
	vldr	d0, .L202+128	@,
	vldr	d1, .L202+136	@,
	.loc 3 223 0
	veor	q1, q1, q14	@ prephitmp.786, tmp3059, tmp3060
.LVL208:
	.loc 3 227 0
	vtbl.8	d28, {d0, d1}, d18	@ tmp3064,,, tmp3030
	vtbl.8	d29, {d0, d1}, d19	@,,,
	.loc 3 204 0
	vtbl.8	d18, {d10, d11}, d8	@ tmp3068,,, tmp3034
	vtbl.8	d19, {d10, d11}, d9	@,,,
	b	.L203	@
.L204:
	.align	3
.L202:
	.byte	0
	.byte	92
	.byte	-87
	.byte	-11
	.byte	-77
	.byte	-17
	.byte	26
	.byte	70
	.byte	-63
	.byte	-99
	.byte	104
	.byte	52
	.byte	114
	.byte	46
	.byte	-37
	.byte	-121
	.byte	0
	.byte	18
	.byte	111
	.byte	125
	.byte	27
	.byte	9
	.byte	116
	.byte	102
	.byte	-79
	.byte	-93
	.byte	-34
	.byte	-52
	.byte	-86
	.byte	-72
	.byte	-59
	.byte	-41
	.byte	0
	.byte	75
	.byte	-81
	.byte	-28
	.byte	51
	.byte	120
	.byte	-100
	.byte	-41
	.byte	116
	.byte	63
	.byte	-37
	.byte	-112
	.byte	71
	.byte	12
	.byte	-24
	.byte	-93
	.byte	0
	.byte	109
	.byte	-32
	.byte	-115
	.byte	36
	.byte	73
	.byte	-60
	.byte	-87
	.byte	-91
	.byte	-56
	.byte	69
	.byte	40
	.byte	-127
	.byte	-20
	.byte	97
	.byte	12
	.byte	0
	.byte	75
	.byte	-81
	.byte	-28
	.byte	51
	.byte	120
	.byte	-100
	.byte	-41
	.byte	116
	.byte	63
	.byte	-37
	.byte	-112
	.byte	71
	.byte	12
	.byte	-24
	.byte	-93
	.byte	0
	.byte	92
	.byte	-87
	.byte	-11
	.byte	-77
	.byte	-17
	.byte	26
	.byte	70
	.byte	-63
	.byte	-99
	.byte	104
	.byte	52
	.byte	114
	.byte	46
	.byte	-37
	.byte	-121
	.byte	0
	.byte	109
	.byte	-32
	.byte	-115
	.byte	36
	.byte	73
	.byte	-60
	.byte	-87
	.byte	-91
	.byte	-56
	.byte	69
	.byte	40
	.byte	-127
	.byte	-20
	.byte	97
	.byte	12
	.byte	0
	.byte	18
	.byte	111
	.byte	125
	.byte	27
	.byte	9
	.byte	116
	.byte	102
	.byte	-79
	.byte	-93
	.byte	-34
	.byte	-52
	.byte	-86
	.byte	-72
	.byte	-59
	.byte	-41
	.byte	0
	.byte	70
	.byte	-15
	.byte	-73
	.byte	-95
	.byte	-25
	.byte	80
	.byte	22
	.byte	127
	.byte	57
	.byte	-114
	.byte	-56
	.byte	-34
	.byte	-104
	.byte	47
	.byte	105
	.byte	0
	.byte	103
	.byte	122
	.byte	29
	.byte	112
	.byte	23
	.byte	10
	.byte	109
	.byte	-118
	.byte	-19
	.byte	-16
	.byte	-105
	.byte	-6
	.byte	-99
	.byte	-128
	.byte	-25
	.byte	0
	.byte	-41
	.byte	58
	.byte	-19
	.byte	-27
	.byte	50
	.byte	-33
	.byte	8
	.byte	-2
	.byte	41
	.byte	-60
	.byte	19
	.byte	27
	.byte	-52
	.byte	33
	.byte	-10
	.byte	0
	.byte	56
	.byte	82
	.byte	106
	.byte	123
	.byte	67
	.byte	41
	.byte	17
	.byte	-106
	.byte	-82
	.byte	-60
	.byte	-4
	.byte	-19
	.byte	-43
	.byte	-65
	.byte	-121
.L203:
	.loc 3 194 0
	vldr	d8, .L202+160	@,
	vldr	d9, .L202+168	@,
	.loc 3 204 0
	veor	q9, q14, q9	@ tmp3072, tmp3064, tmp3068
	.loc 3 194 0
	vtbl.8	d6, {d8, d9}, d24	@ tmp3073,,, tmp3039
	vtbl.8	d7, {d8, d9}, d25	@,,,
	.loc 3 209 0
	vldr	d10, [sp, #80]	@, %sfp
	vldr	d11, [sp, #88]	@, %sfp
	.loc 3 217 0
	veor	q14, q9, q3	@ tmp3077, tmp3072, tmp3073
	vldr	d6, .L202+144	@,
	vldr	d7, .L202+152	@,
	vtbl.8	d24, {d6, d7}, d20	@ tmp3078,,, tmp3044
	vtbl.8	d25, {d6, d7}, d21	@,,,
	.loc 3 228 0
	vldr	d20, .L202+128	@,
	vldr	d21, .L202+136	@,
	.loc 3 227 0
	veor	q12, q14, q12	@, tmp3077, tmp3078
	.loc 3 228 0
	vtbl.8	d18, {d20, d21}, d26	@ tmp3082,,, tmp3048
	vtbl.8	d19, {d20, d21}, d27	@,,,
	.loc 3 227 0
	vstr	d24, [sp, #48]	@, %sfp
	vstr	d25, [sp, #56]	@, %sfp
	.loc 3 205 0
	vldr	d26, .L202+176	@,
	vldr	d27, .L202+184	@,
	.loc 3 195 0
	vtbl.8	d24, {d8, d9}, d22	@ tmp3091,,, tmp3057
	vtbl.8	d25, {d8, d9}, d23	@,,,
	.loc 3 205 0
	vtbl.8	d20, {d26, d27}, d4	@ tmp3086,,, tmp3052
	vtbl.8	d21, {d26, d27}, d5	@,,,
	.loc 3 218 0
	vtbl.8	d22, {d6, d7}, d16	@ tmp3096,,, tmp3062
	.loc 3 205 0
	veor	q2, q9, q10	@ tmp3090, tmp3082, tmp3086
	.loc 3 218 0
	vtbl.8	d23, {d6, d7}, d17	@,,,
	veor	q0, q2, q12	@ tmp3095, tmp3090, tmp3091
	.loc 3 186 0
	vldr	d18, [sp, #112]	@, %sfp
	vldr	d19, [sp, #120]	@, %sfp
	.loc 3 228 0
	veor	q11, q0, q11	@, tmp3095, tmp3096
	.loc 3 186 0
	vshr.u8	q14, q9, #4	@ t0,,
	.loc 3 222 0
	vand	q0, q5, q6	@ tmp3102,, tmp3688
	.loc 3 187 0
	vldr	d16, [sp, #128]	@, %sfp
	vldr	d17, [sp, #136]	@, %sfp
	.loc 3 209 0
	vshr.u8	q3, q5, #4	@ t0,,
	.loc 3 187 0
	vshr.u8	q10, q8, #4	@ t1,,
	.loc 3 222 0
	vldr	d26, .L202+64	@,
	vldr	d27, .L202+72	@,
	.loc 3 190 0
	vand	q10, q10, q6	@ tmp3129, t1, tmp3688
	.loc 3 222 0
	vtbl.8	d16, {d26, d27}, d0	@ tmp3100,,, tmp3102
	vtbl.8	d17, {d26, d27}, d1	@,,,
	.loc 3 212 0
	vldr	d10, .L202+112	@,
	vldr	d11, .L202+120	@,
	.loc 3 189 0
	vand	q13, q14, q6	@ tmp3111, t0, tmp3688
	.loc 3 210 0
	vldr	d8, [sp, #16]	@, %sfp
	vldr	d9, [sp, #24]	@, %sfp
	.loc 3 228 0
	vstr	d22, [sp, #64]	@, %sfp
	vstr	d23, [sp, #72]	@, %sfp
.LVL209:
	.loc 3 210 0
	vshr.u8	q12, q4, #4	@ t1,,
.LVL210:
	.loc 3 199 0
	vldr	d22, .L202+80	@,
	vldr	d23, .L202+88	@,
	vand	q4, q9, q6	@ tmp3106,, tmp3688
	.loc 3 213 0
	vand	q12, q12, q6	@ tmp3134, t1, tmp3688
.LVL211:
	.loc 3 199 0
	vtbl.8	d4, {d22, d23}, d8	@ tmp3104,,, tmp3106
	vtbl.8	d5, {d22, d23}, d9	@,,,
	.loc 3 189 0
	vldr	d18, .L202+96	@,
	vldr	d19, .L202+104	@,
.LVL212:
	.loc 3 212 0
	vand	q11, q3, q6	@ tmp3116, t0, tmp3688
	.loc 3 199 0
	veor	q2, q8, q2	@ tmp3108, tmp3100, tmp3104
	.loc 3 223 0
	vldr	d6, .L202+64	@,
	vldr	d7, .L202+72	@,
.LVL213:
	.loc 3 189 0
	vtbl.8	d16, {d18, d19}, d26	@ tmp3109,,, tmp3111
	vtbl.8	d17, {d18, d19}, d27	@,,,
	.loc 3 200 0
	vldr	d18, [sp, #128]	@, %sfp
	vldr	d19, [sp, #136]	@, %sfp
	.loc 3 212 0
	veor	q14, q2, q8	@ tmp3113, tmp3108, tmp3109
	.loc 3 200 0
	vand	q9, q9, q6	@ tmp3124,, tmp3688
	.loc 3 212 0
	vtbl.8	d16, {d10, d11}, d22	@ tmp3114,,, tmp3116
	vtbl.8	d17, {d10, d11}, d23	@,,,
	.loc 3 200 0
	vldr	d10, .L202+80	@,
	vldr	d11, .L202+88	@,
	.loc 3 222 0
	veor	q2, q14, q8	@ prephitmp.786, tmp3113, tmp3114
	.loc 3 223 0
	vldr	d16, [sp, #16]	@, %sfp
	vldr	d17, [sp, #24]	@, %sfp
	vand	q8, q8, q6	@ tmp3120,, tmp3688
	vtbl.8	d28, {d6, d7}, d16	@ tmp3118,,, tmp3120
	vtbl.8	d29, {d6, d7}, d17	@,,,
	.loc 3 200 0
	vtbl.8	d6, {d10, d11}, d18	@ tmp3122,,, tmp3124
	vtbl.8	d7, {d10, d11}, d19	@,,,
	.loc 3 190 0
	vldr	d10, .L202+96	@,
	vldr	d11, .L202+104	@,
	.loc 3 200 0
	veor	q14, q14, q3	@ tmp3126, tmp3118, tmp3122
	.loc 3 190 0
	vtbl.8	d6, {d10, d11}, d20	@ tmp3127,,, tmp3129
	vtbl.8	d7, {d10, d11}, d21	@,,,
	.loc 3 213 0
	vldr	d10, .L202+112	@,
	vldr	d11, .L202+120	@,
	veor	q14, q14, q3	@ tmp3131, tmp3126, tmp3127
	vtbl.8	d6, {d10, d11}, d24	@ tmp3132,,, tmp3134
	vtbl.8	d7, {d10, d11}, d25	@,,,
	.loc 3 227 0
	vldr	d10, .L202+128	@,
	vldr	d11, .L202+136	@,
	.loc 3 223 0
	veor	q14, q14, q3	@ prephitmp.786, tmp3131, tmp3132
.LVL214:
	.loc 3 227 0
	vtbl.8	d6, {d10, d11}, d0	@ tmp3136,,, tmp3102
	vtbl.8	d7, {d10, d11}, d1	@,,,
	.loc 3 204 0
	vldr	d10, .L202+176	@,
	vldr	d11, .L202+184	@,
	vtbl.8	d0, {d10, d11}, d8	@ tmp3140,,, tmp3106
	vtbl.8	d1, {d10, d11}, d9	@,,,
	veor	q0, q3, q0	@ tmp3144, tmp3136, tmp3140
	.loc 3 194 0
	vldr	d6, .L202+160	@,
	vldr	d7, .L202+168	@,
	vtbl.8	d8, {d6, d7}, d26	@ tmp3145,,, tmp3111
	vtbl.8	d9, {d6, d7}, d27	@,,,
	.loc 3 217 0
	veor	q5, q0, q4	@ tmp3149, tmp3144, tmp3145
	vldr	d8, .L202+144	@,
	vldr	d9, .L202+152	@,
	vtbl.8	d26, {d8, d9}, d22	@ tmp3150,,, tmp3116
	vtbl.8	d27, {d8, d9}, d23	@,,,
	.loc 3 227 0
	veor	q0, q5, q13	@ prephitmp.786, tmp3149, tmp3150
	.loc 3 228 0
	vldr	d26, .L202+128	@,
	vldr	d27, .L202+136	@,
	vtbl.8	d22, {d26, d27}, d16	@ tmp3154,,, tmp3120
	vtbl.8	d23, {d26, d27}, d17	@,,,
	.loc 3 205 0
	vldr	d16, .L202+176	@,
	vldr	d17, .L202+184	@,
	vtbl.8	d10, {d16, d17}, d18	@ tmp3158,,, tmp3124
	vtbl.8	d11, {d16, d17}, d19	@,,,
	.loc 3 218 0
	vtbl.8	d18, {d8, d9}, d24	@ tmp3168,,, tmp3134
	.loc 3 205 0
	veor	q11, q11, q5	@ tmp3162, tmp3154, tmp3158
	.loc 3 195 0
	vtbl.8	d16, {d6, d7}, d20	@ tmp3163,,, tmp3129
	vtbl.8	d17, {d6, d7}, d21	@,,,
	.loc 3 218 0
	vtbl.8	d19, {d8, d9}, d25	@,,,
	veor	q10, q11, q8	@ tmp3167, tmp3162, tmp3163
	.loc 3 228 0
	veor	q5, q10, q9	@ prephitmp.786, tmp3167, tmp3168
.LVL215:
.LBE1414:
.LBE1417:
.LBE1423:
	.loc 3 58 0
	bne	.L131	@,
	.loc 3 93 0
	add	r4, r3, r0, lsl #4	@, tmp3207, tweakey, t,
	vstr	d0, [sp, #32]	@, %sfp
	vstr	d1, [sp, #40]	@, %sfp
	vmov	q6, q7  @ v16qi	@ prephitmp.786, prephitmp.786
	vldr	d8, [r4, #32]	@, *D.16894_1127
	vldr	d9, [r4, #40]	@, *D.16894_1127
	vldmia	r4, {d14-d15}	@ *D.16894_2161, *D.16894_2161
	vldr	d0, [sp, #224]	@, %sfp
	vldr	d1, [sp, #232]	@, %sfp
	vldr	d16, [r4, #48]	@, *D.16894_491
	vldr	d17, [r4, #56]	@, *D.16894_491
	veor	q13, q4, q0	@, *D.16894_1127,
	veor	q11, q8, q6	@, *D.16894_491, prephitmp.786
	vstr	d26, [sp, #112]	@, %sfp
	vstr	d27, [sp, #120]	@, %sfp
	vstr	d22, [sp, #128]	@, %sfp
	vstr	d23, [sp, #136]	@, %sfp
	vldr	d24, [sp, #192]	@, %sfp
	vldr	d25, [sp, #200]	@, %sfp
	veor	q12, q7, q12	@ tmp3210, *D.16894_2161,
.LVL216:
	vldr	d14, [r4, #96]	@, *D.16894_2735
	vldr	d15, [r4, #104]	@, *D.16894_2735
	veor	q4, q7, q2	@ tmp3270, *D.16894_2735, prephitmp.786
	vldr	d4, [r4, #112]	@, *D.16894_2752
	vldr	d5, [r4, #120]	@, *D.16894_2752
	veor	q14, q2, q14	@, *D.16894_2752, prephitmp.786
	vstr	d28, [sp, #16]	@, %sfp
	vstr	d29, [sp, #24]	@, %sfp
	vldr	d18, [r4, #16]	@, *D.16894_1729
	vldr	d19, [r4, #24]	@, *D.16894_1729
	vldr	d6, [sp, #208]	@, %sfp
	vldr	d7, [sp, #216]	@, %sfp
	vldr	d12, [r4, #64]	@, *D.16894_821
	vldr	d13, [r4, #72]	@, *D.16894_821
	veor	q10, q9, q3	@ tmp3220, *D.16894_1729,
.LVL217:
	vldr	d0, [sp, #96]	@, %sfp
	vldr	d1, [sp, #104]	@, %sfp
	veor	q3, q6, q15	@ tmp3250, *D.16894_821, prephitmp.786
.LVL218:
	vldr	d26, [r4, #144]	@, *D.16894_2786
	vldr	d27, [r4, #152]	@, *D.16894_2786
	vldr	d30, [r4, #80]	@, *D.16894_2718
	vldr	d31, [r4, #88]	@, *D.16894_2718
	vldr	d16, [sp, #144]	@, %sfp
	vldr	d17, [sp, #152]	@, %sfp
	vldr	d12, [r4, #160]	@, *D.16894_2803
	vldr	d13, [r4, #168]	@, *D.16894_2803
	veor	q11, q13, q8	@ tmp3300, *D.16894_2786,
	vldr	d14, [r4, #176]	@, *D.16894_2820
	vldr	d15, [r4, #184]	@, *D.16894_2820
	vldr	d4, [sp, #176]	@, %sfp
	vldr	d5, [sp, #184]	@, %sfp
	vldr	d28, [r4, #192]	@, *D.16894_2837
	vldr	d29, [r4, #200]	@, *D.16894_2837
	vldr	d16, [r4, #208]	@, *D.16894_2854
	vldr	d17, [r4, #216]	@, *D.16894_2854
	veor	q1, q15, q1	@ tmp3260, *D.16894_2718, prephitmp.786
.LVL219:
	vldr	d18, [r4, #128]	@, *D.16894_2769
	vldr	d19, [r4, #136]	@, *D.16894_2769
	vldr	d30, [sp, #160]	@, %sfp
	vldr	d31, [sp, #168]	@, %sfp
	veor	q9, q9, q0	@ tmp3290, *D.16894_2769,
.LVL220:
	veor	q13, q6, q15	@ tmp3310, *D.16894_2803,
.LVL221:
	vldr	d0, [sp, #48]	@, %sfp
	vldr	d1, [sp, #56]	@, %sfp
	veor	q15, q7, q2	@ tmp3320, *D.16894_2820,
.LVL222:
	vldr	d12, [sp, #64]	@, %sfp
	vldr	d13, [sp, #72]	@, %sfp
	veor	q2, q14, q0	@ tmp3330, *D.16894_2837,
.LVL223:
	vldr	d14, [r4, #224]	@, *D.16894_2871
	vldr	d15, [r4, #232]	@, *D.16894_2871
	veor	q0, q8, q6	@ tmp3340, *D.16894_2854,
.LVL224:
	vldr	d28, [sp, #32]	@, %sfp
	vldr	d29, [sp, #40]	@, %sfp
	vldr	d16, [r4, #240]	@, *D.16894_445
	vldr	d17, [r4, #248]	@, *D.16894_445
	veor	q7, q7, q14	@ tmp3350, *D.16894_2871,
.LVL225:
	veor	q6, q8, q5	@ tmp3360, *D.16894_445, prephitmp.786
.LVL226:
.LBE1425:
.LBE1429:
.LBB1430:
.LBB1431:
.LBB1432:
.LBB1433:
.LBB1434:
	.loc 2 7647 0
	vzip.8	q9, q2	@ tmp3383, tmp3384
.LBE1434:
.LBE1433:
.LBE1432:
.LBB1435:
.LBB1436:
.LBB1437:
	vmov	q8, q12  @ v16qi	@ tmp3370, tmp3210
.LBE1437:
.LBE1436:
.LBE1435:
.LBB1440:
.LBB1441:
.LBB1442:
	vzip.8	q10, q1	@ tmp3396, tmp3397
.LBE1442:
.LBE1441:
.LBE1440:
.LBB1443:
.LBB1439:
.LBB1438:
	vzip.8	q8, q3	@ tmp3370, tmp3371
.LVL227:
.LBE1438:
.LBE1439:
.LBE1443:
.LBB1444:
.LBB1445:
.LBB1446:
	vzip.8	q11, q0	@ tmp3409, tmp3410
.LVL228:
.LBE1446:
.LBE1445:
.LBE1444:
.LBB1447:
.LBB1448:
.LBB1449:
	vldr	d24, [sp, #112]	@, %sfp
	vldr	d25, [sp, #120]	@, %sfp
.LBE1449:
.LBE1448:
.LBE1447:
.LBB1452:
.LBB1453:
.LBB1454:
	vzip.8	q13, q7	@ tmp3435, tmp3436
.LBE1454:
.LBE1453:
.LBE1452:
.LBB1455:
.LBB1451:
.LBB1450:
	vzip.8	q12, q4	@ tmp3422, tmp3423
.LVL229:
.LBE1450:
.LBE1451:
.LBE1455:
.LBB1456:
.LBB1457:
.LBB1458:
	vldr	d10, [sp, #128]	@, %sfp
	vldr	d11, [sp, #136]	@, %sfp
	vldr	d28, [sp, #16]	@, %sfp
	vldr	d29, [sp, #24]	@, %sfp
.LBE1458:
.LBE1457:
.LBE1456:
.LBB1463:
.LBB1464:
.LBB1465:
	vzip.8	q15, q6	@ tmp3461, tmp3462
.LBE1465:
.LBE1464:
.LBE1463:
.LBB1466:
.LBB1461:
.LBB1459:
	vzip.8	q5, q14	@ tmp3448,
.LBE1459:
.LBE1461:
.LBE1466:
.LBB1467:
.LBB1468:
.LBB1469:
	vzip.8	q8, q12	@ tmp3468, tmp3469
.LVL230:
.LBE1469:
.LBE1468:
.LBE1467:
.LBB1470:
.LBB1462:
.LBB1460:
	vstr	d28, [sp, #32]	@, %sfp
	vstr	d29, [sp, #40]	@, %sfp
.LVL231:
.LBE1460:
.LBE1462:
.LBE1470:
.LBB1471:
.LBB1472:
.LBB1473:
	vzip.8	q9, q13	@ tmp3475, tmp3476
.LVL232:
.LBE1473:
.LBE1472:
.LBE1471:
.LBB1474:
.LBB1475:
.LBB1476:
	vmov	q14, q5  @ v16qi	@ tmp3483, tmp3448
.LVL233:
.LBE1476:
.LBE1475:
.LBE1474:
.LBB1479:
.LBB1480:
.LBB1481:
	vzip.8	q11, q15	@ tmp3489, tmp3490
.LVL234:
.LBE1481:
.LBE1480:
.LBE1479:
.LBB1482:
.LBB1478:
.LBB1477:
	vzip.8	q10, q14	@ tmp3482, tmp3483
.LVL235:
.LBE1477:
.LBE1478:
.LBE1482:
.LBB1483:
.LBB1484:
.LBB1485:
	vzip.8	q3, q4	@ tmp3496, tmp3497
.LVL236:
.LBE1485:
.LBE1484:
.LBE1483:
.LBB1486:
.LBB1487:
.LBB1488:
	vzip.8	q2, q7	@ tmp3503, tmp3504
.LVL237:
.LBE1488:
.LBE1487:
.LBE1486:
.LBB1489:
.LBB1490:
.LBB1491:
	vzip.8	q0, q6	@ tmp3517, tmp3518
.LVL238:
.LBE1491:
.LBE1490:
.LBE1489:
.LBB1492:
.LBB1493:
.LBB1494:
	vzip.8	q8, q10	@ tmp3524, tmp3525
.LVL239:
.LBE1494:
.LBE1493:
.LBE1492:
.LBB1495:
.LBB1496:
.LBB1497:
	vzip.8	q9, q11	@ tmp3531, tmp3532
.LVL240:
.LBE1497:
.LBE1496:
.LBE1495:
.LBB1498:
.LBB1499:
.LBB1500:
	vzip.8	q12, q14	@ tmp3538, tmp3539
.LVL241:
.LBE1500:
.LBE1499:
.LBE1498:
.LBB1501:
.LBB1502:
.LBB1503:
	vzip.8	q13, q15	@ tmp3545, tmp3546
.LVL242:
.LBE1503:
.LBE1502:
.LBE1501:
.LBB1504:
.LBB1505:
.LBB1506:
	vzip.8	q2, q0	@ tmp3559, tmp3560
.LVL243:
.LBE1506:
.LBE1505:
.LBE1504:
.LBB1507:
.LBB1508:
.LBB1509:
	vzip.8	q7, q6	@ tmp3573, tmp3574
.LVL244:
.LBE1509:
.LBE1508:
.LBE1507:
.LBB1510:
.LBB1511:
.LBB1512:
	vldr	d10, [sp, #32]	@, %sfp
	vldr	d11, [sp, #40]	@, %sfp
.LVL245:
.LBE1512:
.LBE1511:
.LBE1510:
.LBB1515:
.LBB1516:
.LBB1517:
	vzip.8	q8, q9	@ tmp3580, tmp3581
.LBE1517:
.LBE1516:
.LBE1515:
.LBB1518:
.LBB1514:
.LBB1513:
	vzip.8	q1, q5	@ tmp3510,
.LVL246:
.LBE1513:
.LBE1514:
.LBE1518:
.LBB1519:
.LBB1520:
.LBB1521:
	vzip.8	q10, q11	@ tmp3591, tmp3592
.LVL247:
.LBE1521:
.LBE1520:
.LBE1519:
.LBB1522:
.LBB1523:
.LBB1524:
	vzip.8	q3, q1	@ tmp3552, tmp3553
.LVL248:
.LBE1524:
.LBE1523:
.LBE1522:
.LBB1525:
.LBB1526:
.LBB1527:
	vzip.8	q4, q5	@ tmp3566,
.LVL249:
.LBE1527:
.LBE1526:
.LBE1525:
.LBB1528:
.LBB1529:
.LBB1530:
	vzip.8	q12, q13	@ tmp3602, tmp3603
.LVL250:
.LBE1530:
.LBE1529:
.LBE1528:
.LBB1531:
.LBB1532:
.LBB1533:
	vzip.8	q5, q6	@, tmp3658
.LVL251:
.LBE1533:
.LBE1532:
.LBE1531:
.LBB1536:
.LBB1537:
.LBB1538:
	vzip.8	q14, q15	@ tmp3613, tmp3614
.LVL252:
.LBE1538:
.LBE1537:
.LBE1536:
.LBB1539:
.LBB1540:
.LBB1541:
	vzip.8	q3, q2	@ tmp3624, tmp3625
.LVL253:
.LBE1541:
.LBE1540:
.LBE1539:
.LBB1542:
.LBB1543:
.LBB1544:
	vzip.8	q1, q0	@ tmp3635, tmp3636
.LVL254:
.LBE1544:
.LBE1543:
.LBE1542:
.LBB1545:
.LBB1546:
.LBB1547:
	vzip.8	q4, q7	@ tmp3646, tmp3647
.LVL255:
.LBE1547:
.LBE1546:
.LBE1545:
.LBB1548:
.LBB1535:
.LBB1534:
	vstr	d10, [sp, #16]	@, %sfp
	vstr	d11, [sp, #24]	@, %sfp
.LVL256:
.LBE1534:
.LBE1535:
.LBE1548:
	.loc 1 52 0
	cmp	r1, #0	@ out
	beq	.L135	@
	.loc 1 53 0
	subs	r2, r2, #1	@ tmp3667, outlen,
.LVL257:
	cmp	r2, #15	@ tmp3667,
	bhi	.L135	@
	tbb	[pc, r2]	@ tmp3667
.LVL258:
.L152:
	.byte	(.L136-.L152)/2
	.byte	(.L137-.L152)/2
	.byte	(.L138-.L152)/2
	.byte	(.L139-.L152)/2
	.byte	(.L140-.L152)/2
	.byte	(.L141-.L152)/2
	.byte	(.L142-.L152)/2
	.byte	(.L143-.L152)/2
	.byte	(.L144-.L152)/2
	.byte	(.L145-.L152)/2
	.byte	(.L146-.L152)/2
	.byte	(.L147-.L152)/2
	.byte	(.L148-.L152)/2
	.byte	(.L149-.L152)/2
	.byte	(.L150-.L152)/2
	.byte	(.L151-.L152)/2
	.align	1
.L151:
.LVL259:
.LBB1549:
.LBB1550:
	.loc 2 8322 0
	add	ip, r1, #240	@ tmp3668, out,
.LVL260:
	vst1.8	{d12-d13}, [ip]	@ tmp3658, MEM[(__builtin_neon_qi[16] *)D.17358_772]
.LVL261:
.L150:
.LBE1550:
.LBE1549:
.LBB1551:
.LBB1552:
	add	r0, r1, #224	@ tmp3669, out,
.LVL262:
	vldr	d10, [sp, #16]	@, %sfp
	vldr	d11, [sp, #24]	@, %sfp
.LVL263:
	vst1.8	{d10-d11}, [r0]	@, MEM[(__builtin_neon_qi[16] *)D.17357_774]
.LVL264:
.L149:
.LBE1552:
.LBE1551:
.LBB1553:
.LBB1554:
	add	r3, r1, #208	@ tmp3670, out,
.LVL265:
	vst1.8	{d14-d15}, [r3]	@ tmp3647, MEM[(__builtin_neon_qi[16] *)D.17356_777]
.LVL266:
.L148:
.LBE1554:
.LBE1553:
.LBB1555:
.LBB1556:
	add	r2, r1, #192	@ tmp3671, out,
.LVL267:
	vst1.8	{d8-d9}, [r2]	@ tmp3646, MEM[(__builtin_neon_qi[16] *)D.17355_780]
.LVL268:
.L147:
.LBE1556:
.LBE1555:
.LBB1557:
.LBB1558:
	add	ip, r1, #176	@ tmp3672, out,
.LVL269:
	vst1.8	{d0-d1}, [ip]	@ tmp3636, MEM[(__builtin_neon_qi[16] *)D.17354_783]
.LVL270:
.L146:
.LBE1558:
.LBE1557:
.LBB1559:
.LBB1560:
	add	r0, r1, #160	@ tmp3673, out,
.LVL271:
	vst1.8	{d2-d3}, [r0]	@ tmp3635, MEM[(__builtin_neon_qi[16] *)D.17353_786]
.LVL272:
.L145:
.LBE1560:
.LBE1559:
.LBB1561:
.LBB1562:
	add	r3, r1, #144	@ tmp3674, out,
.LVL273:
	vst1.8	{d4-d5}, [r3]	@ tmp3625, MEM[(__builtin_neon_qi[16] *)D.17352_789]
.LVL274:
.L144:
.LBE1562:
.LBE1561:
.LBB1563:
.LBB1564:
	add	r2, r1, #128	@ tmp3675, out,
.LVL275:
	vst1.8	{d6-d7}, [r2]	@ tmp3624, MEM[(__builtin_neon_qi[16] *)D.17351_792]
.LVL276:
.L143:
.LBE1564:
.LBE1563:
.LBB1565:
.LBB1566:
	add	ip, r1, #112	@ tmp3676, out,
.LVL277:
	vst1.8	{d30-d31}, [ip]	@ tmp3614, MEM[(__builtin_neon_qi[16] *)D.17350_795]
.LVL278:
.L142:
.LBE1566:
.LBE1565:
.LBB1567:
.LBB1568:
	add	r0, r1, #96	@ tmp3677, out,
.LVL279:
	vst1.8	{d28-d29}, [r0]	@ tmp3613, MEM[(__builtin_neon_qi[16] *)D.17349_798]
.LVL280:
.L141:
.LBE1568:
.LBE1567:
.LBB1569:
.LBB1570:
	add	r3, r1, #80	@ tmp3678, out,
.LVL281:
	vst1.8	{d26-d27}, [r3]	@ tmp3603, MEM[(__builtin_neon_qi[16] *)D.17348_801]
.LVL282:
.L140:
.LBE1570:
.LBE1569:
.LBB1571:
.LBB1572:
	add	r2, r1, #64	@ tmp3679, out,
.LVL283:
	vst1.8	{d24-d25}, [r2]	@ tmp3602, MEM[(__builtin_neon_qi[16] *)D.17347_804]
.LVL284:
.L139:
.LBE1572:
.LBE1571:
.LBB1573:
.LBB1574:
	add	ip, r1, #48	@ tmp3680, out,
.LVL285:
	vst1.8	{d22-d23}, [ip]	@ tmp3592, MEM[(__builtin_neon_qi[16] *)D.17346_807]
.LVL286:
.L138:
.LBE1574:
.LBE1573:
.LBB1575:
.LBB1576:
	add	r0, r1, #32	@ tmp3681, out,
.LVL287:
	vst1.8	{d20-d21}, [r0]	@ tmp3591, MEM[(__builtin_neon_qi[16] *)D.17345_810]
.LVL288:
.L137:
.LBE1576:
.LBE1575:
.LBB1577:
.LBB1578:
	add	r3, r1, #16	@ tmp3682, out,
.LVL289:
	vst1.8	{d18-d19}, [r3]	@ tmp3581, MEM[(__builtin_neon_qi[16] *)D.17344_813]
.LVL290:
.L136:
.LBE1578:
.LBE1577:
.LBB1579:
.LBB1580:
	vst1.8	{d16-d17}, [r1]	@ tmp3580, MEM[(__builtin_neon_qi[16] *)out_5(D)]
.LVL291:
.L135:
.LBE1580:
.LBE1579:
	.loc 1 92 0
	cbz	r7, .L97	@ ck_w,
	.loc 1 93 0
	ldr	r1, [sp, #636]	@ n_w, n_w
.LVL292:
	subs	r0, r1, #1	@ tmp3683, n_w,
	cmp	r0, #15	@ tmp3683,
	bhi	.L97	@
	tbb	[pc, r0]	@ tmp3683
.L170:
	.byte	(.L154-.L170)/2
	.byte	(.L155-.L170)/2
	.byte	(.L156-.L170)/2
	.byte	(.L157-.L170)/2
	.byte	(.L158-.L170)/2
	.byte	(.L159-.L170)/2
	.byte	(.L160-.L170)/2
	.byte	(.L161-.L170)/2
	.byte	(.L162-.L170)/2
	.byte	(.L163-.L170)/2
	.byte	(.L164-.L170)/2
	.byte	(.L165-.L170)/2
	.byte	(.L166-.L170)/2
	.byte	(.L167-.L170)/2
	.byte	(.L168-.L170)/2
	.byte	(.L169-.L170)/2
	.align	1
.L162:
	vldmia	r7, {d4-d5}	@ *ck_w_7(D), prephitmp.905
.LVL293:
.L177:
	.loc 1 109 0
	veor	q3, q2, q3	@ prephitmp.905, prephitmp.905, tmp3624
.LVL294:
.L178:
	.loc 1 111 0
	veor	q15, q3, q15	@ prephitmp.905, prephitmp.905, tmp3614
.LVL295:
.L179:
	.loc 1 113 0
	veor	q14, q15, q14	@ prephitmp.905, prephitmp.905, tmp3613
.LVL296:
.L180:
	.loc 1 115 0
	veor	q13, q14, q13	@ prephitmp.905, prephitmp.905, tmp3603
.LVL297:
.L181:
	.loc 1 117 0
	veor	q12, q13, q12	@ prephitmp.905, prephitmp.905, tmp3602
.LVL298:
.L182:
	.loc 1 119 0
	veor	q11, q12, q11	@ prephitmp.905, prephitmp.905, tmp3592
.LVL299:
.L183:
	.loc 1 121 0
	veor	q10, q11, q10	@ prephitmp.905, prephitmp.905, tmp3591
.LVL300:
.L184:
	.loc 1 123 0
	veor	q9, q10, q9	@ prephitmp.905, prephitmp.905, tmp3581
.LVL301:
.L185:
	.loc 1 125 0
	veor	q8, q9, q8	@ tmp3685, prephitmp.905, tmp3580
.LVL302:
	vstmia	r7, {d16-d17}	@ *ck_w_7(D), tmp3685
.L97:
.LBE1431:
.LBE1430:
	.loc 1 276 0
	add	sp, sp, #544	@,,
	fldmfdd	sp!, {d8, d9, d10, d11, d12, d13, d14, d15}
	pop	{r4, r5, r6, r7}
	bx	lr
.LVL303:
.L163:
	vldmia	r7, {d2-d3}	@ *ck_w_7(D), prephitmp.905
.LVL304:
.L176:
.LBB1583:
.LBB1581:
	.loc 1 107 0
	veor	q2, q1, q2	@ prephitmp.905, prephitmp.905, tmp3625
.LVL305:
	b	.L177	@
.LVL306:
.L114:
.LBE1581:
.LBE1583:
.LBB1584:
.LBB1342:
	.loc 1 161 0
	vldmia	r4, {d22-d23}	@ *ck_r_2(D), *ck_r_2(D)
	vldr	d16, [sp, #64]	@, %sfp
	vldr	d17, [sp, #72]	@, %sfp
	veor	q11, q8, q11	@ prephitmp.905,, *ck_r_2(D)
	b	.L116	@
.L109:
	vldmia	r4, {d22-d23}	@ *ck_r_2(D), prephitmp.905
	b	.L120	@
.L110:
	vldmia	r4, {d16-d17}	@ *ck_r_2(D), prephitmp.905
	b	.L119	@
.L111:
	vldmia	r4, {d22-d23}	@ *ck_r_2(D), prephitmp.905
	b	.L118	@
.L112:
	vldmia	r4, {d16-d17}	@ *ck_r_2(D), prephitmp.905
	b	.L117	@
.LVL307:
.L156:
	vldmia	r7, {d22-d23}	@ *ck_w_7(D), prephitmp.905
.LVL308:
	b	.L183	@
.LVL309:
.L157:
	vldmia	r7, {d24-d25}	@ *ck_w_7(D), prephitmp.905
.LVL310:
	b	.L182	@
.LVL311:
.L158:
	vldmia	r7, {d26-d27}	@ *ck_w_7(D), prephitmp.905
.LVL312:
	b	.L181	@
.LVL313:
.L159:
	vldmia	r7, {d28-d29}	@ *ck_w_7(D), prephitmp.905
.LVL314:
	b	.L180	@
.LVL315:
.L160:
	vldmia	r7, {d30-d31}	@ *ck_w_7(D), prephitmp.905
.LVL316:
	b	.L179	@
.LVL317:
.L161:
	vldmia	r7, {d6-d7}	@ *ck_w_7(D), prephitmp.905
.LVL318:
	b	.L178	@
.LVL319:
.L107:
	vldmia	r4, {d22-d23}	@ *ck_r_2(D), prephitmp.905
	b	.L122	@
.L108:
	vldmia	r4, {d16-d17}	@ *ck_r_2(D), prephitmp.905
	b	.L121	@
.LVL320:
.L164:
	vldmia	r7, {d0-d1}	@ *ck_w_7(D), prephitmp.905
.LVL321:
.L175:
.LBE1342:
.LBE1584:
.LBB1585:
.LBB1582:
	.loc 1 105 0
	veor	q1, q0, q1	@ prephitmp.905, prephitmp.905, tmp3635
.LVL322:
	b	.L176	@
.LVL323:
.L165:
	vldmia	r7, {d8-d9}	@ *ck_w_7(D), prephitmp.905
.LVL324:
.L174:
	.loc 1 103 0
	veor	q0, q4, q0	@ prephitmp.905, prephitmp.905, tmp3636
.LVL325:
	b	.L175	@
.LVL326:
.L166:
	vldmia	r7, {d14-d15}	@ *ck_w_7(D), prephitmp.905
.LVL327:
.L173:
	.loc 1 101 0
	veor	q4, q7, q4	@ prephitmp.905, prephitmp.905, tmp3646
.LVL328:
	b	.L174	@
.LVL329:
.L167:
	vldmia	r7, {d12-d13}	@ *ck_w_7(D), prephitmp.905
.LVL330:
.L172:
	.loc 1 99 0
	veor	q7, q6, q7	@ prephitmp.905, prephitmp.905, tmp3647
.LVL331:
	b	.L173	@
.LVL332:
.L168:
	vldmia	r7, {d12-d13}	@ *ck_w_7(D), prephitmp.905
.LVL333:
.L171:
	.loc 1 97 0
	vldr	d10, [sp, #16]	@, %sfp
	vldr	d11, [sp, #24]	@, %sfp
	veor	q6, q6, q5	@ prephitmp.905, prephitmp.905,
	b	.L172	@
.LVL334:
.L169:
	.loc 1 95 0
	vldmia	r7, {d10-d11}	@ *ck_w_7(D),
	veor	q6, q6, q5	@ prephitmp.905, tmp3658,
.LVL335:
	b	.L171	@
.LVL336:
.L99:
	vldmia	r4, {d16-d17}	@ *ck_r_2(D),
	vstr	d16, [sp, #16]	@, %sfp
	vstr	d17, [sp, #24]	@, %sfp
	b	.L130	@
.L100:
	vldmia	r4, {d16-d17}	@ *ck_r_2(D), prephitmp.905
	b	.L129	@
.L101:
	vldmia	r4, {d22-d23}	@ *ck_r_2(D), prephitmp.905
	b	.L128	@
.L102:
	vldmia	r4, {d16-d17}	@ *ck_r_2(D), prephitmp.905
	b	.L127	@
.L103:
	vldmia	r4, {d22-d23}	@ *ck_r_2(D), prephitmp.905
	b	.L126	@
.L104:
	vldmia	r4, {d16-d17}	@ *ck_r_2(D), prephitmp.905
	b	.L125	@
.L105:
	vldmia	r4, {d22-d23}	@ *ck_r_2(D), prephitmp.905
	b	.L124	@
.L106:
	vldmia	r4, {d16-d17}	@ *ck_r_2(D), prephitmp.905
	b	.L123	@
.LVL337:
.L154:
	vldmia	r7, {d18-d19}	@ *ck_w_7(D), prephitmp.905
.LVL338:
	b	.L185	@
.LVL339:
.L155:
	vldmia	r7, {d20-d21}	@ *ck_w_7(D), prephitmp.905
.LVL340:
	b	.L184	@
.LBE1582:
.LBE1585:
	.cfi_endproc
.LFE1888:
	.size	encrypt_bloc128, .-encrypt_bloc128
	.align	2
	.global	decrypt_bloc128
	.thumb
	.thumb_func
	.type	decrypt_bloc128, %function
decrypt_bloc128:
.LFB1889:
	.loc 1 282 0
	.cfi_startproc
	@ args = 16, pretend = 0, frame = 760
	@ frame_needed = 0, uses_anonymous_args = 0
	@ link register save eliminated.
.LVL341:
	push	{r4, r5, r6, r7, r8, r9, sl, fp}	@
.LCFI9:
	.cfi_def_cfa_offset 32
	.cfi_offset 4, -32
	.cfi_offset 5, -28
	.cfi_offset 6, -24
	.cfi_offset 7, -20
	.cfi_offset 8, -16
	.cfi_offset 9, -12
	.cfi_offset 10, -8
	.cfi_offset 11, -4
	fstmfdd	sp!, {d8, d9, d10, d11, d12, d13, d14, d15}	@,
.LCFI10:
	.cfi_def_cfa_offset 96
	.cfi_offset 80, -96
	.cfi_offset 82, -88
	.cfi_offset 84, -80
	.cfi_offset 86, -72
	.cfi_offset 88, -64
	.cfi_offset 90, -56
	.cfi_offset 92, -48
	.cfi_offset 94, -40
	mov	r4, r3	@ tweakey, tweakey
.LBB1586:
.LBB1587:
.LBB1588:
.LBB1589:
	.loc 2 7926 0
	add	r5, r0, #48	@ tmp1787, in,
.LBE1589:
.LBE1588:
.LBB1591:
.LBB1592:
	add	r6, r0, #64	@ tmp1788, in,
.LBE1592:
.LBE1591:
.LBB1594:
.LBB1595:
	add	r7, r0, #80	@ tmp1789, in,
.LBE1595:
.LBE1594:
.LBB1597:
.LBB1598:
	add	r8, r0, #96	@ tmp1790, in,
.LBE1598:
.LBE1597:
.LBB1600:
.LBB1601:
	add	r9, r0, #112	@ tmp1791, in,
.LBE1601:
.LBE1600:
.LBB1604:
.LBB1605:
	add	sl, r0, #128	@ tmp1792, in,
.LBE1605:
.LBE1604:
.LBE1587:
.LBE1586:
	.loc 1 282 0
	sub	sp, sp, #760	@,,
.LCFI11:
	.cfi_def_cfa_offset 856
.LVL342:
.LBB1770:
.LBB1763:
.LBB1607:
.LBB1608:
	.loc 2 7926 0
	vld1.8	{d0-d1}, [r0]	@, MEM[(const __builtin_neon_qi[16] *)in_1(D)]
.LBE1608:
.LBE1607:
.LBB1613:
.LBB1614:
	add	fp, r0, #144	@ tmp1793, in,
.LBE1614:
.LBE1613:
.LBE1763:
.LBE1770:
	.loc 1 282 0
	ldr	r3, [sp, #856]	@ ck_r, ck_r
.LVL343:
.LBB1771:
.LBB1764:
.LBB1616:
.LBB1617:
	.loc 2 7926 0
	add	ip, r0, #160	@ tmp1794, in,
.LBE1617:
.LBE1616:
.LBB1619:
.LBB1609:
	vstr	d0, [sp, #184]	@, %sfp
	vstr	d1, [sp, #192]	@, %sfp
.LBE1609:
.LBE1619:
.LBE1764:
.LBE1771:
	.loc 1 282 0
	str	r1, [sp, #464]	@ out, %sfp
.LBB1772:
.LBB1765:
.LBB1620:
.LBB1593:
	.loc 2 7926 0
	vld1.8	{d30-d31}, [r6]	@ D.17780, MEM[(const __builtin_neon_qi[16] *)D.17813_25]
.LBE1593:
.LBE1620:
.LBB1621:
.LBB1622:
	add	r1, r0, #32	@ tmp1786, in,
.LVL344:
.LBE1622:
.LBE1621:
.LBB1624:
.LBB1625:
	add	r6, r0, #224	@ tmp1798, in,
.LBE1625:
.LBE1624:
.LBE1765:
.LBE1772:
	.loc 1 282 0
	str	r2, [sp, #468]	@ outlen, %sfp
.LBB1773:
.LBB1766:
.LBB1627:
.LBB1623:
	.loc 2 7926 0
	vld1.8	{d0-d1}, [r1]	@ D.17782, MEM[(const __builtin_neon_qi[16] *)D.17815_19]
.LBE1623:
.LBE1627:
.LBB1628:
.LBB1610:
	mov	r2, r0	@ tmp1785, in
.LVL345:
.LBE1610:
.LBE1628:
.LBB1629:
.LBB1630:
	add	r1, r0, #192	@ tmp1796, in,
.LBE1630:
.LBE1629:
.LBB1632:
.LBB1611:
	vld1.8	{d2-d3}, [r2]!	@, MEM[(const __builtin_neon_qi[16] *)in_1(D)]
.LBE1611:
.LBE1632:
.LBB1633:
.LBB1602:
	vld1.8	{d8-d9}, [r9]	@, MEM[(const __builtin_neon_qi[16] *)D.17810_34]
.LBE1602:
.LBE1633:
.LBB1634:
.LBB1612:
	vstr	d2, [sp, #200]	@, %sfp
	vstr	d3, [sp, #208]	@, %sfp
.LVL346:
.LBE1612:
.LBE1634:
.LBB1635:
.LBB1636:
	vld1.8	{d10-d11}, [r2]	@ D.17783, MEM[(const __builtin_neon_qi[16] *)D.17816_16]
.LVL347:
.LBE1636:
.LBE1635:
.LBB1637:
.LBB1590:
	vld1.8	{d2-d3}, [r5]	@ D.17781, MEM[(const __builtin_neon_qi[16] *)D.17814_22]
.LVL348:
.LBE1590:
.LBE1637:
.LBB1638:
.LBB1639:
	add	r2, r0, #176	@ tmp1795, in,
.LVL349:
.LBE1639:
.LBE1638:
.LBB1641:
.LBB1642:
	add	r5, r0, #208	@ tmp1797, in,
.LVL350:
.LBE1642:
.LBE1641:
.LBB1644:
.LBB1596:
	vld1.8	{d4-d5}, [r7]	@ D.17779, MEM[(const __builtin_neon_qi[16] *)D.17812_28]
.LVL351:
.LBE1596:
.LBE1644:
.LBB1645:
.LBB1646:
	adds	r0, r0, #240	@ tmp1799, in,
.LVL352:
.LBE1646:
.LBE1645:
.LBB1648:
.LBB1599:
	vld1.8	{d6-d7}, [r8]	@ D.17778, MEM[(const __builtin_neon_qi[16] *)D.17811_31]
.LBE1599:
.LBE1648:
.LBB1649:
.LBB1603:
	vstr	d8, [sp, #56]	@, %sfp
	vstr	d9, [sp, #64]	@, %sfp
.LBE1603:
.LBE1649:
.LBB1650:
.LBB1606:
	vld1.8	{d14-d15}, [sl]	@ D.17776, MEM[(const __builtin_neon_qi[16] *)D.17809_37]
.LBE1606:
.LBE1650:
.LBB1651:
.LBB1615:
	vld1.8	{d28-d29}, [fp]	@ D.17775, MEM[(const __builtin_neon_qi[16] *)D.17808_40]
.LBE1615:
.LBE1651:
.LBB1652:
.LBB1618:
	vld1.8	{d24-d25}, [ip]	@ D.17774, MEM[(const __builtin_neon_qi[16] *)D.17807_43]
.LBE1618:
.LBE1652:
.LBB1653:
.LBB1640:
	vld1.8	{d26-d27}, [r2]	@ D.17773, MEM[(const __builtin_neon_qi[16] *)D.17806_46]
.LBE1640:
.LBE1653:
.LBB1654:
.LBB1631:
	vld1.8	{d20-d21}, [r1]	@ D.17772, MEM[(const __builtin_neon_qi[16] *)D.17805_49]
.LBE1631:
.LBE1654:
.LBB1655:
.LBB1643:
	vld1.8	{d22-d23}, [r5]	@ D.17771, MEM[(const __builtin_neon_qi[16] *)D.17804_52]
.LBE1643:
.LBE1655:
.LBB1656:
.LBB1626:
	vld1.8	{d12-d13}, [r6]	@ D.17770, MEM[(const __builtin_neon_qi[16] *)D.17803_55]
.LBE1626:
.LBE1656:
.LBB1657:
.LBB1647:
	vld1.8	{d18-d19}, [r0]	@ D.17769, MEM[(const __builtin_neon_qi[16] *)D.17802_58]
.LBE1647:
.LBE1657:
	.loc 1 158 0
	cmp	r3, #0	@ ck_r
	beq	.L206	@
	.loc 1 159 0
	ldr	r0, [sp, #860]	@ n_r, n_r
.LVL353:
	subs	r7, r0, #1	@ tmp1800, n_r,
.LVL354:
	cmp	r7, #15	@ tmp1800,
	bhi	.L206	@
	tbh	[pc, r7, lsl #1]	@ tmp1800
.L223:
	.2byte	(.L207-.L223)/2
	.2byte	(.L208-.L223)/2
	.2byte	(.L209-.L223)/2
	.2byte	(.L210-.L223)/2
	.2byte	(.L211-.L223)/2
	.2byte	(.L212-.L223)/2
	.2byte	(.L213-.L223)/2
	.2byte	(.L214-.L223)/2
	.2byte	(.L215-.L223)/2
	.2byte	(.L216-.L223)/2
	.2byte	(.L217-.L223)/2
	.2byte	(.L218-.L223)/2
	.2byte	(.L219-.L223)/2
	.2byte	(.L220-.L223)/2
	.2byte	(.L221-.L223)/2
	.2byte	(.L222-.L223)/2
.L221:
	vldmia	r3, {d8-d9}	@ *ck_r_2(D), prephitmp.1124
.L224:
	.loc 1 163 0
	veor	q8, q4, q6	@ prephitmp.1124, prephitmp.1124, D.17770
.L225:
	.loc 1 165 0
	veor	q4, q8, q11	@ prephitmp.1124, prephitmp.1124, D.17771
.L226:
	.loc 1 167 0
	veor	q8, q4, q10	@ prephitmp.1124, prephitmp.1124, D.17772
.L227:
	.loc 1 169 0
	veor	q4, q8, q13	@ prephitmp.1124, prephitmp.1124, D.17773
.L228:
	.loc 1 171 0
	veor	q8, q4, q12	@ prephitmp.1124, prephitmp.1124, D.17774
.L229:
	.loc 1 173 0
	veor	q4, q8, q14	@ prephitmp.1124, prephitmp.1124, D.17775
.L230:
	.loc 1 175 0
	veor	q4, q4, q7	@ prephitmp.1124, prephitmp.1124, D.17776
.L231:
	.loc 1 177 0
	vldr	d16, [sp, #56]	@, %sfp
	vldr	d17, [sp, #64]	@, %sfp
	veor	q4, q4, q8	@ prephitmp.1124, prephitmp.1124,
.L232:
	.loc 1 179 0
	veor	q8, q4, q3	@ prephitmp.1124, prephitmp.1124, D.17778
.L233:
	.loc 1 181 0
	veor	q4, q8, q2	@ prephitmp.1124, prephitmp.1124, D.17779
.L234:
	.loc 1 183 0
	veor	q8, q4, q15	@ prephitmp.1124, prephitmp.1124, D.17780
.L235:
	.loc 1 185 0
	veor	q4, q8, q1	@ prephitmp.1124, prephitmp.1124, D.17781
.L236:
	.loc 1 187 0
	veor	q8, q4, q0	@ prephitmp.1124, prephitmp.1124, D.17782
.L237:
	.loc 1 189 0
	veor	q4, q8, q5	@, prephitmp.1124, D.17783
	vstr	d8, [sp, #24]	@, %sfp
	vstr	d9, [sp, #32]	@, %sfp
	vmov	q8, q4  @ v16qi	@,
.L238:
	.loc 1 191 0
	vldr	d8, [sp, #200]	@, %sfp
	vldr	d9, [sp, #208]	@, %sfp
	veor	q8, q8, q4	@,,
	vstmia	r3, {d16-d17}	@ *ck_r_2(D),
.L206:
.LVL355:
	ldr	r1, .L303+128	@ ivtmp.1148,
.LBB1658:
.LBB1659:
.LBB1660:
	.loc 2 7647 0
	vldr	d8, [sp, #184]	@, %sfp
	vldr	d9, [sp, #192]	@, %sfp
.LBE1660:
.LBE1659:
.LBE1658:
.LBB1663:
.LBB1664:
.LBB1665:
	vzip.8	q5, q14	@ tmp1811, tmp1812
.LBE1665:
.LBE1664:
.LBE1663:
.LBB1666:
.LBB1662:
.LBB1661:
	vzip.8	q4, q7	@ tmp1804, tmp1805
.LVL356:
.LBE1661:
.LBE1662:
.LBE1666:
.LBB1667:
.LBB1668:
.LBB1669:
	vzip.8	q0, q12	@ tmp1818, tmp1819
.LVL357:
.LBE1669:
.LBE1668:
.LBE1667:
.LBB1670:
.LBB1671:
.LBB1672:
	vzip.8	q1, q13	@ tmp1825, tmp1826
.LVL358:
.LBE1672:
.LBE1671:
.LBE1670:
.LBB1673:
.LBB1674:
.LBB1675:
	vzip.8	q15, q10	@ tmp1832, tmp1833
.LVL359:
.LBE1675:
.LBE1674:
.LBE1673:
.LBB1676:
.LBB1677:
.LBB1678:
	vzip.8	q2, q11	@ tmp1839, tmp1840
.LVL360:
.LBE1678:
.LBE1677:
.LBE1676:
.LBB1679:
.LBB1680:
.LBB1681:
	vmov	q8, q6  @ v16qi	@ tmp1847, D.17770
.LBE1681:
.LBE1680:
.LBE1679:
.LBB1684:
.LBB1685:
.LBB1686:
	vzip.8	q4, q15	@ tmp1860, tmp1861
.LVL361:
.LBE1686:
.LBE1685:
.LBE1684:
.LBB1687:
.LBB1683:
.LBB1682:
	vzip.8	q3, q8	@ tmp1846, tmp1847
.LVL362:
.LBE1682:
.LBE1683:
.LBE1687:
.LBB1688:
.LBB1689:
.LBB1690:
	vzip.8	q5, q2	@ tmp1867, tmp1868
.LVL363:
.LBE1690:
.LBE1689:
.LBE1688:
.LBB1691:
.LBB1692:
.LBB1693:
	vzip.8	q0, q3	@ tmp1874, tmp1875
.LVL364:
.LBE1693:
.LBE1692:
.LBE1691:
.LBB1694:
.LBB1695:
.LBB1696:
	vldr	d12, [sp, #56]	@, %sfp
	vldr	d13, [sp, #64]	@, %sfp
.LVL365:
.LBE1696:
.LBE1695:
.LBE1694:
.LBB1699:
.LBB1700:
.LBB1701:
	vzip.8	q15, q3	@ tmp1930, tmp1931
.LBE1701:
.LBE1700:
.LBE1699:
.LBB1702:
.LBB1698:
.LBB1697:
	vzip.8	q6, q9	@, tmp1854
.LVL366:
.LBE1697:
.LBE1698:
.LBE1702:
.LBE1766:
.LBE1773:
	.loc 3 117 0
	movs	r2, #0	@ t,
.LVL367:
.LBB1774:
.LBB1767:
.LBB1703:
.LBB1704:
.LBB1705:
	.loc 2 7647 0
	vzip.8	q1, q6	@ tmp1881,
.LVL368:
.LBE1705:
.LBE1704:
.LBE1703:
.LBB1706:
.LBB1707:
.LBB1708:
	vzip.8	q2, q6	@ tmp1937,
.LVL369:
.LBE1708:
.LBE1707:
.LBE1706:
.LBB1709:
.LBB1710:
.LBB1711:
	vzip.8	q3, q6	@ tmp1993,
	vstr	d12, [sp, #216]	@, %sfp
	vstr	d13, [sp, #224]	@, %sfp
.LBE1711:
.LBE1710:
.LBE1709:
.LBB1712:
.LBB1713:
.LBB1714:
	vzip.8	q4, q0	@ tmp1916, tmp1917
.LVL370:
.LBE1714:
.LBE1713:
.LBE1712:
.LBB1715:
.LBB1716:
.LBB1717:
	vzip.8	q5, q1	@ tmp1923, tmp1924
.LVL371:
.LBE1717:
.LBE1716:
.LBE1715:
.LBB1718:
.LBB1719:
.LBB1720:
	vzip.8	q15, q2	@ tmp1986, tmp1987
.LBE1720:
.LBE1719:
.LBE1718:
.LBB1721:
.LBB1722:
.LBB1723:
	vzip.8	q4, q5	@ tmp1972, tmp1973
.LBE1723:
.LBE1722:
.LBE1721:
.LBB1724:
.LBB1725:
.LBB1726:
	vzip.8	q0, q1	@ tmp1979, tmp1980
.LBE1726:
.LBE1725:
.LBE1724:
.LBE1767:
.LBE1774:
.LBB1775:
.LBB1776:
	.loc 3 117 0
	vldmia	r4, {d12-d13}	@ *tweakey_4(D),
	veor	q4, q6, q4	@ prephitmp.1008,, tmp1972
	vldr	d12, [r4, #128]	@, MEM[(v16qu *)tweakey_4(D) + 128B]
	vldr	d13, [r4, #136]	@, MEM[(v16qu *)tweakey_4(D) + 128B]
	veor	q5, q6, q5	@,, tmp1973
	vldr	d12, [r4, #16]	@, MEM[(v16qu *)tweakey_4(D) + 16B]
	vldr	d13, [r4, #24]	@, MEM[(v16qu *)tweakey_4(D) + 16B]
	vstr	d10, [sp, #184]	@, %sfp
	vstr	d11, [sp, #192]	@, %sfp
	veor	q0, q6, q0	@ prephitmp.1008,, tmp1979
	vldr	d10, [r4, #144]	@, MEM[(v16qu *)tweakey_4(D) + 144B]
	vldr	d11, [r4, #152]	@, MEM[(v16qu *)tweakey_4(D) + 144B]
	vldr	d12, [r4, #32]	@, MEM[(v16qu *)tweakey_4(D) + 32B]
	vldr	d13, [r4, #40]	@, MEM[(v16qu *)tweakey_4(D) + 32B]
	veor	q1, q5, q1	@,, tmp1980
	veor	q15, q6, q15	@ prephitmp.1008,, tmp1986
	vldr	d10, [r4, #160]	@, MEM[(v16qu *)tweakey_4(D) + 160B]
	vldr	d11, [r4, #168]	@, MEM[(v16qu *)tweakey_4(D) + 160B]
	vstr	d2, [sp, #200]	@, %sfp
	vstr	d3, [sp, #208]	@, %sfp
	veor	q2, q5, q2	@,, tmp1987
	vldr	d2, [r4, #48]	@, MEM[(v16qu *)tweakey_4(D) + 48B]
	vldr	d3, [r4, #56]	@, MEM[(v16qu *)tweakey_4(D) + 48B]
	vldr	d10, [r4, #176]	@, MEM[(v16qu *)tweakey_4(D) + 176B]
	vldr	d11, [r4, #184]	@, MEM[(v16qu *)tweakey_4(D) + 176B]
	veor	q6, q1, q3	@ prephitmp.1008,, tmp1993
	vstr	d4, [sp, #232]	@, %sfp
	vstr	d5, [sp, #240]	@, %sfp
	vldr	d6, [sp, #216]	@, %sfp
	vldr	d7, [sp, #224]	@, %sfp
	veor	q2, q5, q3	@,,
	vstr	d4, [sp, #248]	@, %sfp
	vstr	d5, [sp, #256]	@, %sfp
.LBE1776:
.LBE1775:
.LBB1968:
.LBB1768:
.LBB1727:
.LBB1728:
.LBB1729:
	.loc 2 7647 0
	vzip.8	q7, q10	@ tmp1888, tmp1889
.LVL372:
.LBE1729:
.LBE1728:
.LBE1727:
.LBB1730:
.LBB1731:
.LBB1732:
	vzip.8	q14, q11	@ tmp1895, tmp1896
.LVL373:
.LBE1732:
.LBE1731:
.LBE1730:
.LBB1733:
.LBB1734:
.LBB1735:
	vzip.8	q12, q8	@ tmp1902, tmp1903
.LVL374:
.LBE1735:
.LBE1734:
.LBE1733:
.LBB1736:
.LBB1737:
.LBB1738:
	vzip.8	q13, q9	@ tmp1909, tmp1910
.LVL375:
.LBE1738:
.LBE1737:
.LBE1736:
.LBB1739:
.LBB1740:
.LBB1741:
	vzip.8	q7, q12	@ tmp1944, tmp1945
.LVL376:
.LBE1741:
.LBE1740:
.LBE1739:
.LBB1742:
.LBB1743:
.LBB1744:
	vzip.8	q14, q13	@ tmp1951, tmp1952
.LVL377:
.LBE1744:
.LBE1743:
.LBE1742:
.LBB1745:
.LBB1746:
.LBB1747:
	vzip.8	q10, q8	@ tmp1958, tmp1959
.LVL378:
.LBE1747:
.LBE1746:
.LBE1745:
.LBB1748:
.LBB1749:
.LBB1750:
	vzip.8	q11, q9	@ tmp1965, tmp1966
.LVL379:
.LBE1750:
.LBE1749:
.LBE1748:
.LBB1751:
.LBB1752:
.LBB1753:
	vzip.8	q7, q14	@ tmp2000, tmp2001
.LVL380:
.LBE1753:
.LBE1752:
.LBE1751:
.LBB1754:
.LBB1755:
.LBB1756:
	vzip.8	q12, q13	@ tmp2007, tmp2008
.LVL381:
.LBE1756:
.LBE1755:
.LBE1754:
.LBB1757:
.LBB1758:
.LBB1759:
	vzip.8	q10, q11	@ tmp2014, tmp2015
.LVL382:
.LBE1759:
.LBE1758:
.LBE1757:
.LBB1760:
.LBB1761:
.LBB1762:
	vzip.8	q8, q9	@ tmp2021, tmp2022
.LVL383:
	vldr	d2, [r4, #64]	@, MEM[(v16qu *)tweakey_4(D) + 64B]
	vldr	d3, [r4, #72]	@, MEM[(v16qu *)tweakey_4(D) + 64B]
	vldr	d10, [r4, #192]	@, MEM[(v16qu *)tweakey_4(D) + 192B]
	vldr	d11, [r4, #200]	@, MEM[(v16qu *)tweakey_4(D) + 192B]
	veor	q7, q1, q7	@ prephitmp.1008,, tmp2000
.LVL384:
	veor	q14, q5, q14	@,, tmp2001
.LVL385:
	vldr	d6, [r4, #80]	@, MEM[(v16qu *)tweakey_4(D) + 80B]
	vldr	d7, [r4, #88]	@, MEM[(v16qu *)tweakey_4(D) + 80B]
.LVL386:
	vldr	d10, [r4, #224]	@, MEM[(v16qu *)tweakey_4(D) + 224B]
	vldr	d11, [r4, #232]	@, MEM[(v16qu *)tweakey_4(D) + 224B]
	veor	q12, q3, q12	@,, tmp2007
.LVL387:
	veor	q11, q5, q11	@,, tmp2015
.LVL388:
	vldr	d6, [r4, #240]	@, MEM[(v16qu *)tweakey_4(D) + 240B]
	vldr	d7, [r4, #248]	@, MEM[(v16qu *)tweakey_4(D) + 240B]
	vstr	d28, [sp, #264]	@, %sfp
	vstr	d29, [sp, #272]	@, %sfp
	veor	q9, q9, q3	@, tmp2022,
.LVL389:
	vldr	d4, [r4, #208]	@, MEM[(v16qu *)tweakey_4(D) + 208B]
	vldr	d5, [r4, #216]	@, MEM[(v16qu *)tweakey_4(D) + 208B]
	vldr	d2, [r4, #96]	@, MEM[(v16qu *)tweakey_4(D) + 96B]
	vldr	d3, [r4, #104]	@, MEM[(v16qu *)tweakey_4(D) + 96B]
	veor	q13, q2, q13	@,, tmp2008
.LVL390:
	veor	q10, q1, q10	@,, tmp2014
.LVL391:
	vldr	d28, [r4, #112]	@, MEM[(v16qu *)tweakey_4(D) + 112B]
	vldr	d29, [r4, #120]	@, MEM[(v16qu *)tweakey_4(D) + 112B]
	vstr	d24, [sp, #72]	@, %sfp
	vstr	d25, [sp, #80]	@, %sfp
	veor	q8, q14, q8	@,, tmp2021
.LVL392:
	vstr	d26, [sp, #40]	@, %sfp
	vstr	d27, [sp, #48]	@, %sfp
	vstr	d16, [sp, #104]	@, %sfp
	vstr	d17, [sp, #112]	@, %sfp
	vstr	d20, [sp, #88]	@, %sfp
	vstr	d21, [sp, #96]	@, %sfp
.LBE1762:
.LBE1761:
.LBE1760:
.LBE1768:
.LBE1968:
.LBB1969:
.LBB1966:
.LBB1777:
.LBB1778:
.LBB1779:
	.loc 3 344 0
	vmov	q8, q7  @ v16qi	@ prephitmp.1008, prephitmp.1008
	vstr	d22, [sp, #24]	@, %sfp
	vstr	d23, [sp, #32]	@, %sfp
	vstr	d18, [sp, #216]	@, %sfp
	vstr	d19, [sp, #224]	@, %sfp
	.loc 3 359 0
	vmov.i8	q5, #15  @ v16qi	@ tmp3196,
	.loc 3 344 0
	vldr	d6, [sp, #248]	@, %sfp
	vldr	d7, [sp, #256]	@, %sfp
	vmov	q7, q0  @ v16qi	@ prephitmp.1008, prephitmp.1008
.LVL393:
.L240:
.LBE1779:
.LBE1778:
.LBE1777:
	.loc 3 121 0
	cmp	r2, #0	@ t
	beq	.L292	@
	add	r3, r2, #-1	@ tmp2197, t,
	sub	r6, r2, #3	@ tmp2199, t,
	lsl	sl, r3, #4	@ prephitmp.1060, tmp2197,
	subs	r3, r2, #6	@ tmp2202, t,
	lsl	r8, r6, #4	@ prephitmp.1068, tmp2199,
	lsls	r6, r3, #4	@ prephitmp.1080, tmp2202,
	sub	r3, r2, #9	@ tmp2205, t,
	lsls	r3, r3, #4	@, tmp2205,
	sub	r5, r2, #2	@ tmp2198, t,
	sub	r0, r2, #4	@ tmp2200, t,
	subs	r7, r2, #5	@ tmp2201, t,
	lsl	r9, r5, #4	@ prephitmp.1064, tmp2198,
	str	r3, [sp, #4]	@, %sfp
	sub	r3, r2, #10	@ tmp2206, t,
	lsl	fp, r3, #4	@, tmp2206,
	sub	r3, r2, #11	@ tmp2207, t,
	subs	r5, r2, #7	@ tmp2203, t,
	lsl	ip, r0, #4	@ prephitmp.1072, tmp2200,
	sub	r0, r2, #8	@ tmp2204, t,
	str	fp, [sp, #448]	@, %sfp
	lsl	fp, r3, #4	@, tmp2207,
	sub	r3, r2, #12	@ tmp2208, t,
	lsls	r7, r7, #4	@ prephitmp.1076, tmp2201,
	lsls	r5, r5, #4	@ prephitmp.1084, tmp2203,
	str	fp, [sp, #440]	@, %sfp
	lsl	fp, r3, #4	@, tmp2208,
	sub	r3, r2, #13	@ tmp2209, t,
	lsls	r0, r0, #4	@ prephitmp.1088, tmp2204,
	str	fp, [sp, #444]	@, %sfp
	lsl	fp, r3, #4	@, tmp2209,
	sub	r3, r2, #14	@ tmp2210, t,
	str	fp, [sp, #452]	@, %sfp
	lsl	fp, r3, #4	@, tmp2210,
	sub	r3, r2, #15	@ tmp2211, t,
	subs	r2, r2, #16	@ t, t,
	str	fp, [sp, #456]	@, %sfp
	lsl	fp, r3, #4	@ prephitmp.1116, tmp2211,
	lsls	r3, r2, #4	@, t,
	str	r3, [sp, #460]	@, %sfp
.L239:
.LVL394:
.LBB1818:
.LBB1799:
.LBB1780:
	.loc 3 319 0
	vshr.u8	q0, q7, #4	@, prephitmp.1008,
	.loc 3 342 0
	vldr	d4, [sp, #200]	@, %sfp
	vldr	d5, [sp, #208]	@, %sfp
	.loc 3 319 0
	vstr	d0, [sp, #152]	@, %sfp
	vstr	d1, [sp, #160]	@, %sfp
	.loc 3 342 0
	vshr.u8	q13, q2, #4	@,,
	vstr	d26, [sp, #168]	@, %sfp
	vstr	d27, [sp, #176]	@, %sfp
	.loc 3 341 0
	vldr	d24, [sp, #184]	@, %sfp
	vldr	d25, [sp, #192]	@, %sfp
	.loc 3 336 0
	vand	q14, q4, q5	@, prephitmp.1008, tmp3196
	.loc 3 359 0
	vand	q9, q12, q5	@,, tmp3196
	.loc 3 318 0
	vshr.u8	q11, q4, #4	@ t0, prephitmp.1008,
.LVL395:
	.loc 3 341 0
	vshr.u8	q10, q12, #4	@ t0,,
.LVL396:
	.loc 3 359 0
	vstr	d18, [sp, #56]	@, %sfp
	vstr	d19, [sp, #64]	@, %sfp
	.loc 3 349 0
	vldr	d24, .L303	@,
	vldr	d25, .L303+8	@,
	.loc 3 359 0
	vldr	d2, .L303+16	@,
	vldr	d3, .L303+24	@,
	.loc 3 336 0
	vldr	d8, .L303+32	@,
	vldr	d9, .L303+40	@,
.LVL397:
	.loc 3 359 0
	vtbl.8	d26, {d2, d3}, d18	@ tmp2212,,,
.LVL398:
	vtbl.8	d27, {d2, d3}, d19	@,,,
	.loc 3 336 0
	vtbl.8	d18, {d8, d9}, d28	@ tmp2216,,,
	.loc 3 326 0
	vand	q1, q11, q5	@, t0, tmp3196
	.loc 3 336 0
	vtbl.8	d19, {d8, d9}, d29	@,,,
	.loc 3 326 0
	vldr	d22, .L303+48	@,
	vldr	d23, .L303+56	@,
	.loc 3 349 0
	vand	q4, q10, q5	@, t0, tmp3196
	.loc 3 336 0
	vstr	d28, [sp, #280]	@, %sfp
	vstr	d29, [sp, #288]	@, %sfp
	.loc 3 349 0
	vstr	d8, [sp, #120]	@, %sfp
	vstr	d9, [sp, #128]	@, %sfp
	.loc 3 336 0
	veor	q14, q13, q9	@ tmp2220, tmp2212, tmp2216
	.loc 3 342 0
	vshr.u8	q10, q3, #4	@ t1, prephitmp.1008,
.LVL399:
	.loc 3 326 0
	vtbl.8	d18, {d22, d23}, d2	@ tmp2221,,,
	.loc 3 345 0
	vand	q10, q10, q5	@ tmp2264, t1, tmp3196
	.loc 3 326 0
	vtbl.8	d19, {d22, d23}, d3	@,,,
	vstr	d2, [sp, #296]	@, %sfp
	vstr	d3, [sp, #304]	@, %sfp
	.loc 3 349 0
	veor	q0, q14, q9	@ tmp2225, tmp2220, tmp2221
	.loc 3 341 0
	vldr	d2, [sp, #232]	@, %sfp
	vldr	d3, [sp, #240]	@, %sfp
	.loc 3 349 0
	vtbl.8	d18, {d24, d25}, d8	@ tmp2226,,,
	vtbl.8	d19, {d24, d25}, d9	@,,,
	.loc 3 354 0
	vldr	d28, .L303+64	@,
	vldr	d29, .L303+72	@,
	.loc 3 359 0
	veor	q13, q0, q9	@ D.17954, tmp2225, tmp2226
.LVL400:
	.loc 3 318 0
	vshr.u8	q2, q15, #4	@ t0, prephitmp.1008,
.LVL401:
	.loc 3 331 0
	vand	q0, q15, q5	@ tmp2236, prephitmp.1008, tmp3196
	.loc 3 321 0
	vand	q2, q2, q5	@ tmp2241, t0, tmp3196
.LVL402:
	.loc 3 331 0
	vldr	d30, .L303+80	@,
	vldr	d31, .L303+88	@,
.LVL403:
	.loc 3 319 0
	vshr.u8	q11, q6, #4	@ t1, prephitmp.1008,
.LVL404:
	.loc 3 331 0
	vtbl.8	d24, {d30, d31}, d0	@ tmp2234,,, tmp2236
	.loc 3 322 0
	vand	q11, q11, q5	@ tmp2259, t1, tmp3196
.LVL405:
	.loc 3 331 0
	vtbl.8	d25, {d30, d31}, d1	@,,,
	.loc 3 341 0
	vshr.u8	q9, q1, #4	@ t0,,
.LVL406:
	.loc 3 344 0
	vldr	d30, .L303+96	@,
	vldr	d31, .L303+104	@,
	.loc 3 354 0
	vand	q1, q1, q5	@ tmp2232,, tmp3196
.LVL407:
	.loc 3 344 0
	vand	q9, q9, q5	@ tmp2246, t0, tmp3196
.LVL408:
	.loc 3 354 0
	vtbl.8	d8, {d28, d29}, d2	@ tmp2230,,, tmp2232
	vtbl.8	d9, {d28, d29}, d3	@,,,
	.loc 3 321 0
	vldr	d28, .L303+112	@,
	vldr	d29, .L303+120	@,
	b	.L304	@
.L305:
	.align	3
.L303:
	.byte	0
	.byte	106
	.byte	126
	.byte	20
	.byte	123
	.byte	17
	.byte	5
	.byte	111
	.byte	-122
	.byte	-20
	.byte	-8
	.byte	-110
	.byte	-3
	.byte	-105
	.byte	-125
	.byte	-23
	.byte	0
	.byte	30
	.byte	-71
	.byte	-89
	.byte	25
	.byte	7
	.byte	-96
	.byte	-66
	.byte	-88
	.byte	-74
	.byte	17
	.byte	15
	.byte	-79
	.byte	-81
	.byte	8
	.byte	22
	.byte	0
	.byte	-25
	.byte	119
	.byte	-112
	.byte	42
	.byte	-51
	.byte	93
	.byte	-70
	.byte	99
	.byte	-124
	.byte	20
	.byte	-13
	.byte	73
	.byte	-82
	.byte	62
	.byte	-39
	.byte	0
	.byte	-36
	.byte	-82
	.byte	114
	.byte	41
	.byte	-11
	.byte	-121
	.byte	91
	.byte	-126
	.byte	94
	.byte	44
	.byte	-16
	.byte	-85
	.byte	119
	.byte	5
	.byte	-39
	.byte	0
	.byte	84
	.byte	-66
	.byte	-22
	.byte	-40
	.byte	-116
	.byte	102
	.byte	50
	.byte	-91
	.byte	-15
	.byte	27
	.byte	79
	.byte	125
	.byte	41
	.byte	-61
	.byte	-105
	.byte	0
	.byte	-98
	.byte	4
	.byte	-102
	.byte	-47
	.byte	79
	.byte	-43
	.byte	75
	.byte	19
	.byte	-115
	.byte	23
	.byte	-119
	.byte	-62
	.byte	92
	.byte	-58
	.byte	88
	.byte	0
	.byte	-65
	.byte	-27
	.byte	90
	.byte	-42
	.byte	105
	.byte	51
	.byte	-116
	.byte	-40
	.byte	103
	.byte	61
	.byte	-126
	.byte	14
	.byte	-79
	.byte	-21
	.byte	84
	.byte	0
	.byte	5
	.byte	-10
	.byte	-13
	.byte	57
	.byte	60
	.byte	-49
	.byte	-54
	.byte	-82
	.byte	-85
	.byte	88
	.byte	93
	.byte	-105
	.byte	-110
	.byte	97
	.byte	100
	.word	.LANCHOR0+1392
.L304:
	.loc 3 331 0
	veor	q4, q4, q12	@ tmp2238, tmp2230, tmp2234
	.loc 3 321 0
	vtbl.8	d24, {d28, d29}, d4	@ tmp2239,,, tmp2241
	vtbl.8	d25, {d28, d29}, d5	@,,,
	.loc 3 355 0
	vand	q14, q3, q5	@ tmp2250, prephitmp.1008, tmp3196
	.loc 3 344 0
	veor	q4, q4, q12	@ tmp2243, tmp2238, tmp2239
	vtbl.8	d24, {d30, d31}, d18	@ tmp2244,,, tmp2246
	vtbl.8	d25, {d30, d31}, d19	@,,,
	.loc 3 354 0
	veor	q12, q4, q12	@, tmp2243, tmp2244
	.loc 3 355 0
	vldr	d8, .L306	@,
	vldr	d9, .L306+8	@,
	.loc 3 354 0
	vstr	d24, [sp, #248]	@, %sfp
	vstr	d25, [sp, #256]	@, %sfp
	.loc 3 355 0
	vtbl.8	d6, {d8, d9}, d28	@ tmp2248,,, tmp2250
	.loc 3 332 0
	vand	q12, q6, q5	@ tmp2254, prephitmp.1008, tmp3196
	.loc 3 355 0
	vtbl.8	d7, {d8, d9}, d29	@,,,
	.loc 3 332 0
	vldr	d12, .L306+16	@,
	vldr	d13, .L306+24	@,
	.loc 3 322 0
	vldr	d8, .L306+32	@,
	vldr	d9, .L306+40	@,
	.loc 3 332 0
	vtbl.8	d30, {d12, d13}, d24	@ tmp2252,,, tmp2254
	vtbl.8	d31, {d12, d13}, d25	@,,,
	veor	q15, q3, q15	@ tmp2256, tmp2248, tmp2252
	.loc 3 322 0
	vtbl.8	d6, {d8, d9}, d22	@ tmp2257,,, tmp2259
	vtbl.8	d7, {d8, d9}, d23	@,,,
	.loc 3 359 0
	vldr	d8, .L306+48	@,
	vldr	d9, .L306+56	@,
	.loc 3 345 0
	veor	q6, q15, q3	@ tmp2261, tmp2256, tmp2257
	vldr	d30, .L306+64	@,
	vldr	d31, .L306+72	@,
	vtbl.8	d6, {d30, d31}, d20	@ tmp2262,,, tmp2264
	vtbl.8	d7, {d30, d31}, d21	@,,,
	.loc 3 355 0
	veor	q15, q6, q3	@ D.17958, tmp2261, tmp2262
.LVL409:
	.loc 3 326 0
	vldr	d12, .L306+80	@,
	vldr	d13, .L306+88	@,
	.loc 3 359 0
	vtbl.8	d6, {d8, d9}, d2	@ tmp2266,,, tmp2232
	vtbl.8	d7, {d8, d9}, d3	@,,,
	.loc 3 336 0
	vldr	d8, .L306+96	@,
	vldr	d9, .L306+104	@,
	vtbl.8	d2, {d8, d9}, d0	@ tmp2270,,, tmp2236
	vtbl.8	d3, {d8, d9}, d1	@,,,
	.loc 3 326 0
	vtbl.8	d0, {d12, d13}, d4	@ tmp2275,,, tmp2241
	vtbl.8	d1, {d12, d13}, d5	@,,,
	.loc 3 336 0
	veor	q3, q3, q1	@ tmp2274, tmp2266, tmp2270
	.loc 3 349 0
	veor	q1, q3, q0	@ tmp2279, tmp2274, tmp2275
	vldr	d0, .L306+128	@,
	vldr	d1, .L306+136	@,
	.loc 3 341 0
	vldr	d6, [sp, #264]	@, %sfp
	vldr	d7, [sp, #272]	@, %sfp
	.loc 3 349 0
	vtbl.8	d4, {d0, d1}, d18	@ tmp2280,,, tmp2246
	vtbl.8	d5, {d0, d1}, d19	@,,,
	.loc 3 359 0
	veor	q1, q1, q2	@ D.17954, tmp2279, tmp2280
	.loc 3 360 0
	vldr	d4, .L306+48	@,
	vldr	d5, .L306+56	@,
	vtbl.8	d18, {d4, d5}, d28	@ tmp2284,,, tmp2250
	vtbl.8	d19, {d4, d5}, d29	@,,,
	.loc 3 337 0
	vtbl.8	d28, {d8, d9}, d24	@ tmp2288,,, tmp2254
	vtbl.8	d29, {d8, d9}, d25	@,,,
	.loc 3 327 0
	vtbl.8	d24, {d12, d13}, d22	@ tmp2293,,, tmp2259
	vtbl.8	d25, {d12, d13}, d23	@,,,
	.loc 3 350 0
	vtbl.8	d22, {d0, d1}, d20	@ tmp2298,,, tmp2264
	vtbl.8	d23, {d0, d1}, d21	@,,,
	.loc 3 354 0
	vldr	d12, .L306	@,
	vldr	d13, .L306+8	@,
	.loc 3 342 0
	vldr	d20, [sp, #40]	@, %sfp
	vldr	d21, [sp, #48]	@, %sfp
	.loc 3 331 0
	vldr	d4, .L306+16	@,
	vldr	d5, .L306+24	@,
	.loc 3 342 0
	vshr.u8	q0, q10, #4	@ t1,,
	.loc 3 337 0
	veor	q9, q9, q14	@ tmp2292, tmp2284, tmp2288
	.loc 3 350 0
	veor	q14, q9, q12	@ tmp2297, tmp2292, tmp2293
	.loc 3 341 0
	vshr.u8	q12, q3, #4	@ t0,,
	.loc 3 360 0
	veor	q9, q14, q11	@ D.17950, tmp2297, tmp2298
.LVL410:
	.loc 3 354 0
	vand	q3, q3, q5	@ tmp2304,, tmp3196
.LVL411:
	.loc 3 319 0
	vldr	d22, [sp, #72]	@, %sfp
	vldr	d23, [sp, #80]	@, %sfp
	.loc 3 344 0
	vand	q12, q12, q5	@ tmp2318, t0, tmp3196
	.loc 3 354 0
	vtbl.8	d20, {d12, d13}, d6	@ tmp2302,,, tmp2304
	vtbl.8	d21, {d12, d13}, d7	@,,,
	.loc 3 319 0
	vshr.u8	q4, q11, #4	@ t1,,
	.loc 3 321 0
	vldr	d12, .L306+32	@,
	vldr	d13, .L306+40	@,
	.loc 3 327 0
	vand	q4, q4, q5	@, t1, tmp3196
	.loc 3 318 0
	vshr.u8	q14, q8, #4	@ t0, prephitmp.1008,
.LVL412:
	.loc 3 327 0
	vstr	d8, [sp, #328]	@, %sfp
	vstr	d9, [sp, #336]	@, %sfp
	.loc 3 331 0
	vand	q8, q8, q5	@ tmp2308, prephitmp.1008, tmp3196
.LVL413:
	.loc 3 321 0
	vand	q14, q14, q5	@ tmp2313, t0, tmp3196
	.loc 3 331 0
	vtbl.8	d22, {d4, d5}, d16	@ tmp2306,,, tmp2308
	vtbl.8	d23, {d4, d5}, d17	@,,,
	.loc 3 344 0
	vldr	d4, .L306+64	@,
	vldr	d5, .L306+72	@,
	.loc 3 331 0
	veor	q11, q10, q11	@ tmp2310, tmp2302, tmp2306
	.loc 3 321 0
	vtbl.8	d20, {d12, d13}, d28	@ tmp2311,,, tmp2313
	vtbl.8	d21, {d12, d13}, d29	@,,,
	.loc 3 359 0
	vldr	d12, .L306+48	@,
	vldr	d13, .L306+56	@,
	.loc 3 344 0
	veor	q11, q11, q10	@ tmp2315, tmp2310, tmp2311
	vtbl.8	d20, {d4, d5}, d24	@ tmp2316,,, tmp2318
	vtbl.8	d21, {d4, d5}, d25	@,,,
	.loc 3 336 0
	vldr	d4, .L306+96	@,
	vldr	d5, .L306+104	@,
	.loc 3 354 0
	veor	q11, q11, q10	@ D.17962, tmp2315, tmp2316
.LVL414:
	.loc 3 359 0
	vtbl.8	d20, {d12, d13}, d6	@ tmp2320,,, tmp2304
	vtbl.8	d21, {d12, d13}, d7	@,,,
	.loc 3 336 0
	vtbl.8	d6, {d4, d5}, d16	@ tmp2324,,, tmp2308
	vtbl.8	d7, {d4, d5}, d17	@,,,
	.loc 3 349 0
	vldr	d12, .L306+128	@,
	vldr	d13, .L306+136	@,
	.loc 3 336 0
	veor	q10, q10, q3	@ tmp2328, tmp2320, tmp2324
	.loc 3 326 0
	vldr	d6, .L306+80	@,
	vldr	d7, .L306+88	@,
	vtbl.8	d16, {d6, d7}, d28	@ tmp2329,,, tmp2313
	vtbl.8	d17, {d6, d7}, d29	@,,,
	.loc 3 349 0
	vtbl.8	d28, {d12, d13}, d24	@ tmp2334,,, tmp2318
	vtbl.8	d29, {d12, d13}, d25	@,,,
	veor	q8, q10, q8	@ tmp2333, tmp2328, tmp2329
	.loc 3 342 0
	vldr	d12, [sp, #216]	@, %sfp
	vldr	d13, [sp, #224]	@, %sfp
	.loc 3 359 0
	veor	q10, q8, q14	@ D.17954, tmp2333, tmp2334
.LVL415:
	.loc 3 319 0
	vldr	d24, [sp, #104]	@, %sfp
	vldr	d25, [sp, #112]	@, %sfp
	.loc 3 341 0
	vldr	d16, [sp, #24]	@, %sfp
	vldr	d17, [sp, #32]	@, %sfp
	.loc 3 318 0
	vldr	d28, [sp, #88]	@, %sfp
	vldr	d29, [sp, #96]	@, %sfp
	.loc 3 319 0
	vshr.u8	q3, q12, #4	@,,
	.loc 3 318 0
	vshr.u8	q2, q14, #4	@ t0,,
.LVL416:
	.loc 3 360 0
	vldr	d24, [sp, #200]	@, %sfp
	vldr	d25, [sp, #208]	@, %sfp
	.loc 3 342 0
	vshr.u8	q14, q6, #4	@,,
	.loc 3 326 0
	vand	q2, q2, q5	@, t0, tmp3196
.LVL417:
	.loc 3 319 0
	vstr	d6, [sp, #184]	@, %sfp
	vstr	d7, [sp, #192]	@, %sfp
.LVL418:
	.loc 3 342 0
	vstr	d28, [sp, #232]	@, %sfp
	vstr	d29, [sp, #240]	@, %sfp
	.loc 3 341 0
	vshr.u8	q3, q8, #4	@ t0,,
.LVL419:
	.loc 3 360 0
	vldr	d28, .L306+48	@,
	vldr	d29, .L306+56	@,
.LVL420:
	vand	q8, q12, q5	@,, tmp3196
	.loc 3 327 0
	vldr	d24, .L306+80	@,
	vldr	d25, .L306+88	@,
	.loc 3 360 0
	vstr	d16, [sp, #312]	@, %sfp
	vstr	d17, [sp, #320]	@, %sfp
	vtbl.8	d12, {d28, d29}, d16	@ tmp2338,,,
	vtbl.8	d13, {d28, d29}, d17	@,,,
	.loc 3 337 0
	vand	q14, q7, q5	@, prephitmp.1008, tmp3196
	vldr	d14, .L306+96	@,
	vldr	d15, .L306+104	@,
	vstr	d28, [sp, #136]	@, %sfp
	vstr	d29, [sp, #144]	@, %sfp
	vtbl.8	d16, {d14, d15}, d28	@ tmp2342,,,
	vtbl.8	d17, {d14, d15}, d29	@,,,
	.loc 3 350 0
	vldr	d14, [sp, #168]	@, %sfp
	vldr	d15, [sp, #176]	@, %sfp
	.loc 3 337 0
	veor	q6, q6, q8	@ tmp2346, tmp2338, tmp2342
	.loc 3 350 0
	vand	q7, q7, q5	@,, tmp3196
	.loc 3 327 0
	vldr	d16, [sp, #152]	@, %sfp
	vldr	d17, [sp, #160]	@, %sfp
	.loc 3 350 0
	vstr	d14, [sp, #168]	@, %sfp
	vstr	d15, [sp, #176]	@, %sfp
	.loc 3 327 0
	vand	q14, q8, q5	@,, tmp3196
	vtbl.8	d16, {d24, d25}, d28	@ tmp2347,,,
	vtbl.8	d17, {d24, d25}, d29	@,,,
	vstr	d28, [sp, #152]	@, %sfp
	vstr	d29, [sp, #160]	@, %sfp
	.loc 3 350 0
	veor	q6, q6, q8	@ tmp2351, tmp2346, tmp2347
	vldr	d28, .L306+128	@,
	vldr	d29, .L306+136	@,
	vtbl.8	d16, {d28, d29}, d14	@ tmp2352,,,
	vtbl.8	d17, {d28, d29}, d15	@,,,
	.loc 3 360 0
	veor	q8, q6, q8	@ tmp2356, tmp2351, tmp2352
.LBE1780:
.LBE1799:
.LBE1818:
.LBB1819:
	.loc 3 126 0
	vand	q6, q10, q1	@ tmp2358, D.17954, D.17954
	veor	q12, q8, q13	@ tmp2357, tmp2356, D.17954
	veor	q1, q9, q1	@ D.17920, D.17950, D.17954
	veor	q7, q12, q6	@ D.17925, tmp2357, tmp2358
.LBE1819:
.LBB1820:
.LBB1800:
.LBB1781:
	.loc 3 360 0
	vldr	d12, [sp, #40]	@, %sfp
	vldr	d13, [sp, #48]	@, %sfp
.LBE1781:
.LBE1800:
.LBE1820:
.LBB1821:
	.loc 3 126 0
	veor	q8, q7, q1	@ D.17917, D.17925, D.17920
	vand	q14, q7, q9	@ tmp2359, D.17925, D.17950
	veor	q10, q7, q10	@ D.17924, D.17925, D.17954
	veor	q13, q14, q13	@ D.17921, tmp2359, D.17954
.LBE1821:
.LBB1822:
.LBB1801:
.LBB1782:
	.loc 3 360 0
	vand	q14, q6, q5	@,, tmp3196
.LBE1782:
.LBE1801:
.LBE1822:
.LBB1823:
	.loc 3 126 0
	vand	q12, q13, q8	@ tmp2360, D.17921, D.17917
.LBE1823:
.LBB1824:
.LBB1802:
.LBB1783:
	.loc 3 360 0
	vstr	d28, [sp, #40]	@, %sfp
	vstr	d29, [sp, #48]	@, %sfp
.LBE1783:
.LBE1802:
.LBE1824:
.LBB1825:
	.loc 3 126 0
	veor	q1, q12, q1	@ D.17915, tmp2360, D.17920
.LBE1825:
.LBB1826:
.LBB1803:
.LBB1784:
	.loc 3 360 0
	vldr	d24, .L306+48	@,
	vldr	d25, .L306+56	@,
	vtbl.8	d14, {d24, d25}, d28	@ tmp2361,,,
	vtbl.8	d15, {d24, d25}, d29	@,,,
	.loc 3 337 0
	vldr	d28, [sp, #72]	@, %sfp
	vldr	d29, [sp, #80]	@, %sfp
	vand	q12, q14, q5	@,, tmp3196
	vldr	d28, .L306+96	@,
	vldr	d29, .L306+104	@,
	vstr	d24, [sp, #72]	@, %sfp
	vstr	d25, [sp, #80]	@, %sfp
	vtbl.8	d12, {d28, d29}, d24	@ tmp2365,,,
	vtbl.8	d13, {d28, d29}, d25	@,,,
	.loc 3 327 0
	vldr	d24, .L306+80	@,
	vldr	d25, .L306+88	@,
	.loc 3 337 0
	veor	q6, q7, q6	@ tmp2369, tmp2361, tmp2365
	.loc 3 327 0
	vmov	q14, q4  @ v16qi	@,
	vtbl.8	d14, {d24, d25}, d8	@ tmp2370,,, tmp119
	vtbl.8	d15, {d24, d25}, d29	@,,,
	.loc 3 359 0
	vldr	d8, [sp, #24]	@, %sfp
	vldr	d9, [sp, #32]	@, %sfp
	.loc 3 350 0
	veor	q14, q6, q7	@ tmp2374, tmp2369, tmp2370
	.loc 3 359 0
	vldr	d24, .L306+48	@,
	vldr	d25, .L306+56	@,
	.loc 3 350 0
	vand	q7, q0, q5	@ tmp2377, t1, tmp3196
	vldr	d12, .L306+128	@,
	vldr	d13, .L306+136	@,
	vtbl.8	d0, {d12, d13}, d14	@ tmp2375,,, tmp2377
	vtbl.8	d1, {d12, d13}, d15	@,,,
	.loc 3 360 0
	veor	q0, q14, q0	@ tmp2379, tmp2374, tmp2375
	.loc 3 359 0
	vand	q14, q4, q5	@,, tmp3196
	.loc 3 336 0
	vldr	d8, [sp, #88]	@, %sfp
	vldr	d9, [sp, #96]	@, %sfp
	.loc 3 359 0
	vtbl.8	d12, {d24, d25}, d28	@ tmp2380,,,
	vtbl.8	d13, {d24, d25}, d29	@,,,
	vstr	d28, [sp, #24]	@, %sfp
	vstr	d29, [sp, #32]	@, %sfp
	.loc 3 336 0
	vldr	d24, .L306+96	@,
	vldr	d25, .L306+104	@,
	vand	q14, q4, q5	@,, tmp3196
	vstr	d28, [sp, #88]	@, %sfp
	vstr	d29, [sp, #96]	@, %sfp
	vtbl.8	d8, {d24, d25}, d28	@ tmp2384,,,
	vtbl.8	d9, {d24, d25}, d29	@,,,
	.loc 3 326 0
	vstr	d4, [sp, #344]	@, %sfp
	vstr	d5, [sp, #352]	@, %sfp
	.loc 3 336 0
	veor	q4, q6, q4	@ tmp2388, tmp2380, tmp2384
	.loc 3 326 0
	vldr	d24, .L306+80	@,
	vldr	d25, .L306+88	@,
	vmov	q14, q2  @ v16qi	@,
	vtbl.8	d12, {d24, d25}, d4	@ tmp2389,,, tmp119
	vtbl.8	d13, {d24, d25}, d29	@,,,
	.loc 3 360 0
	vldr	d4, [sp, #216]	@, %sfp
	vldr	d5, [sp, #224]	@, %sfp
	.loc 3 349 0
	veor	q14, q4, q6	@ tmp2393, tmp2388, tmp2389
	.loc 3 360 0
	vldr	d24, .L306+48	@,
	vldr	d25, .L306+56	@,
	.loc 3 349 0
	vand	q6, q3, q5	@ tmp2396, t0, tmp3196
	vldr	d8, .L306+128	@,
	vldr	d9, .L306+136	@,
	vtbl.8	d6, {d8, d9}, d12	@ tmp2394,,, tmp2396
.LVL421:
	vtbl.8	d7, {d8, d9}, d13	@,,,
	.loc 3 359 0
	veor	q3, q14, q3	@ tmp2398, tmp2393, tmp2394
	.loc 3 360 0
	vand	q14, q2, q5	@,, tmp3196
	.loc 3 337 0
	vldr	d4, [sp, #104]	@, %sfp
	vldr	d5, [sp, #112]	@, %sfp
	.loc 3 360 0
	vtbl.8	d8, {d24, d25}, d28	@ tmp2399,,,
	vtbl.8	d9, {d24, d25}, d29	@,,,
	vstr	d28, [sp, #360]	@, %sfp
	vstr	d29, [sp, #368]	@, %sfp
	b	.L307	@
.L308:
	.align	3
.L306:
	.byte	0
	.byte	84
	.byte	-66
	.byte	-22
	.byte	-40
	.byte	-116
	.byte	102
	.byte	50
	.byte	-91
	.byte	-15
	.byte	27
	.byte	79
	.byte	125
	.byte	41
	.byte	-61
	.byte	-105
	.byte	0
	.byte	-98
	.byte	4
	.byte	-102
	.byte	-47
	.byte	79
	.byte	-43
	.byte	75
	.byte	19
	.byte	-115
	.byte	23
	.byte	-119
	.byte	-62
	.byte	92
	.byte	-58
	.byte	88
	.byte	0
	.byte	5
	.byte	-10
	.byte	-13
	.byte	57
	.byte	60
	.byte	-49
	.byte	-54
	.byte	-82
	.byte	-85
	.byte	88
	.byte	93
	.byte	-105
	.byte	-110
	.byte	97
	.byte	100
	.byte	0
	.byte	30
	.byte	-71
	.byte	-89
	.byte	25
	.byte	7
	.byte	-96
	.byte	-66
	.byte	-88
	.byte	-74
	.byte	17
	.byte	15
	.byte	-79
	.byte	-81
	.byte	8
	.byte	22
	.byte	0
	.byte	-65
	.byte	-27
	.byte	90
	.byte	-42
	.byte	105
	.byte	51
	.byte	-116
	.byte	-40
	.byte	103
	.byte	61
	.byte	-126
	.byte	14
	.byte	-79
	.byte	-21
	.byte	84
	.byte	0
	.byte	-36
	.byte	-82
	.byte	114
	.byte	41
	.byte	-11
	.byte	-121
	.byte	91
	.byte	-126
	.byte	94
	.byte	44
	.byte	-16
	.byte	-85
	.byte	119
	.byte	5
	.byte	-39
	.byte	0
	.byte	-25
	.byte	119
	.byte	-112
	.byte	42
	.byte	-51
	.byte	93
	.byte	-70
	.byte	99
	.byte	-124
	.byte	20
	.byte	-13
	.byte	73
	.byte	-82
	.byte	62
	.byte	-39
	.byte	0
	.byte	-36
	.byte	-82
	.byte	114
	.byte	41
	.byte	-11
	.byte	-121
	.byte	91
	.byte	-126
	.byte	94
	.byte	44
	.byte	-16
	.byte	-85
	.byte	119
	.byte	5
	.byte	-39
	.byte	0
	.byte	106
	.byte	126
	.byte	20
	.byte	123
	.byte	17
	.byte	5
	.byte	111
	.byte	-122
	.byte	-20
	.byte	-8
	.byte	-110
	.byte	-3
	.byte	-105
	.byte	-125
	.byte	-23
	.byte	0
	.byte	84
	.byte	-66
	.byte	-22
	.byte	-40
	.byte	-116
	.byte	102
	.byte	50
	.byte	-91
	.byte	-15
	.byte	27
	.byte	79
	.byte	125
	.byte	41
	.byte	-61
	.byte	-105
	.byte	0
	.byte	5
	.byte	-10
	.byte	-13
	.byte	57
	.byte	60
	.byte	-49
	.byte	-54
	.byte	-82
	.byte	-85
	.byte	88
	.byte	93
	.byte	-105
	.byte	-110
	.byte	97
	.byte	100
	.byte	0
	.byte	-98
	.byte	4
	.byte	-102
	.byte	-47
	.byte	79
	.byte	-43
	.byte	75
	.byte	19
	.byte	-115
	.byte	23
	.byte	-119
	.byte	-62
	.byte	92
	.byte	-58
	.byte	88
	.byte	0
	.byte	-65
	.byte	-27
	.byte	90
	.byte	-42
	.byte	105
	.byte	51
	.byte	-116
	.byte	-40
	.byte	103
	.byte	61
	.byte	-126
	.byte	14
	.byte	-79
	.byte	-21
	.byte	84
.L307:
	.loc 3 337 0
	vldr	d24, .L306+96	@,
	vldr	d25, .L306+104	@,
	vand	q14, q2, q5	@,, tmp3196
	vstr	d28, [sp, #104]	@, %sfp
	vstr	d29, [sp, #112]	@, %sfp
	vtbl.8	d4, {d24, d25}, d28	@ tmp2403,,,
	vtbl.8	d5, {d24, d25}, d29	@,,,
	.loc 3 327 0
	vldr	d24, .L306+112	@,
	vldr	d25, .L306+120	@,
	.loc 3 337 0
	veor	q2, q4, q2	@ tmp2407, tmp2399, tmp2403
	.loc 3 327 0
	vldr	d8, [sp, #184]	@, %sfp
	vldr	d9, [sp, #192]	@, %sfp
	vand	q14, q4, q5	@,, tmp3196
	vtbl.8	d8, {d24, d25}, d28	@ tmp2408,,,
	vtbl.8	d9, {d24, d25}, d29	@,,,
	vstr	d28, [sp, #376]	@, %sfp
	vstr	d29, [sp, #384]	@, %sfp
	.loc 3 350 0
	veor	q2, q2, q4	@ tmp2412, tmp2407, tmp2408
	vldr	d8, [sp, #232]	@, %sfp
	vldr	d9, [sp, #240]	@, %sfp
	vand	q4, q4, q5	@,, tmp3196
	vstr	d8, [sp, #392]	@, %sfp
	vstr	d9, [sp, #400]	@, %sfp
.LBE1784:
.LBE1803:
.LBE1826:
.LBB1827:
	.loc 3 126 0
	veor	q3, q3, q8	@ D.17911, tmp2398, D.17917
	veor	q0, q0, q13	@ D.17913, tmp2379, D.17921
.LBE1827:
.LBB1828:
.LBB1804:
.LBB1785:
	.loc 3 350 0
	vldr	d28, .L306+128	@,
	vldr	d29, .L306+136	@,
	vtbl.8	d24, {d28, d29}, d8	@ tmp2413,,,
	vtbl.8	d25, {d28, d29}, d9	@,,,
.LBE1785:
.LBE1804:
.LBE1828:
.LBB1829:
	.loc 3 126 0
	vand	q14, q13, q10	@ tmp2424, D.17921, D.17924
.LBE1829:
.LBB1830:
.LBB1805:
.LBB1786:
	.loc 3 360 0
	veor	q12, q2, q12	@ tmp2417, tmp2412, tmp2413
.LBE1786:
.LBE1805:
.LBE1830:
.LBB1831:
	.loc 3 126 0
	veor	q9, q14, q9	@ tmp2425, tmp2424, D.17950
	veor	q12, q12, q1	@ D.17909, tmp2417, D.17915
.LVL422:
	vmvn	q10, q10	@ D.17898, D.17924
	vbic	q2, q12, q3	@ tmp2419, D.17909, D.17911
	vbic	q4, q0, q12	@ tmp2421, D.17913, D.17909
	veor	q2, q2, q0	@, tmp2419, D.17913
	veor	q4, q4, q3	@, tmp2421, D.17911
	veor	q13, q2, q13	@ D.17913,, D.17921
	vstr	d4, [sp, #184]	@, %sfp
	vstr	d5, [sp, #192]	@, %sfp
	vstr	d8, [sp, #200]	@, %sfp
	vstr	d9, [sp, #208]	@, %sfp
	vbic	q0, q3, q0	@ tmp2423, D.17911, D.17913
.LVL423:
	veor	q3, q0, q12	@, tmp2423, D.17909
.LVL424:
	veor	q12, q4, q13	@ tmp2426,, D.17913
	veor	q1, q3, q1	@ D.17909,, D.17915
	vmvn	q0, q9	@ D.17899, tmp2425
	vand	q2, q1, q10	@ tmp2428, D.17909, D.17898
	veor	q9, q1, q0	@ D.17920, D.17909, D.17899
	veor	q8, q12, q8	@ tmp2427, tmp2426, D.17917
	vstr	d6, [sp, #216]	@, %sfp
	vstr	d7, [sp, #224]	@, %sfp
	veor	q4, q8, q2	@ D.17925, tmp2427, tmp2428
.LBE1831:
.LBB1832:
.LBB1806:
.LBB1787:
	.loc 3 354 0
	vldr	d16, .L306+144	@,
	vldr	d17, .L306+152	@,
.LBE1787:
.LBE1806:
.LBE1832:
.LBB1833:
	.loc 3 126 0
	veor	q1, q4, q9	@, D.17925, D.17920
	veor	q10, q4, q10	@ D.17924, D.17925, D.17898
	vand	q3, q4, q0	@ tmp2429, D.17925, D.17899
.LBE1833:
.LBB1834:
.LBB1807:
.LBB1788:
	.loc 3 331 0
	vldr	d4, .L306+176	@,
	vldr	d5, .L306+184	@,
.LBE1788:
.LBE1807:
.LBE1834:
.LBB1835:
	.loc 3 126 0
	veor	q13, q3, q13	@ D.17921, tmp2429, D.17913
.LBE1835:
.LBB1836:
.LBB1808:
.LBB1789:
	.loc 3 354 0
	vldr	d8, [sp, #56]	@, %sfp
	vldr	d9, [sp, #64]	@, %sfp
.LBE1789:
.LBE1808:
.LBE1836:
.LBB1837:
	.loc 3 126 0
	vand	q14, q13, q10	@ tmp2430, D.17921, D.17924
	vand	q12, q13, q1	@ tmp2431, D.17921,
.LBE1837:
.LBB1838:
.LBB1809:
.LBB1790:
	.loc 3 344 0
	vldmia	r1, {d6-d7}	@ MEM[base: D.19387_2570, offset: 0B],
.LBE1790:
.LBE1809:
.LBE1838:
.LBB1839:
	.loc 3 126 0
	veor	q0, q14, q0	@, tmp2430, D.17899
	vstr	d2, [sp, #232]	@, %sfp
	vstr	d3, [sp, #240]	@, %sfp
.LBE1839:
.LBB1840:
.LBB1810:
.LBB1791:
	.loc 3 331 0
	vldr	d28, [sp, #280]	@, %sfp
	vldr	d29, [sp, #288]	@, %sfp
.LBE1791:
.LBE1810:
.LBE1840:
.LBB1841:
	.loc 3 126 0
	veor	q1, q12, q9	@ D.17915, tmp2431, D.17920
	vstr	d0, [sp, #264]	@, %sfp
	vstr	d1, [sp, #272]	@, %sfp
.LBE1841:
.LBB1842:
.LBB1811:
.LBB1792:
	.loc 3 354 0
	vtbl.8	d24, {d16, d17}, d8	@ tmp2432,,,
	vtbl.8	d25, {d16, d17}, d9	@,,,
	.loc 3 331 0
	vtbl.8	d16, {d4, d5}, d28	@ tmp2436,,,
	vtbl.8	d17, {d4, d5}, d29	@,,,
	.loc 3 321 0
	vldr	d28, .L306+160	@,
	vldr	d29, .L306+168	@,
	.loc 3 331 0
	veor	q4, q12, q8	@ tmp2440, tmp2432, tmp2436
	.loc 3 355 0
	vldr	d4, .L306+144	@,
	vldr	d5, .L306+152	@,
	.loc 3 344 0
	veor	q9, q4, q3	@ tmp2441, tmp2440,
	vldr	d24, .L306+192	@,
	vldr	d25, .L306+200	@,
	.loc 3 321 0
	vldr	d6, [sp, #296]	@, %sfp
	vldr	d7, [sp, #304]	@, %sfp
	.loc 3 332 0
	vldr	d8, .L306+176	@,
	vldr	d9, .L306+184	@,
	.loc 3 321 0
	vtbl.8	d16, {d28, d29}, d6	@ tmp2443,,,
	vtbl.8	d17, {d28, d29}, d7	@,,,
	.loc 3 332 0
	vldr	d6, [sp, #136]	@, %sfp
	vldr	d7, [sp, #144]	@, %sfp
	.loc 3 354 0
	veor	q0, q9, q8	@ tmp2447, tmp2441, tmp2443
	.loc 3 344 0
	vldr	d18, [sp, #120]	@, %sfp
	vldr	d19, [sp, #128]	@, %sfp
	vtbl.8	d16, {d24, d25}, d18	@ tmp2448,,,
	vtbl.8	d17, {d24, d25}, d19	@,,,
	.loc 3 332 0
	vtbl.8	d18, {d8, d9}, d6	@ tmp2456,,,
.LBE1792:
.LBE1811:
.LBE1842:
	.loc 3 127 0
	veor	q12, q0, q8	@ D.17893, tmp2447, tmp2448
.LBB1843:
.LBB1812:
.LBB1793:
	.loc 3 332 0
	vtbl.8	d19, {d8, d9}, d7	@,,,
	.loc 3 355 0
	vldr	d0, [sp, #312]	@, %sfp
	vldr	d1, [sp, #320]	@, %sfp
	.loc 3 322 0
	vldr	d6, .L306+160	@,
	vldr	d7, .L306+168	@,
	.loc 3 355 0
	vtbl.8	d16, {d4, d5}, d0	@ tmp2452,,,
	vtbl.8	d17, {d4, d5}, d1	@,,,
	.loc 3 345 0
	vldr	d0, [sp, #168]	@, %sfp
	vldr	d1, [sp, #176]	@, %sfp
	.loc 3 332 0
	veor	q8, q8, q9	@ tmp2460, tmp2452, tmp2456
	.loc 3 322 0
	vldr	d18, [sp, #152]	@, %sfp
	vldr	d19, [sp, #160]	@, %sfp
	vtbl.8	d28, {d6, d7}, d18	@ tmp2461,,,
	vtbl.8	d29, {d6, d7}, d19	@,,,
	.loc 3 345 0
	veor	q9, q8, q14	@ tmp2465, tmp2460, tmp2461
	vldr	d28, .L306+192	@,
	vldr	d29, .L306+200	@,
	vtbl.8	d6, {d28, d29}, d0	@ tmp2466,,,
	vtbl.8	d7, {d28, d29}, d1	@,,,
	.loc 3 355 0
	veor	q0, q9, q3	@ tmp2470, tmp2465, tmp2466
.LBE1793:
.LBE1812:
.LBE1843:
.LBB1844:
	.loc 3 128 0
	vldr	d6, [sp, #248]	@, %sfp
	vldr	d7, [sp, #256]	@, %sfp
	veor	q4, q0, q12	@ tmp2471, tmp2470, D.17893
	veor	q14, q15, q3	@ D.17882, D.17958,
	vand	q2, q11, q3	@ tmp2472, D.17962,
.LBE1844:
.LBB1845:
.LBB1813:
.LBB1794:
	.loc 3 355 0
	vldr	d6, .L306+144	@,
	vldr	d7, .L306+152	@,
.LBE1794:
.LBE1813:
.LBE1845:
.LBB1846:
	.loc 3 128 0
	veor	q9, q4, q2	@ D.17887, tmp2471, tmp2472
.LBE1846:
.LBB1847:
.LBB1814:
.LBB1795:
	.loc 3 332 0
	vldr	d4, .L306+176	@,
	vldr	d5, .L306+184	@,
.LBE1795:
.LBE1814:
.LBE1847:
.LBB1848:
	.loc 3 128 0
	vand	q8, q9, q15	@ tmp2473, D.17887, D.17958
	veor	q11, q9, q11	@ D.17886, D.17887, D.17962
	veor	q12, q8, q12	@ D.17883, tmp2473, D.17893
	veor	q9, q9, q14	@ D.17879, D.17887, D.17882
	vand	q0, q12, q9	@ tmp2474, D.17883, D.17879
	veor	q4, q0, q14	@ D.17877, tmp2474, D.17882
.LBE1848:
.LBB1849:
.LBB1815:
.LBB1796:
	.loc 3 355 0
	vldr	d0, [sp, #40]	@, %sfp
	vldr	d1, [sp, #48]	@, %sfp
	vtbl.8	d16, {d6, d7}, d0	@ tmp2475,,,
	vtbl.8	d17, {d6, d7}, d1	@,,,
	.loc 3 332 0
	vldr	d6, [sp, #72]	@, %sfp
	vldr	d7, [sp, #80]	@, %sfp
	.loc 3 322 0
	vldr	d0, [sp, #328]	@, %sfp
	vldr	d1, [sp, #336]	@, %sfp
	.loc 3 332 0
	vtbl.8	d28, {d4, d5}, d6	@ tmp2479,,,
	vtbl.8	d29, {d4, d5}, d7	@,,,
	veor	q8, q8, q14	@ tmp2483, tmp2475, tmp2479
	.loc 3 322 0
	vldr	d28, .L306+160	@,
	vldr	d29, .L306+168	@,
	vtbl.8	d6, {d28, d29}, d0	@ tmp2484,,,
	vtbl.8	d7, {d28, d29}, d1	@,,,
	.loc 3 354 0
	vldr	d28, .L306+144	@,
	vldr	d29, .L306+152	@,
	.loc 3 345 0
	veor	q0, q8, q3	@ tmp2488, tmp2483, tmp2484
	.loc 3 354 0
	vldr	d16, [sp, #24]	@, %sfp
	vldr	d17, [sp, #32]	@, %sfp
	.loc 3 345 0
	vldr	d6, .L306+192	@,
	vldr	d7, .L306+200	@,
	vtbl.8	d4, {d6, d7}, d14	@ tmp2489,,, tmp2377
	vtbl.8	d5, {d6, d7}, d15	@,,,
	.loc 3 354 0
	vtbl.8	d6, {d28, d29}, d16	@ tmp2494,,,
	vtbl.8	d7, {d28, d29}, d17	@,,,
	.loc 3 355 0
	veor	q7, q0, q2	@ tmp2493, tmp2488, tmp2489
	.loc 3 321 0
	vldr	d28, [sp, #344]	@, %sfp
	vldr	d29, [sp, #352]	@, %sfp
.LBE1796:
.LBE1815:
.LBE1849:
.LBB1850:
	.loc 3 128 0
	veor	q2, q7, q12	@ D.17875, tmp2493, D.17883
.LBE1850:
.LBB1851:
.LBB1816:
.LBB1797:
	.loc 3 331 0
	vldr	d0, [sp, #88]	@, %sfp
	vldr	d1, [sp, #96]	@, %sfp
	vldr	d14, .L306+176	@,
	vldr	d15, .L306+184	@,
	vtbl.8	d16, {d14, d15}, d0	@ tmp2498,,,
	vtbl.8	d17, {d14, d15}, d1	@,,,
	.loc 3 344 0
	vldr	d14, .L306+192	@,
	vldr	d15, .L306+200	@,
	.loc 3 331 0
	veor	q0, q3, q8	@ tmp2502, tmp2494, tmp2498
	.loc 3 321 0
	vldr	d6, .L306+160	@,
	vldr	d7, .L306+168	@,
	vtbl.8	d16, {d6, d7}, d28	@ tmp2503,,,
	vtbl.8	d17, {d6, d7}, d29	@,,,
	.loc 3 344 0
	veor	q14, q0, q8	@ tmp2507, tmp2502, tmp2503
	vtbl.8	d16, {d14, d15}, d12	@ tmp2508,,, tmp2396
	vtbl.8	d17, {d14, d15}, d13	@,,,
	.loc 3 332 0
	vldr	d0, .L306+176	@,
	vldr	d1, .L306+184	@,
	.loc 3 354 0
	veor	q6, q14, q8	@ tmp2512, tmp2507, tmp2508
	.loc 3 355 0
	vldr	d14, [sp, #360]	@, %sfp
	vldr	d15, [sp, #368]	@, %sfp
.LBE1797:
.LBE1816:
.LBE1851:
.LBB1852:
	.loc 3 128 0
	veor	q3, q6, q9	@ D.17873, tmp2512, D.17879
.LBE1852:
.LBB1853:
.LBB1817:
.LBB1798:
	.loc 3 355 0
	vldr	d16, .L306+144	@,
	vldr	d17, .L306+152	@,
	.loc 3 332 0
	vldr	d12, [sp, #104]	@, %sfp
	vldr	d13, [sp, #112]	@, %sfp
	.loc 3 355 0
	vtbl.8	d28, {d16, d17}, d14	@ tmp2513,,,
	vtbl.8	d29, {d16, d17}, d15	@,,,
	.loc 3 332 0
	vtbl.8	d16, {d0, d1}, d12	@ tmp2517,,,
	vtbl.8	d17, {d0, d1}, d13	@,,,
	.loc 3 322 0
	vldr	d14, .L306+160	@,
	vldr	d15, .L306+168	@,
	.loc 3 332 0
	veor	q14, q14, q8	@ tmp2521, tmp2513, tmp2517
	.loc 3 322 0
	vldr	d0, [sp, #376]	@, %sfp
	vldr	d1, [sp, #384]	@, %sfp
	.loc 3 345 0
	vldr	d12, .L306+192	@,
	vldr	d13, .L306+200	@,
	.loc 3 322 0
	vtbl.8	d16, {d14, d15}, d0	@ tmp2522,,,
	vtbl.8	d17, {d14, d15}, d1	@,,,
	.loc 3 345 0
	vldr	d14, [sp, #392]	@, %sfp
	vldr	d15, [sp, #400]	@, %sfp
	veor	q0, q14, q8	@ tmp2526, tmp2521, tmp2522
	vtbl.8	d16, {d12, d13}, d14	@ tmp2527,,,
	vtbl.8	d17, {d12, d13}, d15	@,,,
	.loc 3 355 0
	veor	q8, q0, q8	@ tmp2531, tmp2526, tmp2527
.LBE1798:
.LBE1817:
.LBE1853:
.LBB1854:
	.loc 3 128 0
	veor	q14, q8, q4	@ D.17871, tmp2531, D.17877
.LVL425:
	vbic	q7, q14, q3	@ tmp2533, D.17871, D.17873
	vbic	q0, q2, q14	@ tmp2535, D.17875, D.17871
	veor	q8, q7, q2	@ D.17868, tmp2533, D.17875
	veor	q6, q0, q3	@, tmp2535, D.17873
	vbic	q2, q3, q2	@ tmp2537, D.17873, D.17875
.LVL426:
	vstr	d12, [sp, #24]	@, %sfp
	vstr	d13, [sp, #32]	@, %sfp
	veor	q14, q2, q14	@, tmp2537, D.17871
	vand	q3, q12, q11	@ tmp2538, D.17883, D.17886
.LVL427:
	veor	q4, q14, q4	@ D.17871,, D.17877
	veor	q12, q8, q12	@ D.17875, D.17868, D.17883
	vstr	d28, [sp, #40]	@, %sfp
	vstr	d29, [sp, #48]	@, %sfp
	veor	q0, q6, q12	@ tmp2540,, D.17875
	veor	q15, q3, q15	@ tmp2539, tmp2538, D.17958
	veor	q9, q0, q9	@ tmp2541, tmp2540, D.17879
	vmvn	q7, q15	@ D.17861, tmp2539
	vmvn	q11, q11	@ D.17860, D.17886
	veor	q15, q4, q7	@ D.17882, D.17871, D.17861
	vand	q6, q4, q11	@ tmp2542, D.17871, D.17860
	veor	q2, q9, q6	@ D.17887, tmp2541, tmp2542
.LBE1854:
.LBB1855:
.LBB1856:
.LBB1857:
	.loc 3 342 0
	vldr	d12, [sp, #232]	@, %sfp
	vldr	d13, [sp, #240]	@, %sfp
.LBE1857:
.LBE1856:
.LBE1855:
.LBB1910:
	.loc 3 128 0
	veor	q9, q2, q15	@ D.17879, D.17887, D.17882
	veor	q11, q2, q11	@ D.17886, D.17887, D.17860
	vand	q14, q2, q7	@ tmp2543, D.17887, D.17861
.LBE1910:
.LBB1911:
.LBB1884:
.LBB1858:
	.loc 3 319 0
	vshr.u8	q0, q9, #4	@, D.17879,
.LBE1858:
.LBE1884:
.LBE1911:
.LBB1912:
	.loc 3 128 0
	veor	q12, q14, q12	@ D.17883, tmp2543, D.17875
.LBE1912:
.LBB1913:
.LBB1885:
.LBB1859:
	.loc 3 319 0
	vstr	d0, [sp, #136]	@, %sfp
	vstr	d1, [sp, #144]	@, %sfp
.LBE1859:
.LBE1885:
.LBE1913:
.LBB1914:
	.loc 3 128 0
	vand	q3, q12, q11	@ tmp2544, D.17883, D.17886
.LBE1914:
.LBB1915:
.LBB1886:
.LBB1860:
	.loc 3 318 0
	vshr.u8	q14, q12, #4	@ t0, D.17883,
.LBE1860:
.LBE1886:
.LBE1915:
.LBB1916:
	.loc 3 128 0
	veor	q3, q3, q7	@ D.17880, tmp2544, D.17861
.LBE1916:
.LBB1917:
.LBB1887:
.LBB1861:
	.loc 3 342 0
	vshr.u8	q2, q6, #4	@,,
.LBE1861:
.LBE1887:
.LBE1917:
.LBB1918:
	.loc 3 128 0
	vand	q7, q12, q9	@ tmp2545, D.17883, D.17879
.LBE1918:
.LBB1919:
.LBB1888:
.LBB1862:
	.loc 3 342 0
	vstr	d4, [sp, #120]	@, %sfp
	vstr	d5, [sp, #128]	@, %sfp
.LBE1862:
.LBE1888:
.LBE1919:
.LBB1920:
	.loc 3 128 0
	veor	q4, q7, q15	@ D.17877, tmp2545, D.17882
.LVL428:
.LBE1920:
.LBB1921:
.LBB1889:
.LBB1863:
	.loc 3 336 0
	vand	q2, q12, q5	@, D.17883, tmp3196
	.loc 3 341 0
	vshr.u8	q15, q13, #4	@ t0, D.17921,
.LVL429:
	.loc 3 336 0
	vldr	d14, .L309	@,
	vldr	d15, .L309+8	@,
	.loc 3 349 0
	vldr	d0, .L309+16	@,
	vldr	d1, .L309+24	@,
	.loc 3 336 0
	vtbl.8	d24, {d14, d15}, d4	@ tmp2546,,,
.LVL430:
	vtbl.8	d25, {d14, d15}, d5	@,,,
	vstr	d4, [sp, #104]	@, %sfp
	vstr	d5, [sp, #112]	@, %sfp
	.loc 3 349 0
	vand	q7, q15, q5	@, t0, tmp3196
	.loc 3 359 0
	vand	q2, q13, q5	@, D.17921, tmp3196
	.loc 3 349 0
	vtbl.8	d30, {d0, d1}, d14	@ tmp2550,,,
.LVL431:
	vtbl.8	d31, {d0, d1}, d15	@,,,
	.loc 3 359 0
	vldr	d26, .L309+32	@,
	vldr	d27, .L309+40	@,
.LVL432:
	.loc 3 336 0
	veor	q12, q12, q15	@ tmp2554, tmp2546, tmp2550
	.loc 3 349 0
	vstr	d14, [sp, #248]	@, %sfp
	vstr	d15, [sp, #256]	@, %sfp
	.loc 3 359 0
	vtbl.8	d30, {d26, d27}, d4	@ tmp2555,,,
	.loc 3 326 0
	vand	q7, q14, q5	@, t0, tmp3196
	.loc 3 359 0
	vtbl.8	d31, {d26, d27}, d5	@,,,
	.loc 3 326 0
	vldr	d28, .L309+48	@,
	vldr	d29, .L309+56	@,
	.loc 3 349 0
	veor	q15, q12, q15	@ tmp2559, tmp2554, tmp2555
	.loc 3 326 0
	vtbl.8	d26, {d28, d29}, d14	@ tmp2560,,,
	vtbl.8	d27, {d28, d29}, d15	@,,,
	.loc 3 319 0
	vshr.u8	q12, q3, #4	@ t1, D.17880,
	.loc 3 359 0
	veor	q6, q15, q13	@, tmp2559, tmp2560
	.loc 3 332 0
	vand	q3, q3, q5	@ tmp2584, D.17880, tmp3196
	.loc 3 359 0
	vstr	d12, [sp, #152]	@, %sfp
	vstr	d13, [sp, #160]	@, %sfp
.LVL433:
	.loc 3 331 0
	vldr	d26, .L309+64	@,
	vldr	d27, .L309+72	@,
	.loc 3 359 0
	vstr	d4, [sp, #56]	@, %sfp
	vstr	d5, [sp, #64]	@, %sfp
	.loc 3 326 0
	vstr	d14, [sp, #280]	@, %sfp
	vstr	d15, [sp, #288]	@, %sfp
	.loc 3 318 0
	vshr.u8	q2, q4, #4	@ t0, D.17877,
.LVL434:
	.loc 3 342 0
	vldr	d14, [sp, #264]	@, %sfp
	vldr	d15, [sp, #272]	@, %sfp
	.loc 3 331 0
	vand	q4, q4, q5	@ tmp2566, D.17877, tmp3196
.LVL435:
	.loc 3 321 0
	vand	q2, q2, q5	@ tmp2580, t0, tmp3196
.LVL436:
	.loc 3 331 0
	vtbl.8	d12, {d26, d27}, d8	@ tmp2564,,, tmp2566
	vtbl.8	d13, {d26, d27}, d9	@,,,
	.loc 3 341 0
	vshr.u8	q0, q1, #4	@ t0, D.17915,
.LVL437:
	.loc 3 354 0
	vldr	d26, .L309+80	@,
	vldr	d27, .L309+88	@,
	vand	q1, q1, q5	@ tmp2575, D.17915, tmp3196
.LVL438:
	.loc 3 344 0
	vand	q0, q0, q5	@ tmp2570, t0, tmp3196
.LVL439:
	.loc 3 342 0
	vshr.u8	q15, q7, #4	@ t1,,
.LVL440:
	.loc 3 344 0
	vldr	d14, .L309+208	@,
	vldr	d15, .L309+216	@,
	.loc 3 345 0
	vand	q15, q15, q5	@ tmp2588, t1, tmp3196
.LVL441:
	.loc 3 344 0
	vtbl.8	d28, {d14, d15}, d0	@ tmp2568,,, tmp2570
	vtbl.8	d29, {d14, d15}, d1	@,,,
	.loc 3 331 0
	veor	q6, q6, q14	@ tmp2572, tmp2564, tmp2568
	.loc 3 354 0
	vtbl.8	d28, {d26, d27}, d2	@ tmp2573,,, tmp2575
	vtbl.8	d29, {d26, d27}, d3	@,,,
	.loc 3 332 0
	vldr	d26, .L309+64	@,
	vldr	d27, .L309+72	@,
	.loc 3 344 0
	veor	q7, q6, q14	@ tmp2577, tmp2572, tmp2573
	.loc 3 321 0
	vldr	d12, .L309+160	@,
	vldr	d13, .L309+168	@,
	vtbl.8	d28, {d12, d13}, d4	@ tmp2578,,, tmp2580
	vtbl.8	d29, {d12, d13}, d5	@,,,
	.loc 3 345 0
	vldr	d12, .L309+208	@,
	vldr	d13, .L309+216	@,
	.loc 3 354 0
	veor	q14, q7, q14	@, tmp2577, tmp2578
	.loc 3 332 0
	vtbl.8	d14, {d26, d27}, d6	@ tmp2582,,, tmp2584
	.loc 3 354 0
	vstr	d28, [sp, #72]	@, %sfp
	vstr	d29, [sp, #80]	@, %sfp
	.loc 3 332 0
	vtbl.8	d15, {d26, d27}, d7	@,,,
	.loc 3 345 0
	vtbl.8	d28, {d12, d13}, d30	@ tmp2586,,, tmp2588
	vtbl.8	d29, {d12, d13}, d31	@,,,
	.loc 3 355 0
	vldr	d26, .L309+80	@,
	vldr	d27, .L309+88	@,
	.loc 3 332 0
	veor	q7, q7, q14	@ tmp2590, tmp2582, tmp2586
	.loc 3 355 0
	vldr	d28, [sp, #264]	@, %sfp
	vldr	d29, [sp, #272]	@, %sfp
	vand	q14, q14, q5	@ tmp2593,, tmp3196
	vtbl.8	d12, {d26, d27}, d28	@ tmp2591,,, tmp2593
	vtbl.8	d13, {d26, d27}, d29	@,,,
	.loc 3 345 0
	veor	q6, q7, q6	@, tmp2590, tmp2591
	vstr	d12, [sp, #168]	@, %sfp
	vstr	d13, [sp, #176]	@, %sfp
	.loc 3 322 0
	vand	q13, q12, q5	@ tmp2598, t1, tmp3196
	vldr	d14, .L309+160	@,
	vldr	d15, .L309+168	@,
	.loc 3 355 0
	vldr	d12, [sp, #168]	@, %sfp
	vldr	d13, [sp, #176]	@, %sfp
	.loc 3 322 0
	vtbl.8	d24, {d14, d15}, d26	@ tmp2596,,, tmp2598
	vtbl.8	d25, {d14, d15}, d27	@,,,
	.loc 3 355 0
	veor	q7, q6, q12	@ D.18048,, tmp2596
.LVL442:
	.loc 3 336 0
	vldr	d12, .L309	@,
	vldr	d13, .L309+8	@,
	vtbl.8	d24, {d12, d13}, d8	@,,, tmp2566
	vtbl.8	d25, {d12, d13}, d9	@,,,
	vstr	d24, [sp, #88]	@, %sfp
	vstr	d25, [sp, #96]	@, %sfp
	.loc 3 359 0
	vldr	d12, .L309+32	@,
	vldr	d13, .L309+40	@,
	.loc 3 349 0
	vldr	d24, .L309+16	@,
	vldr	d25, .L309+24	@,
.LBE1863:
.LBE1889:
.LBE1921:
	.loc 3 134 0
	add	r3, r4, ip	@ tmp2770, tweakey, prephitmp.1072
.LBB1922:
.LBB1890:
.LBB1864:
	.loc 3 349 0
	vtbl.8	d8, {d24, d25}, d0	@ tmp2604,,, tmp2570
	vtbl.8	d9, {d24, d25}, d1	@,,,
.LBE1864:
.LBE1890:
.LBE1922:
	.loc 3 134 0
	add	sl, r4, sl	@ tmp2764, tweakey, prephitmp.1060
.LBB1923:
.LBB1891:
.LBB1865:
	.loc 3 336 0
	vldr	d0, [sp, #88]	@, %sfp
	vldr	d1, [sp, #96]	@, %sfp
	.loc 3 326 0
	vldr	d24, .L309+48	@,
	vldr	d25, .L309+56	@,
	.loc 3 336 0
	veor	q4, q0, q4	@ tmp2608,, tmp2604
	.loc 3 359 0
	vtbl.8	d0, {d12, d13}, d2	@ tmp2609,,, tmp2575
	vtbl.8	d1, {d12, d13}, d3	@,,,
	.loc 3 326 0
	vtbl.8	d2, {d24, d25}, d4	@ tmp2614,,, tmp2580
	vtbl.8	d3, {d24, d25}, d5	@,,,
	.loc 3 349 0
	veor	q0, q4, q0	@ tmp2613, tmp2608, tmp2609
	.loc 3 359 0
	veor	q4, q0, q1	@ D.18044, tmp2613, tmp2614
	.loc 3 337 0
	vldr	d2, .L309	@,
	vldr	d3, .L309+8	@,
	.loc 3 350 0
	vldr	d0, .L309+16	@,
	vldr	d1, .L309+24	@,
	.loc 3 337 0
	vtbl.8	d4, {d2, d3}, d6	@ tmp2618,,, tmp2584
	vtbl.8	d5, {d2, d3}, d7	@,,,
	.loc 3 350 0
	vtbl.8	d6, {d0, d1}, d30	@ tmp2622,,, tmp2588
	vtbl.8	d7, {d0, d1}, d31	@,,,
	.loc 3 360 0
	vtbl.8	d30, {d12, d13}, d28	@ tmp2627,,, tmp2593
	vtbl.8	d31, {d12, d13}, d29	@,,,
	.loc 3 327 0
	vtbl.8	d28, {d24, d25}, d26	@ tmp2632,,, tmp2598
	vtbl.8	d29, {d24, d25}, d27	@,,,
	.loc 3 342 0
	vldr	d12, [sp, #184]	@, %sfp
	vldr	d13, [sp, #192]	@, %sfp
	.loc 3 331 0
	vldr	d24, .L309+64	@,
	vldr	d25, .L309+72	@,
	.loc 3 337 0
	veor	q3, q2, q3	@ tmp2626, tmp2618, tmp2622
	.loc 3 350 0
	veor	q2, q3, q15	@ tmp2631, tmp2626, tmp2627
	.loc 3 319 0
	vshr.u8	q3, q8, #4	@ t1, D.17868,
	.loc 3 360 0
	veor	q13, q2, q14	@ D.18040, tmp2631, tmp2632
.LVL443:
	.loc 3 341 0
	vshr.u8	q15, q10, #4	@ t0, D.17924,
	.loc 3 342 0
	vshr.u8	q2, q6, #4	@ t1,,
	.loc 3 344 0
	vand	q15, q15, q5	@ tmp2642, t0, tmp3196
	.loc 3 354 0
	vand	q10, q10, q5	@ tmp2647, D.17924, tmp3196
.LVL444:
	.loc 3 344 0
	vldr	d12, .L309+208	@,
	vldr	d13, .L309+216	@,
	.loc 3 318 0
	vshr.u8	q14, q11, #4	@ t0, D.17886,
.LVL445:
	.loc 3 344 0
	vtbl.8	d2, {d12, d13}, d30	@ tmp2640,,, tmp2642
	.loc 3 331 0
	vand	q11, q11, q5	@ tmp2638, D.17886, tmp3196
.LVL446:
	.loc 3 321 0
	vand	q14, q14, q5	@ tmp2652, t0, tmp3196
	.loc 3 331 0
	vtbl.8	d0, {d24, d25}, d22	@ tmp2636,,, tmp2638
	vtbl.8	d1, {d24, d25}, d23	@,,,
	.loc 3 344 0
	vtbl.8	d3, {d12, d13}, d31	@,,,
	.loc 3 354 0
	vldr	d24, .L309+80	@,
	vldr	d25, .L309+88	@,
	.loc 3 331 0
	veor	q1, q0, q1	@ tmp2644, tmp2636, tmp2640
	.loc 3 321 0
	vldr	d12, .L309+160	@,
	vldr	d13, .L309+168	@,
	.loc 3 354 0
	vtbl.8	d0, {d24, d25}, d20	@ tmp2645,,, tmp2647
	vtbl.8	d1, {d24, d25}, d21	@,,,
	.loc 3 336 0
	vldr	d24, .L309	@,
	vldr	d25, .L309+8	@,
	.loc 3 344 0
	veor	q1, q1, q0	@ tmp2649, tmp2644, tmp2645
	.loc 3 321 0
	vtbl.8	d0, {d12, d13}, d28	@ tmp2650,,, tmp2652
	vtbl.8	d1, {d12, d13}, d29	@,,,
	.loc 3 349 0
	vldr	d12, .L309+16	@,
	vldr	d13, .L309+24	@,
	.loc 3 354 0
	veor	q0, q1, q0	@, tmp2649, tmp2650
	.loc 3 336 0
	vtbl.8	d2, {d24, d25}, d22	@ tmp2654,,, tmp2638
	.loc 3 354 0
	vstr	d0, [sp, #88]	@, %sfp
	vstr	d1, [sp, #96]	@, %sfp
.LVL447:
	.loc 3 349 0
	vtbl.8	d22, {d12, d13}, d30	@ tmp2658,,, tmp2642
	.loc 3 336 0
	vtbl.8	d3, {d24, d25}, d23	@,,,
	.loc 3 349 0
	vtbl.8	d23, {d12, d13}, d31	@,,,
	.loc 3 341 0
	vldr	d12, [sp, #200]	@, %sfp
	vldr	d13, [sp, #208]	@, %sfp
	.loc 3 336 0
	veor	q1, q1, q11	@ tmp2662, tmp2654, tmp2658
	.loc 3 359 0
	vldr	d22, .L309+32	@,
	vldr	d23, .L309+40	@,
	vtbl.8	d30, {d22, d23}, d20	@ tmp2663,,, tmp2647
	vtbl.8	d31, {d22, d23}, d21	@,,,
	.loc 3 342 0
	vldr	d22, [sp, #216]	@, %sfp
	vldr	d23, [sp, #224]	@, %sfp
	.loc 3 349 0
	veor	q10, q1, q15	@ tmp2667, tmp2662, tmp2663
	.loc 3 326 0
	vldr	d30, .L309+48	@,
	vldr	d31, .L309+56	@,
	.loc 3 341 0
	vshr.u8	q1, q6, #4	@ t0,,
	.loc 3 326 0
	vtbl.8	d0, {d30, d31}, d28	@ tmp2668,,, tmp2652
	.loc 3 349 0
	vand	q1, q1, q5	@ tmp2720, t0, tmp3196
	.loc 3 326 0
	vtbl.8	d1, {d30, d31}, d29	@,,,
	.loc 3 318 0
	vldr	d28, [sp, #24]	@, %sfp
	vldr	d29, [sp, #32]	@, %sfp
	.loc 3 359 0
	veor	q10, q10, q0	@ D.18044, tmp2667, tmp2668
.LVL448:
	.loc 3 318 0
	vshr.u8	q15, q14, #4	@ t0,,
.LVL449:
	.loc 3 319 0
	vldr	d0, [sp, #40]	@, %sfp
	vldr	d1, [sp, #48]	@, %sfp
	.loc 3 342 0
	vshr.u8	q14, q11, #4	@ t1,,
	.loc 3 319 0
	vshr.u8	q12, q0, #4	@,,
	.loc 3 350 0
	vldr	d22, .L309+16	@,
	vldr	d23, .L309+24	@,
	.loc 3 319 0
	vstr	d24, [sp, #264]	@, %sfp
	vstr	d25, [sp, #272]	@, %sfp
.LVL450:
	.loc 3 337 0
	vand	q12, q9, q5	@, D.17879, tmp3196
	vldr	d18, .L309	@,
	vldr	d19, .L309+8	@,
	vstr	d24, [sp, #296]	@, %sfp
	vstr	d25, [sp, #304]	@, %sfp
	vtbl.8	d0, {d18, d19}, d24	@ tmp2672,,,
	vtbl.8	d1, {d18, d19}, d25	@,,,
	.loc 3 350 0
	vldr	d24, [sp, #120]	@, %sfp
	vldr	d25, [sp, #128]	@, %sfp
	vand	q6, q12, q5	@,, tmp3196
	vmov	q12, q6  @ v16qi	@,
	vtbl.8	d18, {d22, d23}, d12	@ tmp2676,,, tmp111
	vtbl.8	d19, {d22, d23}, d25	@,,,
	vstr	d12, [sp, #120]	@, %sfp
	vstr	d13, [sp, #128]	@, %sfp
	.loc 3 337 0
	veor	q9, q0, q9	@ tmp2680, tmp2672, tmp2676
	.loc 3 360 0
	vldr	d12, .L309+32	@,
	vldr	d13, .L309+40	@,
	vldr	d0, [sp, #232]	@, %sfp
	vldr	d1, [sp, #240]	@, %sfp
	vand	q12, q0, q5	@,, tmp3196
	vtbl.8	d0, {d12, d13}, d24	@ tmp2681,,, tmp107
	vmov	q11, q12  @ v16qi	@,
	vstr	d24, [sp, #312]	@, %sfp
	vstr	d25, [sp, #320]	@, %sfp
	vtbl.8	d1, {d12, d13}, d23	@,,,
	.loc 3 350 0
	veor	q11, q9, q0	@ tmp2685, tmp2680, tmp2681
	.loc 3 327 0
	vldr	d18, [sp, #136]	@, %sfp
	vldr	d19, [sp, #144]	@, %sfp
	vldr	d0, .L309+48	@,
	vldr	d1, .L309+56	@,
	vand	q12, q9, q5	@,, tmp3196
.LBE1865:
.LBE1891:
.LBE1923:
.LBB1924:
	.loc 3 132 0
	vand	q9, q4, q10	@ tmp2692, D.18044, D.18044
.LBE1924:
.LBB1925:
.LBB1892:
.LBB1866:
	.loc 3 327 0
	vtbl.8	d12, {d0, d1}, d24	@ tmp2686,,,
	vtbl.8	d13, {d0, d1}, d25	@,,,
.LBE1866:
.LBE1892:
.LBE1925:
.LBB1926:
	.loc 3 132 0
	veor	q4, q13, q4	@ D.17920, D.18040, D.18044
.LBE1926:
.LBB1927:
.LBB1893:
.LBB1867:
	.loc 3 327 0
	vstr	d24, [sp, #136]	@, %sfp
	vstr	d25, [sp, #144]	@, %sfp
	.loc 3 360 0
	veor	q12, q11, q6	@ tmp2690, tmp2685, tmp2686
.LBE1867:
.LBE1893:
.LBE1927:
.LBB1928:
	.loc 3 132 0
	vldr	d12, [sp, #152]	@, %sfp
	vldr	d13, [sp, #160]	@, %sfp
	veor	q11, q12, q6	@ tmp2691, tmp2690,
	veor	q11, q11, q9	@ D.17925, tmp2691, tmp2692
	veor	q9, q11, q4	@ D.17917, D.17925, D.17920
	vand	q0, q11, q13	@ tmp2693, D.17925, D.18040
	veor	q10, q11, q10	@ D.17924, D.17925, D.18044
	veor	q12, q0, q6	@ D.17921, tmp2693,
	b	.L310	@
.L311:
	.align	3
.L309:
	.byte	0
	.byte	-25
	.byte	119
	.byte	-112
	.byte	42
	.byte	-51
	.byte	93
	.byte	-70
	.byte	99
	.byte	-124
	.byte	20
	.byte	-13
	.byte	73
	.byte	-82
	.byte	62
	.byte	-39
	.byte	0
	.byte	106
	.byte	126
	.byte	20
	.byte	123
	.byte	17
	.byte	5
	.byte	111
	.byte	-122
	.byte	-20
	.byte	-8
	.byte	-110
	.byte	-3
	.byte	-105
	.byte	-125
	.byte	-23
	.byte	0
	.byte	30
	.byte	-71
	.byte	-89
	.byte	25
	.byte	7
	.byte	-96
	.byte	-66
	.byte	-88
	.byte	-74
	.byte	17
	.byte	15
	.byte	-79
	.byte	-81
	.byte	8
	.byte	22
	.byte	0
	.byte	-36
	.byte	-82
	.byte	114
	.byte	41
	.byte	-11
	.byte	-121
	.byte	91
	.byte	-126
	.byte	94
	.byte	44
	.byte	-16
	.byte	-85
	.byte	119
	.byte	5
	.byte	-39
	.byte	0
	.byte	-98
	.byte	4
	.byte	-102
	.byte	-47
	.byte	79
	.byte	-43
	.byte	75
	.byte	19
	.byte	-115
	.byte	23
	.byte	-119
	.byte	-62
	.byte	92
	.byte	-58
	.byte	88
	.byte	0
	.byte	84
	.byte	-66
	.byte	-22
	.byte	-40
	.byte	-116
	.byte	102
	.byte	50
	.byte	-91
	.byte	-15
	.byte	27
	.byte	79
	.byte	125
	.byte	41
	.byte	-61
	.byte	-105
	.byte	0
	.byte	-25
	.byte	119
	.byte	-112
	.byte	42
	.byte	-51
	.byte	93
	.byte	-70
	.byte	99
	.byte	-124
	.byte	20
	.byte	-13
	.byte	73
	.byte	-82
	.byte	62
	.byte	-39
	.byte	0
	.byte	106
	.byte	126
	.byte	20
	.byte	123
	.byte	17
	.byte	5
	.byte	111
	.byte	-122
	.byte	-20
	.byte	-8
	.byte	-110
	.byte	-3
	.byte	-105
	.byte	-125
	.byte	-23
	.byte	0
	.byte	30
	.byte	-71
	.byte	-89
	.byte	25
	.byte	7
	.byte	-96
	.byte	-66
	.byte	-88
	.byte	-74
	.byte	17
	.byte	15
	.byte	-79
	.byte	-81
	.byte	8
	.byte	22
	.byte	0
	.byte	-36
	.byte	-82
	.byte	114
	.byte	41
	.byte	-11
	.byte	-121
	.byte	91
	.byte	-126
	.byte	94
	.byte	44
	.byte	-16
	.byte	-85
	.byte	119
	.byte	5
	.byte	-39
	.byte	0
	.byte	5
	.byte	-10
	.byte	-13
	.byte	57
	.byte	60
	.byte	-49
	.byte	-54
	.byte	-82
	.byte	-85
	.byte	88
	.byte	93
	.byte	-105
	.byte	-110
	.byte	97
	.byte	100
	.byte	0
	.byte	84
	.byte	-66
	.byte	-22
	.byte	-40
	.byte	-116
	.byte	102
	.byte	50
	.byte	-91
	.byte	-15
	.byte	27
	.byte	79
	.byte	125
	.byte	41
	.byte	-61
	.byte	-105
	.byte	0
	.byte	-98
	.byte	4
	.byte	-102
	.byte	-47
	.byte	79
	.byte	-43
	.byte	75
	.byte	19
	.byte	-115
	.byte	23
	.byte	-119
	.byte	-62
	.byte	92
	.byte	-58
	.byte	88
	.byte	0
	.byte	-65
	.byte	-27
	.byte	90
	.byte	-42
	.byte	105
	.byte	51
	.byte	-116
	.byte	-40
	.byte	103
	.byte	61
	.byte	-126
	.byte	14
	.byte	-79
	.byte	-21
	.byte	84
.L310:
.LBE1928:
.LBB1929:
.LBB1894:
.LBB1868:
	.loc 3 337 0
	vldr	d22, .L309+96	@,
	vldr	d23, .L309+104	@,
	vand	q0, q8, q5	@ tmp2697, D.17868, tmp3196
.LBE1868:
.LBE1894:
.LBE1929:
.LBB1930:
	.loc 3 132 0
	vand	q6, q12, q9	@ tmp2694, D.17921, D.17917
.LBE1930:
.LBB1931:
.LBB1895:
.LBB1869:
	.loc 3 337 0
	vtbl.8	d16, {d22, d23}, d0	@ tmp2695,,, tmp2697
.LBE1869:
.LBE1895:
.LBE1931:
.LBB1932:
	.loc 3 132 0
	veor	q4, q6, q4	@ D.17915, tmp2694, D.17920
.LBE1932:
.LBB1933:
.LBB1896:
.LBB1870:
	.loc 3 337 0
	vtbl.8	d17, {d22, d23}, d1	@,,,
	.loc 3 350 0
	vand	q6, q2, q5	@, t1, tmp3196
	vldr	d22, .L309+112	@,
	vldr	d23, .L309+120	@,
	vstr	d12, [sp, #152]	@, %sfp
	vstr	d13, [sp, #160]	@, %sfp
	vtbl.8	d4, {d22, d23}, d12	@ tmp2699,,,
	vtbl.8	d5, {d22, d23}, d13	@,,,
	.loc 3 360 0
	vldr	d12, .L309+128	@,
	vldr	d13, .L309+136	@,
	.loc 3 337 0
	veor	q8, q8, q2	@ tmp2703, tmp2695, tmp2699
	.loc 3 360 0
	vldr	d4, [sp, #184]	@, %sfp
	vldr	d5, [sp, #192]	@, %sfp
	vand	q11, q2, q5	@,, tmp3196
	vstr	d22, [sp, #168]	@, %sfp
	vstr	d23, [sp, #176]	@, %sfp
	vtbl.8	d4, {d12, d13}, d22	@ tmp2704,,,
	vtbl.8	d5, {d12, d13}, d23	@,,,
	.loc 3 350 0
	veor	q8, q8, q2	@ tmp2708, tmp2703, tmp2704
	.loc 3 327 0
	vand	q2, q3, q5	@, t1, tmp3196
	vldr	d6, .L309+144	@,
	vldr	d7, .L309+152	@,
	vstr	d4, [sp, #328]	@, %sfp
	vstr	d5, [sp, #336]	@, %sfp
	vmov	q6, q2  @ v16qi	@,
	vtbl.8	d4, {d6, d7}, d4	@ tmp2709,,, tmp87
	vtbl.8	d5, {d6, d7}, d13	@,,,
	.loc 3 336 0
	vldr	d12, [sp, #24]	@, %sfp
	vldr	d13, [sp, #32]	@, %sfp
	.loc 3 360 0
	veor	q11, q8, q2	@ tmp2713, tmp2708, tmp2709
	.loc 3 336 0
	vldr	d4, .L309+96	@,
	vldr	d5, .L309+104	@,
.LBE1870:
.LBE1896:
.LBE1933:
.LBB1934:
	.loc 3 132 0
	veor	q8, q11, q12	@ D.17913, tmp2713, D.17921
.LBE1934:
.LBB1935:
.LBB1897:
.LBB1871:
	.loc 3 336 0
	vand	q11, q6, q5	@,, tmp3196
	.loc 3 359 0
	vldr	d12, [sp, #200]	@, %sfp
	vldr	d13, [sp, #208]	@, %sfp
	.loc 3 336 0
	vtbl.8	d6, {d4, d5}, d22	@ tmp2714,,,
	vtbl.8	d7, {d4, d5}, d23	@,,,
	vstr	d22, [sp, #344]	@, %sfp
	vstr	d23, [sp, #352]	@, %sfp
	.loc 3 349 0
	vldr	d22, .L309+112	@,
	vldr	d23, .L309+120	@,
	vtbl.8	d4, {d22, d23}, d2	@ tmp2718,,, tmp2720
	vtbl.8	d5, {d22, d23}, d3	@,,,
	.loc 3 359 0
	vand	q11, q6, q5	@,, tmp3196
	.loc 3 336 0
	veor	q3, q3, q2	@ tmp2722, tmp2714, tmp2718
	.loc 3 359 0
	vstr	d22, [sp, #360]	@, %sfp
	vstr	d23, [sp, #368]	@, %sfp
	vldr	d12, .L309+128	@,
	vldr	d13, .L309+136	@,
	vtbl.8	d4, {d12, d13}, d22	@ tmp2723,,,
	vtbl.8	d5, {d12, d13}, d23	@,,,
	.loc 3 326 0
	vand	q11, q15, q5	@, t0, tmp3196
	.loc 3 349 0
	veor	q3, q3, q2	@ tmp2727, tmp2722, tmp2723
	.loc 3 326 0
	vldr	d30, .L309+144	@,
	vldr	d31, .L309+152	@,
	vstr	d22, [sp, #376]	@, %sfp
	vstr	d23, [sp, #384]	@, %sfp
	vtbl.8	d4, {d30, d31}, d22	@ tmp2728,,,
	vtbl.8	d5, {d30, d31}, d23	@,,,
	.loc 3 337 0
	vldr	d12, .L309+96	@,
	vldr	d13, .L309+104	@,
	vldr	d22, [sp, #40]	@, %sfp
	vldr	d23, [sp, #48]	@, %sfp
	.loc 3 359 0
	veor	q2, q3, q2	@ tmp2732, tmp2727, tmp2728
.LBE1871:
.LBE1897:
.LBE1935:
.LBB1936:
	.loc 3 132 0
	veor	q3, q2, q9	@ D.17911, tmp2732, D.17917
.LBE1936:
.LBB1937:
.LBB1898:
.LBB1872:
	.loc 3 337 0
	vand	q2, q11, q5	@ tmp2735,, tmp3196
	.loc 3 350 0
	vldr	d22, .L309+112	@,
	vldr	d23, .L309+120	@,
	.loc 3 337 0
	vtbl.8	d30, {d12, d13}, d4	@ tmp2733,,, tmp2735
	vtbl.8	d31, {d12, d13}, d5	@,,,
	.loc 3 350 0
	vand	q6, q14, q5	@, t1, tmp3196
	vtbl.8	d28, {d22, d23}, d12	@ tmp2737,,,
.LVL451:
	vtbl.8	d29, {d22, d23}, d13	@,,,
	vstr	d12, [sp, #392]	@, %sfp
	vstr	d13, [sp, #400]	@, %sfp
	.loc 3 337 0
	veor	q15, q15, q14	@ tmp2741, tmp2733, tmp2737
	.loc 3 360 0
	vldr	d12, .L309+128	@,
	vldr	d13, .L309+136	@,
	vldr	d28, [sp, #216]	@, %sfp
	vldr	d29, [sp, #224]	@, %sfp
	vand	q11, q14, q5	@,, tmp3196
	vstr	d22, [sp, #408]	@, %sfp
	vstr	d23, [sp, #416]	@, %sfp
	vtbl.8	d28, {d12, d13}, d22	@ tmp2742,,,
	vtbl.8	d29, {d12, d13}, d23	@,,,
	.loc 3 327 0
	vldr	d12, .L309+144	@,
	vldr	d13, .L309+152	@,
	.loc 3 350 0
	veor	q15, q15, q14	@ tmp2746, tmp2741, tmp2742
	.loc 3 327 0
	vldr	d28, [sp, #264]	@, %sfp
	vldr	d29, [sp, #272]	@, %sfp
	vand	q14, q14, q5	@,, tmp3196
	vstr	d28, [sp, #424]	@, %sfp
	vstr	d29, [sp, #432]	@, %sfp
	vtbl.8	d22, {d12, d13}, d28	@ tmp2747,,,
	vtbl.8	d23, {d12, d13}, d29	@,,,
	.loc 3 360 0
	veor	q11, q15, q11	@ tmp2751, tmp2746, tmp2747
.LBE1872:
.LBE1898:
.LBE1937:
.LBB1938:
	.loc 3 132 0
	veor	q14, q11, q4	@ D.17909, tmp2751, D.17915
.LVL452:
	vand	q11, q12, q10	@ tmp2758, D.17921, D.17924
	vbic	q15, q14, q3	@ tmp2753, D.17909, D.17911
	vbic	q6, q8, q14	@ tmp2755, D.17913, D.17909
	veor	q15, q15, q8	@ D.17857, tmp2753, D.17913
	veor	q6, q6, q3	@ D.17854, tmp2755, D.17911
	veor	q12, q15, q12	@ D.17913, D.17857, D.17921
	vbic	q8, q3, q8	@ tmp2757, D.17911, D.17913
.LVL453:
	veor	q13, q11, q13	@ tmp2759, tmp2758, D.18040
	veor	q3, q8, q14	@ D.17851, tmp2757, D.17909
.LVL454:
	vmvn	q11, q13	@ D.17899, tmp2759
	veor	q14, q6, q12	@ tmp2760, D.17854, D.17913
	veor	q4, q3, q4	@ D.17909, D.17851, D.17915
	veor	q9, q14, q9	@ tmp2761, tmp2760, D.17917
	vmvn	q10, q10	@ D.17898, D.17924
	vand	q8, q4, q10	@ tmp2762, D.17909, D.17898
	veor	q13, q9, q8	@ D.17925, tmp2761, tmp2762
.LBE1938:
	.loc 3 134 0
	vldmia	sl, {d16-d17}	@ *D.17934_2167, *D.17934_2167
	veor	q3, q3, q8	@, D.17851, *D.17934_2167
	vldmia	r3, {d16-d17}	@ *D.17934_2212, *D.17934_2212
	.loc 3 139 0
	ldr	r3, [sp, #4]	@, %sfp
.LBB1939:
	.loc 3 132 0
	vand	q14, q13, q11	@ tmp2763, D.17925, D.17899
	veor	q10, q13, q10	@ D.17924, D.17925, D.17898
	veor	q12, q14, q12	@ D.17921, tmp2763, D.17913
	veor	q4, q4, q11	@ D.17920, D.17909, D.17899
.LBE1939:
	.loc 3 134 0
	vstr	d6, [sp, #216]	@, %sfp
	vstr	d7, [sp, #224]	@, %sfp
.LBB1940:
	.loc 3 132 0
	veor	q9, q13, q4	@ D.17917, D.17925, D.17920
.LVL455:
.LBE1940:
	.loc 3 134 0
	veor	q3, q10, q8	@, D.17924, *D.17934_2212
	adds	r0, r4, r0	@ tmp2782, tweakey, prephitmp.1088
.LBB1941:
	.loc 3 132 0
	vand	q10, q12, q10	@ tmp2772, D.17921, D.17924
.LBE1941:
	.loc 3 139 0
	add	ip, r4, r3	@ tmp2896, tweakey,
.LBB1942:
	.loc 3 132 0
	veor	q11, q10, q11	@ tmp2773, tmp2772, D.17899
.LBE1942:
	.loc 3 134 0
	vstr	d6, [sp, #264]	@, %sfp
	vstr	d7, [sp, #272]	@, %sfp
	vldmia	r0, {d20-d21}	@ *D.17934_2272, *D.17934_2272
	add	r9, r4, r9	@ tmp2766, tweakey, prephitmp.1064
	add	r8, r4, r8	@ tmp2768, tweakey, prephitmp.1068
	vldmia	r9, {d26-d27}	@ *D.17934_2182, *D.17934_2182
	vldmia	r8, {d28-d29}	@ *D.17934_2197, *D.17934_2197
	veor	q6, q6, q13	@, D.17854, *D.17934_2182
	veor	q15, q15, q14	@, D.17857, *D.17934_2197
	vstr	d12, [sp, #24]	@, %sfp
	vstr	d13, [sp, #32]	@, %sfp
.LVL456:
	vstr	d30, [sp, #40]	@, %sfp
	vstr	d31, [sp, #48]	@, %sfp
.LVL457:
.LBB1943:
	.loc 3 132 0
	vand	q6, q12, q9	@ tmp2776, D.17921, D.17917
.LBE1943:
	.loc 3 134 0
	adds	r7, r4, r7	@ tmp2774, tweakey, prephitmp.1076
.LBB1944:
	.loc 3 132 0
	veor	q4, q6, q4	@ tmp2777, tmp2776, D.17920
.LBE1944:
	.loc 3 134 0
	vldmia	r7, {d26-d27}	@ *D.17934_2227, *D.17934_2227
.LBB1945:
.LBB1899:
.LBB1873:
	.loc 3 331 0
	vldr	d12, .L309+192	@,
	vldr	d13, .L309+200	@,
.LBE1873:
.LBE1899:
.LBE1945:
	.loc 3 134 0
	veor	q12, q12, q10	@, D.17921, *D.17934_2272
	veor	q3, q11, q13	@ prephitmp.1008, tmp2773, *D.17934_2227
.LVL458:
.LBB1946:
.LBB1900:
.LBB1874:
	.loc 3 331 0
	vldr	d20, [sp, #104]	@, %sfp
	vldr	d21, [sp, #112]	@, %sfp
	vldr	d26, [r1, #-16]	@, MEM[base: D.19387_2570, offset: 4294967280B]
	vldr	d27, [r1, #-8]	@, MEM[base: D.19387_2570, offset: 4294967280B]
	.loc 3 354 0
	vldr	d22, .L309+176	@,
	vldr	d23, .L309+184	@,
.LBE1874:
.LBE1900:
.LBE1946:
	.loc 3 134 0
	vstr	d24, [sp, #184]	@, %sfp
	vstr	d25, [sp, #192]	@, %sfp
	adds	r6, r4, r6	@ tmp2778, tweakey, prephitmp.1080
.LBB1947:
.LBB1901:
.LBB1875:
	.loc 3 344 0
	vldr	d24, [sp, #248]	@, %sfp
	vldr	d25, [sp, #256]	@, %sfp
.LBE1875:
.LBE1901:
.LBE1947:
	.loc 3 134 0
	vldmia	r6, {d28-d29}	@ *D.17934_2242, *D.17934_2242
	adds	r5, r4, r5	@ tmp2780, tweakey, prephitmp.1084
	veor	q15, q4, q14	@, tmp2777, *D.17934_2242
	vldmia	r5, {d16-d17}	@ *D.17934_2257, *D.17934_2257
	vstr	d30, [sp, #232]	@, %sfp
	vstr	d31, [sp, #240]	@, %sfp
.LVL459:
	veor	q9, q9, q8	@, D.17917, *D.17934_2257
.LBB1948:
.LBB1902:
.LBB1876:
	.loc 3 354 0
	vldr	d30, [sp, #56]	@, %sfp
	vldr	d31, [sp, #64]	@, %sfp
.LBE1876:
.LBE1902:
.LBE1948:
	.loc 3 134 0
	vstr	d18, [sp, #200]	@, %sfp
	vstr	d19, [sp, #208]	@, %sfp
.LVL460:
.LBB1949:
.LBB1903:
.LBB1877:
	.loc 3 354 0
	vtbl.8	d16, {d22, d23}, d30	@ tmp2784,,,
	vtbl.8	d17, {d22, d23}, d31	@,,,
	.loc 3 331 0
	vtbl.8	d18, {d12, d13}, d20	@ tmp2790,,,
	.loc 3 344 0
	vldr	d22, .L309+208	@,
	vldr	d23, .L309+216	@,
	.loc 3 331 0
	veor	q4, q8, q13	@ tmp2788, tmp2784,
	vtbl.8	d19, {d12, d13}, d21	@,,,
	.loc 3 321 0
	vldr	d26, .L309+160	@,
	vldr	d27, .L309+168	@,
	.loc 3 344 0
	veor	q14, q4, q9	@ tmp2794, tmp2788, tmp2790
	vtbl.8	d18, {d22, d23}, d24	@ tmp2795,,,
	vtbl.8	d19, {d22, d23}, d25	@,,,
	.loc 3 345 0
	vldr	d8, [sp, #120]	@, %sfp
	vldr	d9, [sp, #128]	@, %sfp
	.loc 3 354 0
	veor	q15, q14, q9	@ tmp2799, tmp2794, tmp2795
	.loc 3 345 0
	vtbl.8	d20, {d22, d23}, d8	@ tmp2808,,,
	vtbl.8	d21, {d22, d23}, d9	@,,,
	.loc 3 321 0
	vldr	d28, [sp, #280]	@, %sfp
	vldr	d29, [sp, #288]	@, %sfp
	vtbl.8	d18, {d26, d27}, d28	@ tmp2800,,,
	vtbl.8	d19, {d26, d27}, d29	@,,,
.LBE1877:
.LBE1903:
.LBE1949:
.LBB1950:
	.loc 3 137 0
	vldr	d28, [sp, #88]	@, %sfp
	vldr	d29, [sp, #96]	@, %sfp
.LBE1950:
	.loc 3 136 0
	veor	q9, q15, q9	@ D.17849, tmp2799, tmp2800
.LBB1951:
.LBB1904:
.LBB1878:
	.loc 3 332 0
	vldr	d30, [sp, #296]	@, %sfp
	vldr	d31, [sp, #304]	@, %sfp
	vtbl.8	d16, {d12, d13}, d30	@ tmp2804,,,
	vtbl.8	d17, {d12, d13}, d31	@,,,
	.loc 3 355 0
	vldr	d12, .L309+176	@,
	vldr	d13, .L309+184	@,
	.loc 3 332 0
	veor	q8, q8, q10	@ tmp2812, tmp2804, tmp2808
	.loc 3 355 0
	vldr	d20, [sp, #312]	@, %sfp
	vldr	d21, [sp, #320]	@, %sfp
	vtbl.8	d22, {d12, d13}, d20	@ tmp2813,,,
	vtbl.8	d23, {d12, d13}, d21	@,,,
	.loc 3 345 0
	veor	q10, q8, q11	@ tmp2817, tmp2812, tmp2813
	.loc 3 322 0
	vldr	d22, [sp, #136]	@, %sfp
	vldr	d23, [sp, #144]	@, %sfp
	vtbl.8	d24, {d26, d27}, d22	@ tmp2818,,,
	vtbl.8	d25, {d26, d27}, d23	@,,,
.LBE1878:
.LBE1904:
.LBE1951:
.LBB1952:
	.loc 3 137 0
	vldr	d22, [sp, #72]	@, %sfp
	vldr	d23, [sp, #80]	@, %sfp
.LBE1952:
.LBB1953:
.LBB1905:
.LBB1879:
	.loc 3 355 0
	veor	q12, q10, q12	@ tmp2822, tmp2817, tmp2818
.LBE1879:
.LBE1905:
.LBE1953:
.LBB1954:
	.loc 3 137 0
	vand	q15, q11, q14	@ tmp2824,,
	veor	q4, q12, q9	@ tmp2823, tmp2822, D.17849
	veor	q13, q4, q15	@ D.17887, tmp2823, tmp2824
	veor	q4, q7, q11	@ D.17882, D.18048,
	vand	q8, q13, q7	@ tmp2825, D.17887, D.18048
	veor	q12, q13, q4	@ D.17879, D.17887, D.17882
	veor	q9, q8, q9	@ D.17883, tmp2825, D.17849
	veor	q10, q13, q14	@ D.17886, D.17887,
	vand	q11, q9, q12	@ tmp2826, D.17883, D.17879
.LBE1954:
.LBB1955:
.LBB1906:
.LBB1880:
	.loc 3 332 0
	vldr	d30, .L309+192	@,
	vldr	d31, .L309+200	@,
.LBE1880:
.LBE1906:
.LBE1955:
.LBB1956:
	.loc 3 137 0
	veor	q14, q11, q4	@ D.17877, tmp2826, D.17882
.LBE1956:
.LBB1957:
.LBB1907:
.LBB1881:
	.loc 3 332 0
	vtbl.8	d16, {d30, d31}, d0	@ tmp2827,,, tmp2697
	vtbl.8	d17, {d30, d31}, d1	@,,,
	.loc 3 345 0
	vldr	d8, [sp, #152]	@, %sfp
	vldr	d9, [sp, #160]	@, %sfp
	vldr	d0, .L309+208	@,
	vldr	d1, .L309+216	@,
	vtbl.8	d22, {d0, d1}, d8	@ tmp2831,,,
	vtbl.8	d23, {d0, d1}, d9	@,,,
	.loc 3 322 0
	vldr	d0, [sp, #328]	@, %sfp
	vldr	d1, [sp, #336]	@, %sfp
	.loc 3 332 0
	veor	q8, q8, q11	@ tmp2835, tmp2827, tmp2831
	.loc 3 355 0
	vldr	d22, [sp, #168]	@, %sfp
	vldr	d23, [sp, #176]	@, %sfp
	vtbl.8	d26, {d12, d13}, d22	@ tmp2836,,,
	vtbl.8	d27, {d12, d13}, d23	@,,,
	.loc 3 345 0
	veor	q6, q8, q13	@ tmp2840, tmp2835, tmp2836
	.loc 3 322 0
	vldr	d26, .L312	@,
	vldr	d27, .L312+8	@,
	vtbl.8	d30, {d26, d27}, d0	@ tmp2841,,,
	vtbl.8	d31, {d26, d27}, d1	@,,,
	.loc 3 344 0
	vldr	d0, .L312+16	@,
	vldr	d1, .L312+24	@,
	.loc 3 355 0
	veor	q4, q6, q15	@ tmp2845, tmp2840, tmp2841
	.loc 3 344 0
	vtbl.8	d26, {d0, d1}, d2	@ tmp2850,,, tmp2720
.LBE1881:
.LBE1907:
.LBE1957:
.LBB1958:
	.loc 3 137 0
	veor	q8, q4, q9	@ D.17875, tmp2845, D.17883
.LBE1958:
.LBB1959:
.LBB1908:
.LBB1882:
	.loc 3 331 0
	vldr	d30, .L312+32	@,
	vldr	d31, .L312+40	@,
	vldr	d12, [sp, #344]	@, %sfp
	vldr	d13, [sp, #352]	@, %sfp
	.loc 3 344 0
	vtbl.8	d27, {d0, d1}, d3	@,,,
	.loc 3 331 0
	vtbl.8	d22, {d30, d31}, d12	@ tmp2846,,,
	.loc 3 354 0
	vldr	d2, [sp, #360]	@, %sfp
	vldr	d3, [sp, #368]	@, %sfp
	.loc 3 331 0
	vtbl.8	d23, {d30, d31}, d13	@,,,
	.loc 3 321 0
	vldr	d8, .L312	@,
	vldr	d9, .L312+8	@,
	.loc 3 354 0
	vldr	d12, .L312+48	@,
	vldr	d13, .L312+56	@,
	.loc 3 331 0
	veor	q11, q11, q13	@ tmp2854, tmp2846, tmp2850
	.loc 3 354 0
	vtbl.8	d30, {d12, d13}, d2	@ tmp2855,,,
	vtbl.8	d31, {d12, d13}, d3	@,,,
	.loc 3 321 0
	vldr	d12, [sp, #376]	@, %sfp
	vldr	d13, [sp, #384]	@, %sfp
	.loc 3 344 0
	veor	q13, q11, q15	@ tmp2859, tmp2854, tmp2855
	.loc 3 321 0
	vtbl.8	d2, {d8, d9}, d12	@ tmp2860,,,
	.loc 3 332 0
	vldr	d30, .L312+32	@,
	vldr	d31, .L312+40	@,
	.loc 3 321 0
	vtbl.8	d3, {d8, d9}, d13	@,,,
	.loc 3 355 0
	vldr	d12, [sp, #408]	@, %sfp
	vldr	d13, [sp, #416]	@, %sfp
	.loc 3 354 0
	veor	q1, q13, q1	@ tmp2864, tmp2859, tmp2860
	.loc 3 322 0
	vldr	d8, .L312	@,
	vldr	d9, .L312+8	@,
.LBE1882:
.LBE1908:
.LBE1959:
.LBB1960:
	.loc 3 137 0
	veor	q11, q1, q12	@ D.17873, tmp2864, D.17879
.LBE1960:
.LBB1961:
.LBB1909:
.LBB1883:
	.loc 3 332 0
	vtbl.8	d26, {d30, d31}, d4	@ tmp2865,,, tmp2735
	vtbl.8	d27, {d30, d31}, d5	@,,,
	.loc 3 345 0
	vldr	d2, [sp, #392]	@, %sfp
	vldr	d3, [sp, #400]	@, %sfp
	vldr	d4, .L312+16	@,
	vldr	d5, .L312+24	@,
	vtbl.8	d30, {d4, d5}, d2	@ tmp2869,,,
	vtbl.8	d31, {d4, d5}, d3	@,,,
	.loc 3 332 0
	veor	q0, q13, q15	@ tmp2873, tmp2865, tmp2869
	.loc 3 355 0
	vldr	d26, .L312+48	@,
	vldr	d27, .L312+56	@,
	vtbl.8	d4, {d26, d27}, d12	@ tmp2874,,,
	vtbl.8	d5, {d26, d27}, d13	@,,,
	.loc 3 345 0
	veor	q6, q0, q2	@ tmp2878, tmp2873, tmp2874
	.loc 3 322 0
	vldr	d0, [sp, #424]	@, %sfp
	vldr	d1, [sp, #432]	@, %sfp
	vtbl.8	d2, {d8, d9}, d0	@ tmp2879,,,
	vtbl.8	d3, {d8, d9}, d1	@,,,
	.loc 3 355 0
	veor	q1, q6, q1	@ tmp2883, tmp2878, tmp2879
.LBE1883:
.LBE1909:
.LBE1961:
.LBB1962:
	.loc 3 137 0
	vand	q6, q9, q10	@ tmp2890, D.17883, D.17886
	veor	q15, q1, q14	@ D.17871, tmp2883, D.17877
.LVL461:
	veor	q7, q6, q7	@ tmp2891, tmp2890, D.18048
	vbic	q2, q15, q11	@ tmp2885, D.17871, D.17873
	vbic	q0, q8, q15	@ tmp2887, D.17875, D.17871
	veor	q13, q2, q8	@ D.17846, tmp2885, D.17875
	vmvn	q10, q10	@ D.17860, D.17886
	veor	q2, q0, q11	@ D.17843, tmp2887, D.17873
	veor	q9, q13, q9	@ D.17875, D.17846, D.17883
	vbic	q8, q11, q8	@ tmp2889, D.17873, D.17875
.LVL462:
	veor	q4, q2, q9	@ tmp2892, D.17843, D.17875
	veor	q11, q8, q15	@ D.17840, tmp2889, D.17871
.LVL463:
	veor	q12, q4, q12	@ tmp2893, tmp2892, D.17879
	veor	q14, q11, q14	@ D.17871, D.17840, D.17877
	vand	q1, q14, q10	@ tmp2894, D.17871, D.17860
	veor	q0, q12, q1	@ D.17887, tmp2893, tmp2894
	veor	q6, q0, q10	@ D.17886, D.17887, D.17860
.LBE1962:
	.loc 3 139 0
	vldmia	ip, {d20-d21}	@ *D.17934_2287, *D.17934_2287
	veor	q11, q11, q10	@, D.17840, *D.17934_2287
	vstr	d22, [sp, #104]	@, %sfp
	vstr	d23, [sp, #112]	@, %sfp
	ldr	r0, [sp, #448]	@, %sfp
.LBB1963:
	.loc 3 137 0
	vmvn	q15, q7	@ D.17861, tmp2891
	veor	q7, q14, q15	@ D.17882, D.17871, D.17861
	subs	r1, r1, #32	@ ivtmp.1148, ivtmp.1148,
	veor	q4, q0, q7	@ D.17879, D.17887, D.17882
.LVL464:
	vand	q8, q0, q15	@ tmp2895, D.17887, D.17861
.LBE1963:
	.loc 3 139 0
	add	fp, r4, fp	@ tmp2912, tweakey, prephitmp.1116
.LBB1964:
	.loc 3 137 0
	veor	q9, q8, q9	@ D.17883, tmp2895, D.17875
	vand	q0, q9, q6	@ tmp2904, D.17883, D.17886
	vand	q10, q9, q4	@ tmp2908, D.17883, D.17879
	veor	q15, q0, q15	@ tmp2905, tmp2904, D.17861
.LBE1964:
	.loc 3 139 0
	adds	r3, r4, r0	@ tmp2898, tweakey,
	ldr	r0, [sp, #440]	@, %sfp
	vldmia	r3, {d28-d29}	@ *D.17934_2302, *D.17934_2302
	ldr	r3, [sp, #444]	@, %sfp
	veor	q2, q2, q14	@, D.17843, *D.17934_2302
.LBB1965:
	.loc 3 137 0
	veor	q7, q10, q7	@ tmp2909, tmp2908, D.17882
.LBE1965:
	.loc 3 139 0
	vldmia	fp, {d28-d29}	@ *D.17934_2377, *D.17934_2377
	vstr	d4, [sp, #88]	@, %sfp
	vstr	d5, [sp, #96]	@, %sfp
.LVL465:
	add	ip, r4, r0	@ tmp2900, tweakey,
	vldmia	ip, {d24-d25}	@ *D.17934_2317, *D.17934_2317
	veor	q13, q13, q12	@, D.17846, *D.17934_2317
	adds	r0, r4, r3	@ tmp2902, tweakey,
	ldr	r3, [sp, #452]	@, %sfp
	vldmia	r0, {d2-d3}	@ *D.17934_2332, *D.17934_2332
	ldr	r0, [sp, #456]	@, %sfp
	veor	q8, q6, q1	@ prephitmp.1008, D.17886, *D.17934_2332
	vstr	d26, [sp, #72]	@, %sfp
	vstr	d27, [sp, #80]	@, %sfp
.LVL466:
	add	ip, r4, r3	@ tmp2906, tweakey,
	vldmia	ip, {d12-d13}	@ *D.17934_2347, *D.17934_2347
	veor	q6, q15, q6	@ prephitmp.1008, tmp2905, *D.17934_2347
.LVL467:
	adds	r3, r4, r0	@ tmp2910, tweakey,
	vldmia	r3, {d22-d23}	@ *D.17934_2362, *D.17934_2362
	.loc 3 120 0
	ldr	r3, .L312+64	@,
	.loc 3 139 0
	ldr	r0, [sp, #460]	@, %sfp
	veor	q15, q7, q11	@ prephitmp.1008, tmp2909, *D.17934_2362
.LVL468:
	veor	q7, q4, q14	@ prephitmp.1008, D.17879, *D.17934_2377
.LVL469:
	.loc 3 120 0
	cmp	r1, r3	@ ivtmp.1148,
	.loc 3 139 0
	add	ip, r4, r0	@ tmp2914, tweakey,
	vldmia	ip, {d8-d9}	@ *D.17934_2392, *D.17934_2392
	veor	q4, q9, q4	@ prephitmp.1008, D.17883, *D.17934_2392
.LVL470:
	.loc 3 120 0
	bne	.L240	@,
.LBE1966:
.LBE1969:
.LBB1970:
.LBB1971:
	.loc 1 52 0
	ldr	r1, [sp, #464]	@, %sfp
	vstr	d6, [sp, #248]	@, %sfp
	vstr	d7, [sp, #256]	@, %sfp
	vmov	q1, q13  @ v16qi	@ tmp2932,
	vmov	q3, q8  @ v16qi	@ prephitmp.1008, prephitmp.1008
.LVL471:
.LBB1972:
.LBB1973:
.LBB1974:
	.loc 2 7647 0
	vmov	q10, q7  @ v16qi	@ tmp2931, prephitmp.1008
.LBE1974:
.LBE1973:
.LBE1972:
.LBB1977:
.LBB1978:
.LBB1979:
	vmov	q8, q4  @ v16qi	@ tmp2917, prephitmp.1008
.LBE1979:
.LBE1978:
.LBE1977:
.LBB1982:
.LBB1976:
.LBB1975:
	vzip.8	q10, q1	@ tmp2931, tmp2932
.LBE1975:
.LBE1976:
.LBE1982:
.LBB1983:
.LBB1981:
.LBB1980:
	vzip.8	q8, q3	@ tmp2917, tmp2918
.LVL472:
.LBE1980:
.LBE1981:
.LBE1983:
.LBB1984:
.LBB1985:
.LBB1986:
	vmov	q12, q15  @ v16qi	@ tmp2945, prephitmp.1008
.LBE1986:
.LBE1985:
.LBE1984:
.LBB1991:
.LBB1992:
.LBB1993:
	vldr	d14, [sp, #24]	@, %sfp
	vldr	d15, [sp, #32]	@, %sfp
.LBE1993:
.LBE1992:
.LBE1991:
.LBB1998:
.LBB1999:
.LBB2000:
	vmov	q14, q6  @ v16qi	@ tmp2959, prephitmp.1008
.LBE2000:
.LBE1999:
.LBE1998:
.LBB2005:
.LBB2006:
.LBB2007:
	vldr	d18, [sp, #184]	@, %sfp
	vldr	d19, [sp, #192]	@, %sfp
	vldr	d4, [sp, #264]	@, %sfp
	vldr	d5, [sp, #272]	@, %sfp
.LBE2007:
.LBE2006:
.LBE2005:
.LBB2010:
.LBB2011:
.LBB2012:
	vldr	d22, [sp, #200]	@, %sfp
	vldr	d23, [sp, #208]	@, %sfp
.LBE2012:
.LBE2011:
.LBE2010:
.LBB2017:
.LBB2009:
.LBB2008:
	vzip.8	q9, q2	@ tmp2924, tmp2925
.LVL473:
.LBE2008:
.LBE2009:
.LBE2017:
.LBB2018:
.LBB2015:
.LBB2013:
	vldr	d0, [sp, #40]	@, %sfp
	vldr	d1, [sp, #48]	@, %sfp
.LBE2013:
.LBE2015:
.LBE2018:
.LBB2019:
.LBB1989:
.LBB1987:
	vldr	d8, [sp, #88]	@, %sfp
	vldr	d9, [sp, #96]	@, %sfp
.LVL474:
.LBE1987:
.LBE1989:
.LBE2019:
.LBB2020:
.LBB2016:
.LBB2014:
	vzip.8	q11, q0	@ tmp2938, tmp2939
.LVL475:
.LBE2014:
.LBE2016:
.LBE2020:
.LBB2021:
.LBB1990:
.LBB1988:
	vzip.8	q12, q4	@ tmp2945, tmp2946
.LVL476:
.LBE1988:
.LBE1990:
.LBE2021:
.LBB2022:
.LBB1996:
.LBB1994:
	vldr	d26, [sp, #232]	@, %sfp
	vldr	d27, [sp, #240]	@, %sfp
.LVL477:
.LBE1994:
.LBE1996:
.LBE2022:
.LBB2023:
.LBB2024:
.LBB2025:
	vzip.8	q8, q12	@ tmp2973, tmp2974
.LVL478:
.LBE2025:
.LBE2024:
.LBE2023:
.LBB2026:
.LBB1997:
.LBB1995:
	vzip.8	q13, q7	@ tmp2952, tmp2953
.LVL479:
.LBE1995:
.LBE1997:
.LBE2026:
.LBB2027:
.LBB2028:
.LBB2029:
	vzip.8	q3, q4	@ tmp3001, tmp3002
.LVL480:
.LBE2029:
.LBE2028:
.LBE2027:
.LBB2030:
.LBB2031:
.LBB2032:
	vzip.8	q9, q13	@ tmp2980, tmp2981
.LVL481:
.LBE2032:
.LBE2031:
.LBE2030:
.LBB2033:
.LBB2034:
.LBB2035:
	vzip.8	q2, q7	@ tmp3008, tmp3009
.LVL482:
.LBE2035:
.LBE2034:
.LBE2033:
.LBB2036:
.LBB2003:
.LBB2001:
	vldr	d10, [sp, #104]	@, %sfp
	vldr	d11, [sp, #112]	@, %sfp
.LBE2001:
.LBE2003:
.LBE2036:
.LBB2037:
.LBB2038:
.LBB2039:
	vldr	d30, [sp, #248]	@, %sfp
	vldr	d31, [sp, #256]	@, %sfp
.LVL483:
.LBE2039:
.LBE2038:
.LBE2037:
.LBB2044:
.LBB2004:
.LBB2002:
	vzip.8	q14, q5	@ tmp2959,
.LVL484:
.LBE2002:
.LBE2004:
.LBE2044:
.LBB2045:
.LBB2042:
.LBB2040:
	vldr	d12, [sp, #216]	@, %sfp
	vldr	d13, [sp, #224]	@, %sfp
.LVL485:
.LBE2040:
.LBE2042:
.LBE2045:
.LBB2046:
.LBB2047:
.LBB2048:
	vzip.8	q10, q14	@ tmp2987, tmp2988
.LVL486:
.LBE2048:
.LBE2047:
.LBE2046:
.LBB2049:
.LBB2043:
.LBB2041:
	vzip.8	q15, q6	@ tmp2966, tmp2967
.LVL487:
.LBE2041:
.LBE2043:
.LBE2049:
.LBB2050:
.LBB2051:
.LBB2052:
	vzip.8	q1, q5	@ tmp3015,
.LVL488:
.LBE2052:
.LBE2051:
.LBE2050:
.LBB2053:
.LBB2054:
.LBB2055:
	vzip.8	q11, q15	@ tmp2994, tmp2995
.LVL489:
.LBE2055:
.LBE2054:
.LBE2053:
.LBB2056:
.LBB2057:
.LBB2058:
	vzip.8	q0, q6	@ tmp3022, tmp3023
.LVL490:
.LBE2058:
.LBE2057:
.LBE2056:
.LBB2059:
.LBB2060:
.LBB2061:
	vzip.8	q8, q10	@ tmp3029, tmp3030
.LVL491:
.LBE2061:
.LBE2060:
.LBE2059:
.LBB2062:
.LBB2063:
.LBB2064:
	vzip.8	q9, q11	@ tmp3036, tmp3037
.LVL492:
.LBE2064:
.LBE2063:
.LBE2062:
.LBB2065:
.LBB2066:
.LBB2067:
	vzip.8	q12, q14	@ tmp3043, tmp3044
.LVL493:
.LBE2067:
.LBE2066:
.LBE2065:
.LBB2068:
.LBB2069:
.LBB2070:
	vzip.8	q13, q15	@ tmp3050, tmp3051
.LVL494:
.LBE2070:
.LBE2069:
.LBE2068:
.LBB2071:
.LBB2072:
.LBB2073:
	vzip.8	q3, q1	@ tmp3057, tmp3058
.LVL495:
.LBE2073:
.LBE2072:
.LBE2071:
.LBB2074:
.LBB2075:
.LBB2076:
	vzip.8	q2, q0	@ tmp3064, tmp3065
.LVL496:
.LBE2076:
.LBE2075:
.LBE2074:
.LBB2077:
.LBB2078:
.LBB2079:
	vzip.8	q4, q5	@ tmp3071,
.LVL497:
.LBE2079:
.LBE2078:
.LBE2077:
.LBB2080:
.LBB2081:
.LBB2082:
	vzip.8	q7, q6	@ tmp3078, tmp3079
.LVL498:
.LBE2082:
.LBE2081:
.LBE2080:
.LBB2083:
.LBB2084:
.LBB2085:
	vzip.8	q8, q9	@ tmp3085, tmp3086
.LVL499:
.LBE2085:
.LBE2084:
.LBE2083:
.LBB2086:
.LBB2087:
.LBB2088:
	vzip.8	q5, q6	@, tmp3163
.LVL500:
.LBE2088:
.LBE2087:
.LBE2086:
.LBB2091:
.LBB2092:
.LBB2093:
	vzip.8	q10, q11	@ tmp3096, tmp3097
.LVL501:
.LBE2093:
.LBE2092:
.LBE2091:
.LBB2094:
.LBB2095:
.LBB2096:
	vzip.8	q12, q13	@ tmp3107, tmp3108
.LVL502:
.LBE2096:
.LBE2095:
.LBE2094:
.LBB2097:
.LBB2098:
.LBB2099:
	vzip.8	q14, q15	@ tmp3118, tmp3119
.LVL503:
.LBE2099:
.LBE2098:
.LBE2097:
.LBB2100:
.LBB2101:
.LBB2102:
	vzip.8	q3, q2	@ tmp3129, tmp3130
.LVL504:
.LBE2102:
.LBE2101:
.LBE2100:
.LBB2103:
.LBB2104:
.LBB2105:
	vzip.8	q1, q0	@ tmp3140, tmp3141
.LVL505:
.LBE2105:
.LBE2104:
.LBE2103:
.LBB2106:
.LBB2107:
.LBB2108:
	vzip.8	q4, q7	@ tmp3151, tmp3152
.LVL506:
.LBE2108:
.LBE2107:
.LBE2106:
.LBB2109:
.LBB2090:
.LBB2089:
	vstr	d10, [sp, #24]	@, %sfp
	vstr	d11, [sp, #32]	@, %sfp
.LVL507:
.LBE2089:
.LBE2090:
.LBE2109:
	.loc 1 52 0
	cmp	r1, #0	@
	beq	.L241	@
	.loc 1 53 0
	ldr	r2, [sp, #468]	@, %sfp
.LVL508:
	subs	r0, r2, #1	@ tmp3172,,
	cmp	r0, #15	@ tmp3172,
	bhi	.L241	@
	tbb	[pc, r0]	@ tmp3172
.L258:
	.byte	(.L242-.L258)/2
	.byte	(.L243-.L258)/2
	.byte	(.L244-.L258)/2
	.byte	(.L245-.L258)/2
	.byte	(.L246-.L258)/2
	.byte	(.L247-.L258)/2
	.byte	(.L248-.L258)/2
	.byte	(.L249-.L258)/2
	.byte	(.L250-.L258)/2
	.byte	(.L251-.L258)/2
	.byte	(.L252-.L258)/2
	.byte	(.L253-.L258)/2
	.byte	(.L254-.L258)/2
	.byte	(.L255-.L258)/2
	.byte	(.L256-.L258)/2
	.byte	(.L257-.L258)/2
	.align	1
.L313:
	.align	3
.L312:
	.byte	0
	.byte	5
	.byte	-10
	.byte	-13
	.byte	57
	.byte	60
	.byte	-49
	.byte	-54
	.byte	-82
	.byte	-85
	.byte	88
	.byte	93
	.byte	-105
	.byte	-110
	.byte	97
	.byte	100
	.byte	0
	.byte	-65
	.byte	-27
	.byte	90
	.byte	-42
	.byte	105
	.byte	51
	.byte	-116
	.byte	-40
	.byte	103
	.byte	61
	.byte	-126
	.byte	14
	.byte	-79
	.byte	-21
	.byte	84
	.byte	0
	.byte	-98
	.byte	4
	.byte	-102
	.byte	-47
	.byte	79
	.byte	-43
	.byte	75
	.byte	19
	.byte	-115
	.byte	23
	.byte	-119
	.byte	-62
	.byte	92
	.byte	-58
	.byte	88
	.byte	0
	.byte	84
	.byte	-66
	.byte	-22
	.byte	-40
	.byte	-116
	.byte	102
	.byte	50
	.byte	-91
	.byte	-15
	.byte	27
	.byte	79
	.byte	125
	.byte	41
	.byte	-61
	.byte	-105
	.word	.LANCHOR0+1008
.L257:
.LVL509:
.LBB2110:
.LBB2111:
	.loc 2 8322 0
	ldr	r3, [sp, #464]	@, %sfp
	add	ip, r3, #240	@ tmp3173,,
.LVL510:
	vst1.8	{d12-d13}, [ip]	@ tmp3163, MEM[(__builtin_neon_qi[16] *)D.18398_768]
.LVL511:
.L256:
.LBE2111:
.LBE2110:
.LBB2112:
.LBB2113:
	ldr	r1, [sp, #464]	@, %sfp
.LVL512:
	vldr	d10, [sp, #24]	@, %sfp
	vldr	d11, [sp, #32]	@, %sfp
.LVL513:
	add	r2, r1, #224	@ tmp3174,,
.LVL514:
	vst1.8	{d10-d11}, [r2]	@, MEM[(__builtin_neon_qi[16] *)D.18397_770]
.LVL515:
.L255:
.LBE2113:
.LBE2112:
.LBB2114:
.LBB2115:
	ldr	r0, [sp, #464]	@, %sfp
	add	r3, r0, #208	@ tmp3175,,
.LVL516:
	vst1.8	{d14-d15}, [r3]	@ tmp3152, MEM[(__builtin_neon_qi[16] *)D.18396_773]
.LVL517:
.L254:
.LBE2115:
.LBE2114:
.LBB2116:
.LBB2117:
	ldr	r1, [sp, #464]	@, %sfp
	add	ip, r1, #192	@ tmp3176,,
.LVL518:
	vst1.8	{d8-d9}, [ip]	@ tmp3151, MEM[(__builtin_neon_qi[16] *)D.18395_776]
.LVL519:
.L253:
.LBE2117:
.LBE2116:
.LBB2118:
.LBB2119:
	ldr	r2, [sp, #464]	@, %sfp
	add	r0, r2, #176	@ tmp3177,,
.LVL520:
	vst1.8	{d0-d1}, [r0]	@ tmp3141, MEM[(__builtin_neon_qi[16] *)D.18394_779]
.LVL521:
.L252:
.LBE2119:
.LBE2118:
.LBB2120:
.LBB2121:
	ldr	r3, [sp, #464]	@, %sfp
	add	r1, r3, #160	@ tmp3178,,
.LVL522:
	vst1.8	{d2-d3}, [r1]	@ tmp3140, MEM[(__builtin_neon_qi[16] *)D.18393_782]
.LVL523:
.L251:
.LBE2121:
.LBE2120:
.LBB2122:
.LBB2123:
	ldr	r2, [sp, #464]	@, %sfp
	add	ip, r2, #144	@ tmp3179,,
.LVL524:
	vst1.8	{d4-d5}, [ip]	@ tmp3130, MEM[(__builtin_neon_qi[16] *)D.18392_785]
.LVL525:
.L250:
.LBE2123:
.LBE2122:
.LBB2124:
.LBB2125:
	ldr	r0, [sp, #464]	@, %sfp
	add	r3, r0, #128	@ tmp3180,,
.LVL526:
	vst1.8	{d6-d7}, [r3]	@ tmp3129, MEM[(__builtin_neon_qi[16] *)D.18391_788]
.LVL527:
.L249:
.LBE2125:
.LBE2124:
.LBB2126:
.LBB2127:
	ldr	r1, [sp, #464]	@, %sfp
	add	r2, r1, #112	@ tmp3181,,
.LVL528:
	vst1.8	{d30-d31}, [r2]	@ tmp3119, MEM[(__builtin_neon_qi[16] *)D.18390_791]
.LVL529:
.L248:
.LBE2127:
.LBE2126:
.LBB2128:
.LBB2129:
	ldr	r0, [sp, #464]	@, %sfp
	add	ip, r0, #96	@ tmp3182,,
.LVL530:
	vst1.8	{d28-d29}, [ip]	@ tmp3118, MEM[(__builtin_neon_qi[16] *)D.18389_794]
.LVL531:
.L247:
.LBE2129:
.LBE2128:
.LBB2130:
.LBB2131:
	ldr	r3, [sp, #464]	@, %sfp
	add	r1, r3, #80	@ tmp3183,,
.LVL532:
	vst1.8	{d26-d27}, [r1]	@ tmp3108, MEM[(__builtin_neon_qi[16] *)D.18388_797]
.LVL533:
.L246:
.LBE2131:
.LBE2130:
.LBB2132:
.LBB2133:
	ldr	r2, [sp, #464]	@, %sfp
	add	r0, r2, #64	@ tmp3184,,
.LVL534:
	vst1.8	{d24-d25}, [r0]	@ tmp3107, MEM[(__builtin_neon_qi[16] *)D.18387_800]
.LVL535:
.L245:
.LBE2133:
.LBE2132:
.LBB2134:
.LBB2135:
	ldr	r3, [sp, #464]	@, %sfp
	add	ip, r3, #48	@ tmp3185,,
.LVL536:
	vst1.8	{d22-d23}, [ip]	@ tmp3097, MEM[(__builtin_neon_qi[16] *)D.18386_803]
.LVL537:
.L244:
.LBE2135:
.LBE2134:
.LBB2136:
.LBB2137:
	ldr	r1, [sp, #464]	@, %sfp
	add	r2, r1, #32	@ tmp3186,,
.LVL538:
	vst1.8	{d20-d21}, [r2]	@ tmp3096, MEM[(__builtin_neon_qi[16] *)D.18385_806]
.LVL539:
.L243:
.LBE2137:
.LBE2136:
.LBB2138:
.LBB2139:
	ldr	r0, [sp, #464]	@, %sfp
	add	r3, r0, #16	@ tmp3187,,
.LVL540:
	vst1.8	{d18-d19}, [r3]	@ tmp3086, MEM[(__builtin_neon_qi[16] *)D.18384_809]
.LVL541:
.L242:
.LBE2139:
.LBE2138:
.LBB2140:
.LBB2141:
	ldr	r1, [sp, #464]	@, %sfp
	vst1.8	{d16-d17}, [r1]	@ tmp3085, MEM[(__builtin_neon_qi[16] *)out_5(D)]
.LVL542:
.L241:
.LBE2141:
.LBE2140:
	.loc 1 92 0
	ldr	r2, [sp, #864]	@, ck_w
	cbz	r2, .L205	@,
	.loc 1 93 0
	ldr	r0, [sp, #868]	@ n_w, n_w
	subs	r3, r0, #1	@ tmp3188, n_w,
	cmp	r3, #15	@ tmp3188,
	bhi	.L205	@
	tbh	[pc, r3, lsl #1]	@ tmp3188
.L276:
	.2byte	(.L260-.L276)/2
	.2byte	(.L261-.L276)/2
	.2byte	(.L262-.L276)/2
	.2byte	(.L263-.L276)/2
	.2byte	(.L264-.L276)/2
	.2byte	(.L265-.L276)/2
	.2byte	(.L266-.L276)/2
	.2byte	(.L267-.L276)/2
	.2byte	(.L268-.L276)/2
	.2byte	(.L269-.L276)/2
	.2byte	(.L270-.L276)/2
	.2byte	(.L271-.L276)/2
	.2byte	(.L272-.L276)/2
	.2byte	(.L273-.L276)/2
	.2byte	(.L274-.L276)/2
	.2byte	(.L275-.L276)/2
.L268:
	ldr	r3, [sp, #864]	@, ck_w
	vldmia	r3, {d4-d5}	@ *ck_w_7(D), prephitmp.1124
.LVL543:
.L283:
	.loc 1 109 0
	veor	q3, q2, q3	@ prephitmp.1124, prephitmp.1124, tmp3129
.LVL544:
.L284:
	.loc 1 111 0
	veor	q15, q3, q15	@ prephitmp.1124, prephitmp.1124, tmp3119
.LVL545:
.L285:
	.loc 1 113 0
	veor	q14, q15, q14	@ prephitmp.1124, prephitmp.1124, tmp3118
.LVL546:
.L286:
	.loc 1 115 0
	veor	q13, q14, q13	@ prephitmp.1124, prephitmp.1124, tmp3108
.LVL547:
.L287:
	.loc 1 117 0
	veor	q12, q13, q12	@ prephitmp.1124, prephitmp.1124, tmp3107
.LVL548:
.L288:
	.loc 1 119 0
	veor	q11, q12, q11	@ prephitmp.1124, prephitmp.1124, tmp3097
.LVL549:
.L289:
	.loc 1 121 0
	veor	q10, q11, q10	@ prephitmp.1124, prephitmp.1124, tmp3096
.LVL550:
.L290:
	ldr	r3, [sp, #864]	@, ck_w
	.loc 1 123 0
	veor	q9, q10, q9	@ prephitmp.1124, prephitmp.1124, tmp3086
.LVL551:
.L291:
	.loc 1 125 0
	veor	q8, q9, q8	@ tmp3190, prephitmp.1124, tmp3085
.LVL552:
	vstmia	r3, {d16-d17}	@ *ck_w_7(D), tmp3190
.L205:
.LBE1971:
.LBE1970:
	.loc 1 287 0
	add	sp, sp, #760	@,,
	fldmfdd	sp!, {d8, d9, d10, d11, d12, d13, d14, d15}
	pop	{r4, r5, r6, r7, r8, r9, sl, fp}
	bx	lr
.LVL553:
.L292:
.LBB2144:
.LBB1967:
	.loc 3 121 0
	mov	r6, #544	@,
	mov	r2, #512	@,
	mov	r7, #560	@,
	mov	r5, #576	@,
	mov	r0, #592	@,
	str	r6, [sp, #456]	@, %sfp
	mov	r3, #608	@,
	mov	r6, #624	@,
	str	r2, [sp, #460]	@, %sfp
	mov	fp, #528	@ prephitmp.1116,
	str	r7, [sp, #452]	@, %sfp
	movs	r2, #32	@ t,
	mov	r7, #688	@ prephitmp.1076,
	str	r5, [sp, #444]	@, %sfp
	mov	ip, #704	@ prephitmp.1072,
	mov	r5, #656	@ prephitmp.1084,
	str	r0, [sp, #440]	@, %sfp
	mov	r8, #720	@ prephitmp.1068,
	mov	r0, #640	@ prephitmp.1088,
	str	r6, [sp, #4]	@, %sfp
	mov	r9, #736	@ prephitmp.1064,
	mov	r6, #672	@ prephitmp.1080,
	str	r3, [sp, #448]	@, %sfp
	mov	sl, #752	@ prephitmp.1060,
	b	.L239	@
.LVL554:
.L269:
	ldr	r0, [sp, #864]	@, ck_w
	vldmia	r0, {d2-d3}	@ *ck_w_7(D), prephitmp.1124
.LVL555:
.L282:
.LBE1967:
.LBE2144:
.LBB2145:
.LBB2142:
	.loc 1 107 0
	veor	q2, q1, q2	@ prephitmp.1124, prephitmp.1124, tmp3130
.LVL556:
	b	.L283	@
.LVL557:
.L222:
.LBE2142:
.LBE2145:
.LBB2146:
.LBB1769:
	.loc 1 161 0
	vldmia	r3, {d16-d17}	@ *ck_r_2(D), *ck_r_2(D)
	veor	q4, q9, q8	@ prephitmp.1124, D.17769, *ck_r_2(D)
	b	.L224	@
.L217:
	vldmia	r3, {d8-d9}	@ *ck_r_2(D), prephitmp.1124
	b	.L228	@
.L218:
	vldmia	r3, {d16-d17}	@ *ck_r_2(D), prephitmp.1124
	b	.L227	@
.L219:
	vldmia	r3, {d8-d9}	@ *ck_r_2(D), prephitmp.1124
	b	.L226	@
.L220:
	vldmia	r3, {d16-d17}	@ *ck_r_2(D), prephitmp.1124
	b	.L225	@
.LVL558:
.L262:
	ldr	r2, [sp, #864]	@, ck_w
	vldmia	r2, {d22-d23}	@ *ck_w_7(D), prephitmp.1124
.LVL559:
	b	.L289	@
.LVL560:
.L263:
	ldr	r1, [sp, #864]	@, ck_w
	vldmia	r1, {d24-d25}	@ *ck_w_7(D), prephitmp.1124
.LVL561:
	b	.L288	@
.LVL562:
.L264:
	ldr	r3, [sp, #864]	@, ck_w
	vldmia	r3, {d26-d27}	@ *ck_w_7(D), prephitmp.1124
.LVL563:
	b	.L287	@
.LVL564:
.L265:
	ldr	r0, [sp, #864]	@, ck_w
	vldmia	r0, {d28-d29}	@ *ck_w_7(D), prephitmp.1124
.LVL565:
	b	.L286	@
.LVL566:
.L266:
	ldr	r2, [sp, #864]	@, ck_w
	vldmia	r2, {d30-d31}	@ *ck_w_7(D), prephitmp.1124
.LVL567:
	b	.L285	@
.LVL568:
.L267:
	ldr	r1, [sp, #864]	@, ck_w
	vldmia	r1, {d6-d7}	@ *ck_w_7(D), prephitmp.1124
.LVL569:
	b	.L284	@
.LVL570:
.L215:
	vldmia	r3, {d8-d9}	@ *ck_r_2(D), prephitmp.1124
	b	.L230	@
.L216:
	vldmia	r3, {d16-d17}	@ *ck_r_2(D), prephitmp.1124
	b	.L229	@
.LVL571:
.L270:
	ldr	r2, [sp, #864]	@, ck_w
	vldmia	r2, {d0-d1}	@ *ck_w_7(D), prephitmp.1124
.LVL572:
.L281:
.LBE1769:
.LBE2146:
.LBB2147:
.LBB2143:
	.loc 1 105 0
	veor	q1, q0, q1	@ prephitmp.1124, prephitmp.1124, tmp3140
.LVL573:
	b	.L282	@
.LVL574:
.L271:
	ldr	r1, [sp, #864]	@, ck_w
	vldmia	r1, {d8-d9}	@ *ck_w_7(D), prephitmp.1124
.LVL575:
.L280:
	.loc 1 103 0
	veor	q0, q4, q0	@ prephitmp.1124, prephitmp.1124, tmp3141
.LVL576:
	b	.L281	@
.LVL577:
.L272:
	ldr	r3, [sp, #864]	@, ck_w
	vldmia	r3, {d14-d15}	@ *ck_w_7(D), prephitmp.1124
.LVL578:
.L279:
	.loc 1 101 0
	veor	q4, q7, q4	@ prephitmp.1124, prephitmp.1124, tmp3151
.LVL579:
	b	.L280	@
.LVL580:
.L273:
	ldr	r0, [sp, #864]	@, ck_w
	vldmia	r0, {d12-d13}	@ *ck_w_7(D), prephitmp.1124
.LVL581:
.L278:
	.loc 1 99 0
	veor	q7, q6, q7	@ prephitmp.1124, prephitmp.1124, tmp3152
.LVL582:
	b	.L279	@
.LVL583:
.L274:
	ldr	r2, [sp, #864]	@, ck_w
	vldmia	r2, {d12-d13}	@ *ck_w_7(D), prephitmp.1124
.LVL584:
.L277:
	.loc 1 97 0
	vldr	d10, [sp, #24]	@, %sfp
	vldr	d11, [sp, #32]	@, %sfp
	veor	q6, q6, q5	@ prephitmp.1124, prephitmp.1124,
	b	.L278	@
.LVL585:
.L275:
	.loc 1 95 0
	ldr	r1, [sp, #864]	@, ck_w
	vldmia	r1, {d10-d11}	@ *ck_w_7(D),
	veor	q6, q6, q5	@ prephitmp.1124, tmp3163,
.LVL586:
	b	.L277	@
.LVL587:
.L207:
	vldmia	r3, {d8-d9}	@ *ck_r_2(D),
	vstr	d8, [sp, #24]	@, %sfp
	vstr	d9, [sp, #32]	@, %sfp
	vmov	q8, q4  @ v16qi	@,
	b	.L238	@
.L208:
	vldmia	r3, {d16-d17}	@ *ck_r_2(D), prephitmp.1124
	b	.L237	@
.L209:
	vldmia	r3, {d8-d9}	@ *ck_r_2(D), prephitmp.1124
	b	.L236	@
.L210:
	vldmia	r3, {d16-d17}	@ *ck_r_2(D), prephitmp.1124
	b	.L235	@
.L211:
	vldmia	r3, {d8-d9}	@ *ck_r_2(D), prephitmp.1124
	b	.L234	@
.L212:
	vldmia	r3, {d16-d17}	@ *ck_r_2(D), prephitmp.1124
	b	.L233	@
.L213:
	vldmia	r3, {d8-d9}	@ *ck_r_2(D), prephitmp.1124
	b	.L232	@
.L214:
	vldmia	r3, {d8-d9}	@ *ck_r_2(D), prephitmp.1124
	b	.L231	@
.LVL588:
.L260:
	ldr	r1, [sp, #864]	@, ck_w
	vldmia	r1, {d18-d19}	@ *ck_w_7(D), prephitmp.1124
.LVL589:
	mov	r3, r1	@,
	b	.L291	@
.LVL590:
.L261:
	ldr	r0, [sp, #864]	@, ck_w
	vldmia	r0, {d20-d21}	@ *ck_w_7(D), prephitmp.1124
.LVL591:
	b	.L290	@
.LBE2143:
.LBE2147:
	.cfi_endproc
.LFE1889:
	.size	decrypt_bloc128, .-decrypt_bloc128
	.align	2
	.global	tweak_expand
	.thumb
	.thumb_func
	.type	tweak_expand, %function
tweak_expand:
.LFB1894:
	.loc 3 373 0
	.cfi_startproc
	@ args = 0, pretend = 0, frame = 0
	@ frame_needed = 0, uses_anonymous_args = 0
	@ link register save eliminated.
.LVL592:
	push	{r4, r5}	@
.LCFI12:
	.cfi_def_cfa_offset 8
	.cfi_offset 4, -8
	.cfi_offset 5, -4
	mov	r3, r2	@ ivtmp.1218, T3
	.loc 3 377 0
	vldmia	r0, {d16-d17}	@ *T_11(D),
	vstmia	r2, {d16-d17}	@ *T3_7(D),
.LVL593:
	vldr	d18, [r0, #16]	@, MEM[(v16qu *)T_11(D) + 16B]
	vldr	d19, [r0, #24]	@, MEM[(v16qu *)T_11(D) + 16B]
	vstr	d18, [r2, #16]	@, MEM[(v16qu *)T3_7(D) + 16B]
	vstr	d19, [r2, #24]	@, MEM[(v16qu *)T3_7(D) + 16B]
.LVL594:
	vldr	d20, [r0, #32]	@, MEM[(v16qu *)T_11(D) + 32B]
	vldr	d21, [r0, #40]	@, MEM[(v16qu *)T_11(D) + 32B]
	vstr	d20, [r2, #32]	@, MEM[(v16qu *)T3_7(D) + 32B]
	vstr	d21, [r2, #40]	@, MEM[(v16qu *)T3_7(D) + 32B]
.LVL595:
	vldr	d0, [r0, #48]	@, MEM[(v16qu *)T_11(D) + 48B]
	vldr	d1, [r0, #56]	@, MEM[(v16qu *)T_11(D) + 48B]
	vstr	d0, [r2, #48]	@, MEM[(v16qu *)T3_7(D) + 48B]
	vstr	d1, [r2, #56]	@, MEM[(v16qu *)T3_7(D) + 48B]
.LVL596:
	vldr	d2, [r0, #64]	@, MEM[(v16qu *)T_11(D) + 64B]
	vldr	d3, [r0, #72]	@, MEM[(v16qu *)T_11(D) + 64B]
	vstr	d2, [r2, #64]	@, MEM[(v16qu *)T3_7(D) + 64B]
	vstr	d3, [r2, #72]	@, MEM[(v16qu *)T3_7(D) + 64B]
.LVL597:
	vldr	d4, [r0, #80]	@, MEM[(v16qu *)T_11(D) + 80B]
	vldr	d5, [r0, #88]	@, MEM[(v16qu *)T_11(D) + 80B]
	vstr	d4, [r2, #80]	@, MEM[(v16qu *)T3_7(D) + 80B]
	vstr	d5, [r2, #88]	@, MEM[(v16qu *)T3_7(D) + 80B]
.LVL598:
	vldr	d6, [r0, #96]	@, MEM[(v16qu *)T_11(D) + 96B]
	vldr	d7, [r0, #104]	@, MEM[(v16qu *)T_11(D) + 96B]
	vstr	d6, [r2, #96]	@, MEM[(v16qu *)T3_7(D) + 96B]
	vstr	d7, [r2, #104]	@, MEM[(v16qu *)T3_7(D) + 96B]
.LVL599:
	vldr	d22, [r0, #112]	@, MEM[(v16qu *)T_11(D) + 112B]
	vldr	d23, [r0, #120]	@, MEM[(v16qu *)T_11(D) + 112B]
	vstr	d22, [r2, #112]	@, MEM[(v16qu *)T3_7(D) + 112B]
	vstr	d23, [r2, #120]	@, MEM[(v16qu *)T3_7(D) + 112B]
.LVL600:
	vldr	d24, [r0, #128]	@, MEM[(v16qu *)T_11(D) + 128B]
	vldr	d25, [r0, #136]	@, MEM[(v16qu *)T_11(D) + 128B]
	vstr	d24, [r2, #128]	@, MEM[(v16qu *)T3_7(D) + 128B]
	vstr	d25, [r2, #136]	@, MEM[(v16qu *)T3_7(D) + 128B]
.LVL601:
	vldr	d26, [r0, #144]	@, MEM[(v16qu *)T_11(D) + 144B]
	vldr	d27, [r0, #152]	@, MEM[(v16qu *)T_11(D) + 144B]
	vstr	d26, [r2, #144]	@, MEM[(v16qu *)T3_7(D) + 144B]
	vstr	d27, [r2, #152]	@, MEM[(v16qu *)T3_7(D) + 144B]
.LVL602:
	vldr	d28, [r0, #160]	@, MEM[(v16qu *)T_11(D) + 160B]
	vldr	d29, [r0, #168]	@, MEM[(v16qu *)T_11(D) + 160B]
	vstr	d28, [r2, #160]	@, MEM[(v16qu *)T3_7(D) + 160B]
	vstr	d29, [r2, #168]	@, MEM[(v16qu *)T3_7(D) + 160B]
.LVL603:
	vldr	d30, [r0, #176]	@, MEM[(v16qu *)T_11(D) + 176B]
	vldr	d31, [r0, #184]	@, MEM[(v16qu *)T_11(D) + 176B]
	vstr	d30, [r2, #176]	@, MEM[(v16qu *)T3_7(D) + 176B]
	vstr	d31, [r2, #184]	@, MEM[(v16qu *)T3_7(D) + 176B]
.LVL604:
	vldr	d16, [r0, #192]	@, MEM[(v16qu *)T_11(D) + 192B]
	vldr	d17, [r0, #200]	@, MEM[(v16qu *)T_11(D) + 192B]
	vstr	d16, [r2, #192]	@, MEM[(v16qu *)T3_7(D) + 192B]
	vstr	d17, [r2, #200]	@, MEM[(v16qu *)T3_7(D) + 192B]
.LVL605:
	vldr	d18, [r0, #208]	@, MEM[(v16qu *)T_11(D) + 208B]
	vldr	d19, [r0, #216]	@, MEM[(v16qu *)T_11(D) + 208B]
	vstr	d18, [r2, #208]	@, MEM[(v16qu *)T3_7(D) + 208B]
	vstr	d19, [r2, #216]	@, MEM[(v16qu *)T3_7(D) + 208B]
.LVL606:
	vldr	d20, [r0, #224]	@, MEM[(v16qu *)T_11(D) + 224B]
	vldr	d21, [r0, #232]	@, MEM[(v16qu *)T_11(D) + 224B]
	vstr	d20, [r2, #224]	@, MEM[(v16qu *)T3_7(D) + 224B]
	vstr	d21, [r2, #232]	@, MEM[(v16qu *)T3_7(D) + 224B]
.LVL607:
	vldr	d0, [r0, #240]	@, MEM[(v16qu *)T_11(D) + 240B]
	vldr	d1, [r0, #248]	@, MEM[(v16qu *)T_11(D) + 240B]
	vstr	d0, [r2, #240]	@, MEM[(v16qu *)T3_7(D) + 240B]
	vstr	d1, [r2, #248]	@, MEM[(v16qu *)T3_7(D) + 240B]
.LVL608:
	.loc 3 380 0
	vldr	d2, [r0, #64]	@, MEM[(v16qu *)T_11(D) + 64B]
	vldr	d3, [r0, #72]	@, MEM[(v16qu *)T_11(D) + 64B]
	vldmia	r0, {d4-d5}	@ *T_11(D),
	veor	q3, q1, q2	@ tmp311,,
	vstr	d6, [r2, #256]	@, MEM[(v16qu *)T3_7(D) + 256B]
	vstr	d7, [r2, #264]	@, MEM[(v16qu *)T3_7(D) + 256B]
	.loc 3 381 0
	vldmia	r0, {d22-d23}	@ *T_11(D),
	vstr	d22, [r2, #320]	@, MEM[(v16qu *)T3_7(D) + 320B]
	vstr	d23, [r2, #328]	@, MEM[(v16qu *)T3_7(D) + 320B]
	.loc 3 382 0
	vldr	d24, [r0, #64]	@, MEM[(v16qu *)T_11(D) + 64B]
	vldr	d25, [r0, #72]	@, MEM[(v16qu *)T_11(D) + 64B]
	vstr	d24, [r2, #512]	@, MEM[(v16qu *)T3_7(D) + 512B]
	vstr	d25, [r2, #520]	@, MEM[(v16qu *)T3_7(D) + 512B]
	.loc 3 383 0
	vldr	d26, [r0, #64]	@, MEM[(v16qu *)T_11(D) + 64B]
	vldr	d27, [r0, #72]	@, MEM[(v16qu *)T_11(D) + 64B]
	vldmia	r0, {d28-d29}	@ *T_11(D),
	veor	q15, q13, q14	@ tmp314,,
	vstr	d30, [r2, #576]	@, MEM[(v16qu *)T3_7(D) + 576B]
	vstr	d31, [r2, #584]	@, MEM[(v16qu *)T3_7(D) + 576B]
.LVL609:
	.loc 3 380 0
	vldr	d16, [r0, #192]	@, MEM[(v16qu *)T_11(D) + 192B]
	vldr	d17, [r0, #200]	@, MEM[(v16qu *)T_11(D) + 192B]
	vldr	d18, [r0, #128]	@, MEM[(v16qu *)T_11(D) + 128B]
	vldr	d19, [r0, #136]	@, MEM[(v16qu *)T_11(D) + 128B]
	veor	q10, q8, q9	@ tmp317,,
	vstr	d20, [r2, #384]	@, MEM[(v16qu *)T3_7(D) + 384B]
	vstr	d21, [r2, #392]	@, MEM[(v16qu *)T3_7(D) + 384B]
	.loc 3 381 0
	vldr	d0, [r0, #128]	@, MEM[(v16qu *)T_11(D) + 128B]
	vldr	d1, [r0, #136]	@, MEM[(v16qu *)T_11(D) + 128B]
	vstr	d0, [r2, #448]	@, MEM[(v16qu *)T3_7(D) + 448B]
	vstr	d1, [r2, #456]	@, MEM[(v16qu *)T3_7(D) + 448B]
	.loc 3 382 0
	vldr	d2, [r0, #192]	@, MEM[(v16qu *)T_11(D) + 192B]
	vldr	d3, [r0, #200]	@, MEM[(v16qu *)T_11(D) + 192B]
	vstr	d2, [r2, #640]	@, MEM[(v16qu *)T3_7(D) + 640B]
	vstr	d3, [r2, #648]	@, MEM[(v16qu *)T3_7(D) + 640B]
	.loc 3 383 0
	vldr	d4, [r0, #192]	@, MEM[(v16qu *)T_11(D) + 192B]
	vldr	d5, [r0, #200]	@, MEM[(v16qu *)T_11(D) + 192B]
	vldr	d6, [r0, #128]	@, MEM[(v16qu *)T_11(D) + 128B]
	vldr	d7, [r0, #136]	@, MEM[(v16qu *)T_11(D) + 128B]
	veor	q11, q2, q3	@ tmp320,,
	vstr	d22, [r2, #704]	@, MEM[(v16qu *)T3_7(D) + 704B]
	vstr	d23, [r2, #712]	@, MEM[(v16qu *)T3_7(D) + 704B]
.LVL610:
	.loc 3 380 0
	vldr	d24, [r0, #80]	@, MEM[(v16qu *)T_11(D) + 80B]
	vldr	d25, [r0, #88]	@, MEM[(v16qu *)T_11(D) + 80B]
	vldr	d26, [r0, #16]	@, MEM[(v16qu *)T_11(D) + 16B]
	vldr	d27, [r0, #24]	@, MEM[(v16qu *)T_11(D) + 16B]
	veor	q14, q12, q13	@ tmp323,,
	vstr	d28, [r2, #272]	@, MEM[(v16qu *)T3_7(D) + 272B]
	vstr	d29, [r2, #280]	@, MEM[(v16qu *)T3_7(D) + 272B]
	.loc 3 381 0
	vldr	d30, [r0, #16]	@, MEM[(v16qu *)T_11(D) + 16B]
	vldr	d31, [r0, #24]	@, MEM[(v16qu *)T_11(D) + 16B]
	vstr	d30, [r2, #336]	@, MEM[(v16qu *)T3_7(D) + 336B]
	vstr	d31, [r2, #344]	@, MEM[(v16qu *)T3_7(D) + 336B]
	.loc 3 382 0
	vldr	d16, [r0, #80]	@, MEM[(v16qu *)T_11(D) + 80B]
	vldr	d17, [r0, #88]	@, MEM[(v16qu *)T_11(D) + 80B]
	vstr	d16, [r2, #528]	@, MEM[(v16qu *)T3_7(D) + 528B]
	vstr	d17, [r2, #536]	@, MEM[(v16qu *)T3_7(D) + 528B]
	.loc 3 383 0
	vldr	d20, [r0, #80]	@, MEM[(v16qu *)T_11(D) + 80B]
	vldr	d21, [r0, #88]	@, MEM[(v16qu *)T_11(D) + 80B]
	vldr	d18, [r0, #16]	@, MEM[(v16qu *)T_11(D) + 16B]
	vldr	d19, [r0, #24]	@, MEM[(v16qu *)T_11(D) + 16B]
	veor	q0, q10, q9	@ tmp326,,
	vstr	d0, [r2, #592]	@, MEM[(v16qu *)T3_7(D) + 592B]
	vstr	d1, [r2, #600]	@, MEM[(v16qu *)T3_7(D) + 592B]
.LVL611:
	.loc 3 380 0
	vldr	d2, [r0, #208]	@, MEM[(v16qu *)T_11(D) + 208B]
	vldr	d3, [r0, #216]	@, MEM[(v16qu *)T_11(D) + 208B]
	vldr	d4, [r0, #144]	@, MEM[(v16qu *)T_11(D) + 144B]
	vldr	d5, [r0, #152]	@, MEM[(v16qu *)T_11(D) + 144B]
	veor	q3, q1, q2	@ tmp329,,
	vstr	d6, [r2, #400]	@, MEM[(v16qu *)T3_7(D) + 400B]
	vstr	d7, [r2, #408]	@, MEM[(v16qu *)T3_7(D) + 400B]
	.loc 3 381 0
	vldr	d22, [r0, #144]	@, MEM[(v16qu *)T_11(D) + 144B]
	vldr	d23, [r0, #152]	@, MEM[(v16qu *)T_11(D) + 144B]
	vstr	d22, [r2, #464]	@, MEM[(v16qu *)T3_7(D) + 464B]
	vstr	d23, [r2, #472]	@, MEM[(v16qu *)T3_7(D) + 464B]
	.loc 3 382 0
	vldr	d24, [r0, #208]	@, MEM[(v16qu *)T_11(D) + 208B]
	vldr	d25, [r0, #216]	@, MEM[(v16qu *)T_11(D) + 208B]
	vstr	d24, [r2, #656]	@, MEM[(v16qu *)T3_7(D) + 656B]
	vstr	d25, [r2, #664]	@, MEM[(v16qu *)T3_7(D) + 656B]
	.loc 3 383 0
	vldr	d26, [r0, #208]	@, MEM[(v16qu *)T_11(D) + 208B]
	vldr	d27, [r0, #216]	@, MEM[(v16qu *)T_11(D) + 208B]
	vldr	d28, [r0, #144]	@, MEM[(v16qu *)T_11(D) + 144B]
	vldr	d29, [r0, #152]	@, MEM[(v16qu *)T_11(D) + 144B]
	veor	q15, q13, q14	@ tmp332,,
	vstr	d30, [r2, #720]	@, MEM[(v16qu *)T3_7(D) + 720B]
	vstr	d31, [r2, #728]	@, MEM[(v16qu *)T3_7(D) + 720B]
.LVL612:
	.loc 3 380 0
	vldr	d16, [r0, #96]	@, MEM[(v16qu *)T_11(D) + 96B]
	vldr	d17, [r0, #104]	@, MEM[(v16qu *)T_11(D) + 96B]
	vldr	d20, [r0, #32]	@, MEM[(v16qu *)T_11(D) + 32B]
	vldr	d21, [r0, #40]	@, MEM[(v16qu *)T_11(D) + 32B]
	veor	q9, q8, q10	@ tmp335,,
	vstr	d18, [r2, #288]	@, MEM[(v16qu *)T3_7(D) + 288B]
	vstr	d19, [r2, #296]	@, MEM[(v16qu *)T3_7(D) + 288B]
	.loc 3 381 0
	vldr	d0, [r0, #32]	@, MEM[(v16qu *)T_11(D) + 32B]
	vldr	d1, [r0, #40]	@, MEM[(v16qu *)T_11(D) + 32B]
	vstr	d0, [r2, #352]	@, MEM[(v16qu *)T3_7(D) + 352B]
	vstr	d1, [r2, #360]	@, MEM[(v16qu *)T3_7(D) + 352B]
	.loc 3 382 0
	vldr	d2, [r0, #96]	@, MEM[(v16qu *)T_11(D) + 96B]
	vldr	d3, [r0, #104]	@, MEM[(v16qu *)T_11(D) + 96B]
	vstr	d2, [r2, #544]	@, MEM[(v16qu *)T3_7(D) + 544B]
	vstr	d3, [r2, #552]	@, MEM[(v16qu *)T3_7(D) + 544B]
	.loc 3 383 0
	vldr	d4, [r0, #96]	@, MEM[(v16qu *)T_11(D) + 96B]
	vldr	d5, [r0, #104]	@, MEM[(v16qu *)T_11(D) + 96B]
	vldr	d6, [r0, #32]	@, MEM[(v16qu *)T_11(D) + 32B]
	vldr	d7, [r0, #40]	@, MEM[(v16qu *)T_11(D) + 32B]
	veor	q11, q2, q3	@ tmp338,,
	vstr	d22, [r2, #608]	@, MEM[(v16qu *)T3_7(D) + 608B]
	vstr	d23, [r2, #616]	@, MEM[(v16qu *)T3_7(D) + 608B]
.LVL613:
	.loc 3 380 0
	vldr	d24, [r0, #224]	@, MEM[(v16qu *)T_11(D) + 224B]
	vldr	d25, [r0, #232]	@, MEM[(v16qu *)T_11(D) + 224B]
	vldr	d26, [r0, #160]	@, MEM[(v16qu *)T_11(D) + 160B]
	vldr	d27, [r0, #168]	@, MEM[(v16qu *)T_11(D) + 160B]
	veor	q14, q12, q13	@ tmp341,,
	vstr	d28, [r2, #416]	@, MEM[(v16qu *)T3_7(D) + 416B]
	vstr	d29, [r2, #424]	@, MEM[(v16qu *)T3_7(D) + 416B]
	.loc 3 381 0
	vldr	d30, [r0, #160]	@, MEM[(v16qu *)T_11(D) + 160B]
	vldr	d31, [r0, #168]	@, MEM[(v16qu *)T_11(D) + 160B]
	vstr	d30, [r2, #480]	@, MEM[(v16qu *)T3_7(D) + 480B]
	vstr	d31, [r2, #488]	@, MEM[(v16qu *)T3_7(D) + 480B]
	.loc 3 382 0
	vldr	d16, [r0, #224]	@, MEM[(v16qu *)T_11(D) + 224B]
	vldr	d17, [r0, #232]	@, MEM[(v16qu *)T_11(D) + 224B]
	vstr	d16, [r2, #672]	@, MEM[(v16qu *)T3_7(D) + 672B]
	vstr	d17, [r2, #680]	@, MEM[(v16qu *)T3_7(D) + 672B]
	.loc 3 383 0
	vldr	d18, [r0, #224]	@, MEM[(v16qu *)T_11(D) + 224B]
	vldr	d19, [r0, #232]	@, MEM[(v16qu *)T_11(D) + 224B]
	vldr	d20, [r0, #160]	@, MEM[(v16qu *)T_11(D) + 160B]
	vldr	d21, [r0, #168]	@, MEM[(v16qu *)T_11(D) + 160B]
	veor	q0, q9, q10	@ tmp344,,
	vstr	d0, [r2, #736]	@, MEM[(v16qu *)T3_7(D) + 736B]
	vstr	d1, [r2, #744]	@, MEM[(v16qu *)T3_7(D) + 736B]
.LVL614:
	.loc 3 380 0
	vldr	d2, [r0, #112]	@, MEM[(v16qu *)T_11(D) + 112B]
	vldr	d3, [r0, #120]	@, MEM[(v16qu *)T_11(D) + 112B]
	vldr	d4, [r0, #48]	@, MEM[(v16qu *)T_11(D) + 48B]
	vldr	d5, [r0, #56]	@, MEM[(v16qu *)T_11(D) + 48B]
	veor	q3, q1, q2	@ tmp347,,
	vstr	d6, [r2, #304]	@, MEM[(v16qu *)T3_7(D) + 304B]
	vstr	d7, [r2, #312]	@, MEM[(v16qu *)T3_7(D) + 304B]
	.loc 3 381 0
	vldr	d22, [r0, #48]	@, MEM[(v16qu *)T_11(D) + 48B]
	vldr	d23, [r0, #56]	@, MEM[(v16qu *)T_11(D) + 48B]
	vstr	d22, [r2, #368]	@, MEM[(v16qu *)T3_7(D) + 368B]
	vstr	d23, [r2, #376]	@, MEM[(v16qu *)T3_7(D) + 368B]
	.loc 3 382 0
	vldr	d24, [r0, #112]	@, MEM[(v16qu *)T_11(D) + 112B]
	vldr	d25, [r0, #120]	@, MEM[(v16qu *)T_11(D) + 112B]
	vstr	d24, [r2, #560]	@, MEM[(v16qu *)T3_7(D) + 560B]
	vstr	d25, [r2, #568]	@, MEM[(v16qu *)T3_7(D) + 560B]
	.loc 3 383 0
	vldr	d26, [r0, #112]	@, MEM[(v16qu *)T_11(D) + 112B]
	vldr	d27, [r0, #120]	@, MEM[(v16qu *)T_11(D) + 112B]
	vldr	d28, [r0, #48]	@, MEM[(v16qu *)T_11(D) + 48B]
	vldr	d29, [r0, #56]	@, MEM[(v16qu *)T_11(D) + 48B]
	veor	q15, q13, q14	@ tmp350,,
	vstr	d30, [r2, #624]	@, MEM[(v16qu *)T3_7(D) + 624B]
	vstr	d31, [r2, #632]	@, MEM[(v16qu *)T3_7(D) + 624B]
.LVL615:
	.loc 3 380 0
	vldr	d16, [r0, #240]	@, MEM[(v16qu *)T_11(D) + 240B]
	vldr	d17, [r0, #248]	@, MEM[(v16qu *)T_11(D) + 240B]
	vldr	d18, [r0, #176]	@, MEM[(v16qu *)T_11(D) + 176B]
	vldr	d19, [r0, #184]	@, MEM[(v16qu *)T_11(D) + 176B]
	veor	q10, q8, q9	@ tmp353,,
	vstr	d20, [r2, #432]	@, MEM[(v16qu *)T3_7(D) + 432B]
	vstr	d21, [r2, #440]	@, MEM[(v16qu *)T3_7(D) + 432B]
	.loc 3 381 0
	vldr	d0, [r0, #176]	@, MEM[(v16qu *)T_11(D) + 176B]
	vldr	d1, [r0, #184]	@, MEM[(v16qu *)T_11(D) + 176B]
	vstr	d0, [r2, #496]	@, MEM[(v16qu *)T3_7(D) + 496B]
	vstr	d1, [r2, #504]	@, MEM[(v16qu *)T3_7(D) + 496B]
	.loc 3 382 0
	vldr	d2, [r0, #240]	@, MEM[(v16qu *)T_11(D) + 240B]
	vldr	d3, [r0, #248]	@, MEM[(v16qu *)T_11(D) + 240B]
	vstr	d2, [r2, #688]	@, MEM[(v16qu *)T3_7(D) + 688B]
	vstr	d3, [r2, #696]	@, MEM[(v16qu *)T3_7(D) + 688B]
	.loc 3 383 0
	vldr	d4, [r0, #240]	@, MEM[(v16qu *)T_11(D) + 240B]
	vldr	d5, [r0, #248]	@, MEM[(v16qu *)T_11(D) + 240B]
	vldr	d6, [r0, #176]	@, MEM[(v16qu *)T_11(D) + 176B]
	vldr	d7, [r0, #184]	@, MEM[(v16qu *)T_11(D) + 176B]
	veor	q11, q2, q3	@ tmp356, MEM[(v16qu *)T_11(D) + 240B], MEM[(v16qu *)T_11(D) + 176B]
	vstr	d22, [r2, #752]	@, MEM[(v16qu *)T3_7(D) + 752B]
	vstr	d23, [r2, #760]	@, MEM[(v16qu *)T3_7(D) + 752B]
.LVL616:
	movs	r2, #0	@ i,
.LVL617:
.L315:
	.loc 3 387 0 discriminator 2
	and	r4, r2, #15	@ tmp359, i,
	mov	r0, r3	@ tmp364, ivtmp.1218
	vldmia	r3, {d26-d27}	@ MEM[base: D.19465_652, offset: 0B],
	add	r5, r1, r4, lsl #4	@, tmp361, K, tmp359,
	.loc 3 386 0 discriminator 2
	adds	r4, r2, #1	@ tmp365, i,
.LVL618:
	.loc 3 387 0 discriminator 2
	vldmia	r5, {d24-d25}	@ *D.15203_116, *D.15203_116
	and	ip, r4, #15	@ tmp371, tmp365,
	veor	q14, q12, q13	@ tmp362, *D.15203_116,
	vstmia	r0!, {d28-d29}	@ tmp364, tmp362
	.loc 3 386 0 discriminator 2
	adds	r4, r2, #2	@ i, i,
	.loc 3 387 0 discriminator 2
	vldr	d20, [r0, #16]	@, MEM[base: D.19465_652, offset: 0B]
	vldr	d21, [r0, #24]	@, MEM[base: D.19465_652, offset: 0B]
	vldr	d16, [r3, #16]	@, MEM[base: D.19465_652, offset: 0B]
	vldr	d17, [r3, #24]	@, MEM[base: D.19465_652, offset: 0B]
	add	r5, r1, ip, lsl #4	@, tmp373, K, tmp371,
	vldmia	r5, {d30-d31}	@ *D.15203_116, *D.15203_116
	veor	q9, q15, q8	@ tmp375, *D.15203_116,
	vstmia	r0, {d18-d19}	@ MEM[base: D.19466_608, offset: 4294967280B], tmp375
	and	r0, r4, #15	@ tmp379, i,
	vldr	d6, [r3, #48]	@, MEM[base: D.19465_652, offset: 0B]
	vldr	d7, [r3, #56]	@, MEM[base: D.19465_652, offset: 0B]
	add	r4, r1, r0, lsl #4	@, tmp381, K, tmp379,
	.loc 3 386 0 discriminator 2
	adds	r0, r2, #3	@ i, i,
	.loc 3 387 0 discriminator 2
	vldmia	r4, {d0-d1}	@ *D.15203_116, *D.15203_116
	and	ip, r0, #15	@ tmp387, i,
	veor	q1, q0, q10	@ tmp383, *D.15203_116, D.15199
	vstr	d2, [r3, #32]	@, MEM[base: D.19466_608, offset: 4294967280B]
	vstr	d3, [r3, #40]	@, MEM[base: D.19466_608, offset: 4294967280B]
	add	r0, r1, ip, lsl #4	@, tmp389, K, tmp387,
	vldmia	r0, {d4-d5}	@ *D.15203_116, *D.15203_116
	.loc 3 386 0 discriminator 2
	adds	r0, r2, #4	@ i, i,
	.loc 3 387 0 discriminator 2
	and	ip, r0, #15	@ tmp395, i,
	veor	q11, q2, q3	@ tmp391, *D.15203_116,
	vstr	d22, [r3, #48]	@, MEM[base: D.19466_608, offset: 4294967280B]
	vstr	d23, [r3, #56]	@, MEM[base: D.19466_608, offset: 4294967280B]
	add	r0, r1, ip, lsl #4	@, tmp397, K, tmp395,
	vldmia	r0, {d24-d25}	@ *D.15203_116, *D.15203_116
	.loc 3 386 0 discriminator 2
	adds	r0, r2, #5	@ i, i,
	.loc 3 387 0 discriminator 2
	and	ip, r0, #15	@ tmp403, i,
	vldr	d26, [r3, #64]	@, MEM[base: D.19465_652, offset: 0B]
	vldr	d27, [r3, #72]	@, MEM[base: D.19465_652, offset: 0B]
	veor	q14, q12, q13	@ tmp399, *D.15203_116,
	add	r0, r1, ip, lsl #4	@, tmp405, K, tmp403,
	vstr	d28, [r3, #64]	@, MEM[base: D.19466_608, offset: 4294967280B]
	vstr	d29, [r3, #72]	@, MEM[base: D.19466_608, offset: 4294967280B]
	vldmia	r0, {d30-d31}	@ *D.15203_116, *D.15203_116
	.loc 3 386 0 discriminator 2
	adds	r0, r2, #6	@ i, i,
	.loc 3 387 0 discriminator 2
	vldr	d16, [r3, #80]	@, MEM[base: D.19465_652, offset: 0B]
	vldr	d17, [r3, #88]	@, MEM[base: D.19465_652, offset: 0B]
	veor	q9, q15, q8	@ tmp407, *D.15203_116,
	and	ip, r0, #15	@ tmp411, i,
	vstr	d18, [r3, #80]	@, MEM[base: D.19466_608, offset: 4294967280B]
	vstr	d19, [r3, #88]	@, MEM[base: D.19466_608, offset: 4294967280B]
	vldr	d20, [r3, #96]	@, MEM[base: D.19465_652, offset: 0B]
	vldr	d21, [r3, #104]	@, MEM[base: D.19465_652, offset: 0B]
	add	r0, r1, ip, lsl #4	@, tmp413, K, tmp411,
	vldmia	r0, {d0-d1}	@ *D.15203_116, *D.15203_116
	.loc 3 386 0 discriminator 2
	adds	r0, r2, #7	@ i, i,
	adds	r2, r2, #8	@ i, i,
.LVL619:
	.loc 3 387 0 discriminator 2
	vldr	d4, [r3, #112]	@, MEM[base: D.19465_652, offset: 0B]
	vldr	d5, [r3, #120]	@, MEM[base: D.19465_652, offset: 0B]
	veor	q1, q0, q10	@ tmp415, *D.15203_116,
	vstr	d2, [r3, #96]	@, MEM[base: D.19466_608, offset: 4294967280B]
	vstr	d3, [r3, #104]	@, MEM[base: D.19466_608, offset: 4294967280B]
	adds	r3, r3, #128	@ ivtmp.1218, ivtmp.1218,
	.loc 3 386 0 discriminator 2
	cmp	r2, #48	@ i,
	.loc 3 387 0 discriminator 2
	and	ip, r0, #15	@ tmp418, i,
	add	r0, r1, ip, lsl #4	@, tmp420, K, tmp418,
	vldmia	r0, {d6-d7}	@ *D.15203_116, *D.15203_116
	veor	q11, q3, q2	@ tmp422, *D.15203_116, D.15199
	vstr	d22, [r3, #-16]	@, MEM[base: D.19466_608, offset: 4294967280B]
	vstr	d23, [r3, #-8]	@, MEM[base: D.19466_608, offset: 4294967280B]
	.loc 3 386 0 discriminator 2
	bne	.L315	@,
	.loc 3 388 0
	pop	{r4, r5}
	bx	lr
	.cfi_endproc
.LFE1894:
	.size	tweak_expand, .-tweak_expand
	.align	2
	.global	tweakey_schedule
	.thumb
	.thumb_func
	.type	tweakey_schedule, %function
tweakey_schedule:
.LFB1895:
	.loc 3 393 0
	.cfi_startproc
	@ args = 0, pretend = 0, frame = 0
	@ frame_needed = 0, uses_anonymous_args = 0
	@ link register save eliminated.
.LVL620:
	push	{r4, r5}	@
.LCFI13:
	.cfi_def_cfa_offset 8
	.cfi_offset 4, -8
	.cfi_offset 5, -4
	.loc 3 400 0
	ldrb	r4, [r0, #0]	@ zero_extendqisi2	@, *k_16(D)
	ldrb	r5, [r0, #1]	@ zero_extendqisi2	@, MEM[(const uint8_t *)k_16(D) + 1B]
	ldrb	ip, [r0, #2]	@ zero_extendqisi2	@, MEM[(const uint8_t *)k_16(D) + 2B]
	vdup.8	q8, r4	@ tmp227, D.15150
	ldrb	r4, [r0, #3]	@ zero_extendqisi2	@, MEM[(const uint8_t *)k_16(D) + 3B]
	vstr	d16, [r3, #768]	@, MEM[(v16qu *)TK_3(D) + 768B]
	vstr	d17, [r3, #776]	@, MEM[(v16qu *)TK_3(D) + 768B]
.LVL621:
	vdup.8	q0, r5	@ tmp229, D.15150
	ldrb	r5, [r0, #4]	@ zero_extendqisi2	@, MEM[(const uint8_t *)k_16(D) + 4B]
	vstr	d0, [r3, #896]	@, MEM[(v16qu *)TK_3(D) + 896B]
	vstr	d1, [r3, #904]	@, MEM[(v16qu *)TK_3(D) + 896B]
.LVL622:
	vdup.8	q1, ip	@ tmp231, D.15150
	ldrb	ip, [r0, #5]	@ zero_extendqisi2	@, MEM[(const uint8_t *)k_16(D) + 5B]
	vstr	d2, [r3, #784]	@, MEM[(v16qu *)TK_3(D) + 784B]
	vstr	d3, [r3, #792]	@, MEM[(v16qu *)TK_3(D) + 784B]
.LVL623:
	vdup.8	q2, r4	@ tmp233, D.15150
	ldrb	r4, [r0, #6]	@ zero_extendqisi2	@, MEM[(const uint8_t *)k_16(D) + 6B]
	vstr	d4, [r3, #912]	@, MEM[(v16qu *)TK_3(D) + 912B]
	vstr	d5, [r3, #920]	@, MEM[(v16qu *)TK_3(D) + 912B]
.LVL624:
	vdup.8	q3, r5	@ tmp235, D.15150
	ldrb	r5, [r0, #7]	@ zero_extendqisi2	@, MEM[(const uint8_t *)k_16(D) + 7B]
	vstr	d6, [r3, #800]	@, MEM[(v16qu *)TK_3(D) + 800B]
	vstr	d7, [r3, #808]	@, MEM[(v16qu *)TK_3(D) + 800B]
.LVL625:
	vdup.8	q9, ip	@ tmp237, D.15150
	ldrb	ip, [r0, #8]	@ zero_extendqisi2	@, MEM[(const uint8_t *)k_16(D) + 8B]
	vstr	d18, [r3, #928]	@, MEM[(v16qu *)TK_3(D) + 928B]
	vstr	d19, [r3, #936]	@, MEM[(v16qu *)TK_3(D) + 928B]
.LVL626:
	vdup.8	q10, r4	@ tmp239, D.15150
	ldrb	r4, [r0, #9]	@ zero_extendqisi2	@, MEM[(const uint8_t *)k_16(D) + 9B]
	vstr	d20, [r3, #816]	@, MEM[(v16qu *)TK_3(D) + 816B]
	vstr	d21, [r3, #824]	@, MEM[(v16qu *)TK_3(D) + 816B]
.LVL627:
	vdup.8	q11, r5	@ tmp241, D.15150
	ldrb	r5, [r0, #10]	@ zero_extendqisi2	@, MEM[(const uint8_t *)k_16(D) + 10B]
	vstr	d22, [r3, #944]	@, MEM[(v16qu *)TK_3(D) + 944B]
	vstr	d23, [r3, #952]	@, MEM[(v16qu *)TK_3(D) + 944B]
.LVL628:
	vdup.8	q12, ip	@ tmp243, D.15150
	ldrb	ip, [r0, #11]	@ zero_extendqisi2	@, MEM[(const uint8_t *)k_16(D) + 11B]
	vstr	d24, [r3, #832]	@, MEM[(v16qu *)TK_3(D) + 832B]
	vstr	d25, [r3, #840]	@, MEM[(v16qu *)TK_3(D) + 832B]
.LVL629:
	vdup.8	q13, r4	@ tmp245, D.15150
	ldrb	r4, [r0, #12]	@ zero_extendqisi2	@, MEM[(const uint8_t *)k_16(D) + 12B]
	vstr	d26, [r3, #960]	@, MEM[(v16qu *)TK_3(D) + 960B]
	vstr	d27, [r3, #968]	@, MEM[(v16qu *)TK_3(D) + 960B]
.LVL630:
	vdup.8	q14, r5	@ tmp247, D.15150
	ldrb	r5, [r0, #13]	@ zero_extendqisi2	@, MEM[(const uint8_t *)k_16(D) + 13B]
	vstr	d28, [r3, #848]	@, MEM[(v16qu *)TK_3(D) + 848B]
	vstr	d29, [r3, #856]	@, MEM[(v16qu *)TK_3(D) + 848B]
.LVL631:
	vdup.8	q15, ip	@ tmp249, D.15150
	ldrb	ip, [r0, #14]	@ zero_extendqisi2	@, MEM[(const uint8_t *)k_16(D) + 14B]
	vstr	d30, [r3, #976]	@, MEM[(v16qu *)TK_3(D) + 976B]
	vstr	d31, [r3, #984]	@, MEM[(v16qu *)TK_3(D) + 976B]
.LVL632:
	ldrb	r0, [r0, #15]	@ zero_extendqisi2	@, MEM[(const uint8_t *)k_16(D) + 15B]
.LVL633:
	vdup.8	q8, r4	@ tmp251, D.15150
	.loc 3 403 0
	ldrb	r4, [r1, #0]	@ zero_extendqisi2	@, *n_75(D)
	.loc 3 400 0
	vstr	d16, [r3, #864]	@, MEM[(v16qu *)TK_3(D) + 864B]
	vstr	d17, [r3, #872]	@, MEM[(v16qu *)TK_3(D) + 864B]
.LVL634:
	vdup.8	q0, r5	@ tmp253, D.15150
	vstr	d0, [r3, #992]	@, MEM[(v16qu *)TK_3(D) + 992B]
	vstr	d1, [r3, #1000]	@, MEM[(v16qu *)TK_3(D) + 992B]
.LVL635:
	vdup.8	q1, ip	@ tmp255, D.15150
	vstr	d2, [r3, #880]	@, MEM[(v16qu *)TK_3(D) + 880B]
	vstr	d3, [r3, #888]	@, MEM[(v16qu *)TK_3(D) + 880B]
.LVL636:
	.loc 3 403 0
	add	ip, r3, #1152	@ tmp264, TK,
	.loc 3 400 0
	vdup.8	q2, r0	@ tmp257, D.15150
	.loc 3 403 0
	add	r0, r3, #1024	@ tmp260, TK,
.LVL637:
	.loc 3 400 0
	vstr	d4, [r3, #1008]	@, MEM[(v16qu *)TK_3(D) + 1008B]
	vstr	d5, [r3, #1016]	@, MEM[(v16qu *)TK_3(D) + 1008B]
.LVL638:
	.loc 3 403 0
	vdup.8	q3, r4	@ tmp261, D.15154
	vstmia	r0, {d6-d7}	@ MEM[(v16qu *)TK_3(D) + 1024B], tmp261
.LVL639:
	ldrb	r5, [r1, #1]	@ zero_extendqisi2	@, MEM[(const uint8_t *)n_75(D) + 1B]
	add	r4, r3, #1040	@ tmp268, TK,
	.loc 3 406 0
	vdup.8	q2, r2	@ tmp305, ctrl
	.loc 3 407 0
	vldr	d6, .L325	@,
	vldr	d7, .L325+8	@,
	add	r2, r3, #1136	@ tmp308, TK,
.LVL640:
	.loc 3 403 0
	vdup.8	q9, r5	@ tmp265, D.15154
	ldrb	r5, [r1, #3]	@ zero_extendqisi2	@, MEM[(const uint8_t *)n_75(D) + 3B]
	vstmia	ip, {d18-d19}	@ MEM[(v16qu *)TK_3(D) + 1152B], tmp265
.LVL641:
	ldrb	ip, [r1, #2]	@ zero_extendqisi2	@, MEM[(const uint8_t *)n_75(D) + 2B]
	.loc 3 408 0
	vmov.i32	q9, #0  @ v16qi	@ tmp312,
	.loc 3 403 0
	vdup.8	q11, r5	@ tmp273, D.15154
	ldrb	r5, [r1, #5]	@ zero_extendqisi2	@, MEM[(const uint8_t *)n_75(D) + 5B]
	vdup.8	q10, ip	@ tmp269, D.15154
	vstmia	r4, {d20-d21}	@ MEM[(v16qu *)TK_3(D) + 1040B], tmp269
.LVL642:
	add	r4, r3, #1168	@ tmp272, TK,
	vstmia	r4, {d22-d23}	@ MEM[(v16qu *)TK_3(D) + 1168B], tmp273
.LVL643:
	ldrb	r4, [r1, #4]	@ zero_extendqisi2	@, MEM[(const uint8_t *)n_75(D) + 4B]
	add	ip, r3, #1056	@ tmp276, TK,
	vdup.8	q13, r5	@ tmp281, D.15154
	ldrb	r5, [r1, #7]	@ zero_extendqisi2	@, MEM[(const uint8_t *)n_75(D) + 7B]
	vdup.8	q12, r4	@ tmp277, D.15154
	vstmia	ip, {d24-d25}	@ MEM[(v16qu *)TK_3(D) + 1056B], tmp277
.LVL644:
	add	ip, r3, #1184	@ tmp280, TK,
	vstmia	ip, {d26-d27}	@ MEM[(v16qu *)TK_3(D) + 1184B], tmp281
.LVL645:
	ldrb	ip, [r1, #6]	@ zero_extendqisi2	@, MEM[(const uint8_t *)n_75(D) + 6B]
	add	r4, r3, #1072	@ tmp284, TK,
	vdup.8	q15, r5	@ tmp289, D.15154
	ldrb	r5, [r1, #9]	@ zero_extendqisi2	@, MEM[(const uint8_t *)n_75(D) + 9B]
	vdup.8	q14, ip	@ tmp285, D.15154
	vstmia	r4, {d28-d29}	@ MEM[(v16qu *)TK_3(D) + 1072B], tmp285
.LVL646:
	add	r4, r3, #1200	@ tmp288, TK,
	vstmia	r4, {d30-d31}	@ MEM[(v16qu *)TK_3(D) + 1200B], tmp289
.LVL647:
	ldrb	r4, [r1, #8]	@ zero_extendqisi2	@, MEM[(const uint8_t *)n_75(D) + 8B]
	add	ip, r3, #1088	@ tmp292, TK,
	ldrb	r1, [r1, #10]	@ zero_extendqisi2	@, MEM[(const uint8_t *)n_75(D) + 10B]
.LVL648:
	vdup.8	q0, r5	@ tmp297, D.15154
	vdup.8	q8, r4	@ tmp293, D.15154
	add	r4, r3, #1104	@ tmp300, TK,
	vstmia	ip, {d16-d17}	@ MEM[(v16qu *)TK_3(D) + 1088B], tmp293
.LVL649:
	vdup.8	q1, r1	@ tmp301, D.15154
	add	ip, r3, #1216	@ tmp296, TK,
	.loc 3 408 0
	add	r1, r3, #1248	@ tmp311, TK,
	.loc 3 403 0
	vstmia	ip, {d0-d1}	@ MEM[(v16qu *)TK_3(D) + 1216B], tmp297
.LVL650:
	vstmia	r4, {d2-d3}	@ MEM[(v16qu *)TK_3(D) + 1104B], tmp301
.LVL651:
	.loc 3 406 0
	add	ip, r3, #1264	@ tmp304, TK,
	vstmia	ip, {d4-d5}	@ MEM[(v16qu *)TK_3(D) + 1264B], tmp305
	.loc 3 407 0
	vstmia	r2, {d6-d7}	@ MEM[(v16qu *)TK_3(D) + 1136B], tmp309
	.loc 3 409 0
	add	ip, r3, #1120	@ tmp314, TK,
	.loc 3 408 0
	vstmia	r1, {d18-d19}	@ MEM[(v16qu *)TK_3(D) + 1248B], tmp312
	.loc 3 410 0
	add	r2, r3, #1232	@ tmp317, TK,
	.loc 3 409 0
	vstmia	ip, {d18-d19}	@ MEM[(v16qu *)TK_3(D) + 1120B], tmp312
	.loc 3 412 0
	add	r1, r3, #768	@, TK,
.LVL652:
	.loc 3 410 0
	vstmia	r2, {d18-d19}	@ MEM[(v16qu *)TK_3(D) + 1232B], tmp312
	.loc 3 412 0
	mov	r2, r3	@, TK
	.loc 3 413 0
	pop	{r4, r5}
	.loc 3 412 0
	b	tweak_expand	@
.LVL653:
.L326:
	.align	3
.L325:
	.byte	0
	.byte	1
	.byte	2
	.byte	3
	.byte	4
	.byte	5
	.byte	6
	.byte	7
	.byte	8
	.byte	9
	.byte	10
	.byte	11
	.byte	12
	.byte	13
	.byte	14
	.byte	15
	.cfi_endproc
.LFE1895:
	.size	tweakey_schedule, .-tweakey_schedule
	.align	2
	.global	tweakey_increment
	.thumb
	.thumb_func
	.type	tweakey_increment, %function
tweakey_increment:
.LFB1896:
	.loc 3 423 0
	.cfi_startproc
	@ args = 0, pretend = 0, frame = 0
	@ frame_needed = 0, uses_anonymous_args = 0
	@ link register save eliminated.
.LVL654:
	.loc 3 429 0
	add	r1, r1, #256	@ D.15077, idx,
.LVL655:
	.loc 3 427 0
	add	r3, r0, #1136	@ tmp181, TK,
	vmov.i8	q8, #16  @ v16qi	@ tmp183,
	vldmia	r3, {d18-d19}	@ MEM[(v16qu *)TK_1(D) + 1136B],
	vadd.i8	q0, q9, q8	@ D.15061,, tmp183
	vstmia	r3, {d0-d1}	@ MEM[(v16qu *)TK_1(D) + 1136B], D.15061
	.loc 3 429 0
	lsls	r3, r1, #20	@ tmp193, D.15077,
	.loc 3 428 0
	vldr	d2, [r0, #880]	@, MEM[(v16qu *)TK_1(D) + 880B]
	vldr	d3, [r0, #888]	@, MEM[(v16qu *)TK_1(D) + 880B]
	add	r2, r0, #1072	@ tmp188, TK,
	veor	q10, q0, q1	@ tmp186, D.15061, D.15064
	vstr	d20, [r0, #112]	@, MEM[(v16qu *)TK_1(D) + 112B]
	vstr	d21, [r0, #120]	@, MEM[(v16qu *)TK_1(D) + 112B]
	vldmia	r2, {d4-d5}	@ MEM[(v16qu *)TK_1(D) + 1072B], MEM[(v16qu *)TK_1(D) + 1072B]
	.loc 3 429 0
	lsrs	r2, r3, #20	@ tmp193, tmp193,
	.loc 3 428 0
	veor	q3, q0, q2	@ D.15069, D.15061, MEM[(v16qu *)TK_1(D) + 1072B]
	vldr	d22, [r0, #816]	@, MEM[(v16qu *)TK_1(D) + 816B]
	vldr	d23, [r0, #824]	@, MEM[(v16qu *)TK_1(D) + 816B]
	veor	q14, q3, q1	@ tmp192, D.15069, D.15064
	veor	q12, q3, q11	@ tmp190, D.15069, D.15071
	veor	q13, q0, q11	@ tmp191, D.15061, D.15071
	vstr	d24, [r0, #304]	@, MEM[(v16qu *)TK_1(D) + 304B]
	vstr	d25, [r0, #312]	@, MEM[(v16qu *)TK_1(D) + 304B]
	vstr	d26, [r0, #560]	@, MEM[(v16qu *)TK_1(D) + 560B]
	vstr	d27, [r0, #568]	@, MEM[(v16qu *)TK_1(D) + 560B]
	vstr	d28, [r0, #624]	@, MEM[(v16qu *)TK_1(D) + 624B]
	vstr	d29, [r0, #632]	@, MEM[(v16qu *)TK_1(D) + 624B]
	.loc 3 429 0
	cmp	r2, #0	@ tmp193
	bne	.L327	@
.LVL656:
	.loc 3 432 0
	ubfx	r2, r1, #0, #20	@ tmp208, D.15077,,
	.loc 3 430 0
	add	ip, r0, #1248	@ tmp196, TK,
	vmov.i8	q15, #1  @ v16qi	@ tmp198,
	vldmia	ip, {d16-d17}	@ MEM[(v16qu *)TK_1(D) + 1248B],
	.loc 3 431 0
	add	r3, r0, #1184	@ tmp203, TK,
	.loc 3 430 0
	vadd.i8	q0, q8, q15	@ D.15083,, tmp198
	vstmia	ip, {d0-d1}	@ MEM[(v16qu *)TK_1(D) + 1248B], D.15083
	.loc 3 431 0
	vldr	d18, [r0, #992]	@, MEM[(v16qu *)TK_1(D) + 992B]
	vldr	d19, [r0, #1000]	@, MEM[(v16qu *)TK_1(D) + 992B]
	vldr	d6, [r0, #928]	@, MEM[(v16qu *)TK_1(D) + 928B]
	vldr	d7, [r0, #936]	@, MEM[(v16qu *)TK_1(D) + 928B]
	veor	q1, q0, q9	@ tmp201, D.15083, D.15086
	veor	q12, q0, q3	@ tmp206, D.15083, D.15093
	vstr	d2, [r0, #224]	@, MEM[(v16qu *)TK_1(D) + 224B]
	vstr	d3, [r0, #232]	@, MEM[(v16qu *)TK_1(D) + 224B]
	vldmia	r3, {d20-d21}	@ MEM[(v16qu *)TK_1(D) + 1184B], MEM[(v16qu *)TK_1(D) + 1184B]
	vstr	d24, [r0, #672]	@, MEM[(v16qu *)TK_1(D) + 672B]
	vstr	d25, [r0, #680]	@, MEM[(v16qu *)TK_1(D) + 672B]
	veor	q2, q0, q10	@ D.15091, D.15083, MEM[(v16qu *)TK_1(D) + 1184B]
	veor	q11, q2, q3	@ tmp205, D.15091, D.15093
	veor	q13, q2, q9	@ tmp207, D.15091, D.15086
	vstr	d22, [r0, #416]	@, MEM[(v16qu *)TK_1(D) + 416B]
	vstr	d23, [r0, #424]	@, MEM[(v16qu *)TK_1(D) + 416B]
	vstr	d26, [r0, #736]	@, MEM[(v16qu *)TK_1(D) + 736B]
	vstr	d27, [r0, #744]	@, MEM[(v16qu *)TK_1(D) + 736B]
	.loc 3 432 0
	cmp	r2, #0	@ tmp208
	bne	.L327	@
.LVL657:
	.loc 3 435 0
	bic	r1, r1, #-268435456	@ tmp223, D.15077,
.LVL658:
	.loc 3 433 0
	add	ip, r0, #1120	@ tmp211, TK,
	vldmia	ip, {d28-d29}	@ MEM[(v16qu *)TK_1(D) + 1120B],
	.loc 3 434 0
	add	r3, r0, #1056	@ tmp218, TK,
	.loc 3 433 0
	vadd.i8	q8, q14, q15	@ D.15104,, tmp198
	vstmia	ip, {d16-d17}	@ MEM[(v16qu *)TK_1(D) + 1120B], D.15104
	.loc 3 434 0
	vldr	d0, [r0, #864]	@, MEM[(v16qu *)TK_1(D) + 864B]
	vldr	d1, [r0, #872]	@, MEM[(v16qu *)TK_1(D) + 864B]
	vldr	d4, [r0, #800]	@, MEM[(v16qu *)TK_1(D) + 800B]
	vldr	d5, [r0, #808]	@, MEM[(v16qu *)TK_1(D) + 800B]
	veor	q9, q8, q0	@ tmp216, D.15104, D.15107
	veor	q11, q8, q2	@ tmp221, D.15104, D.15114
	vstr	d18, [r0, #96]	@, MEM[(v16qu *)TK_1(D) + 96B]
	vstr	d19, [r0, #104]	@, MEM[(v16qu *)TK_1(D) + 96B]
	vldmia	r3, {d2-d3}	@ MEM[(v16qu *)TK_1(D) + 1056B], MEM[(v16qu *)TK_1(D) + 1056B]
	vstr	d22, [r0, #544]	@, MEM[(v16qu *)TK_1(D) + 544B]
	vstr	d23, [r0, #552]	@, MEM[(v16qu *)TK_1(D) + 544B]
	veor	q10, q8, q1	@ D.15112, D.15104, MEM[(v16qu *)TK_1(D) + 1056B]
	veor	q3, q10, q2	@ tmp220, D.15112, D.15114
	veor	q12, q10, q0	@ tmp222, D.15112, D.15107
	vstr	d6, [r0, #288]	@, MEM[(v16qu *)TK_1(D) + 288B]
	vstr	d7, [r0, #296]	@, MEM[(v16qu *)TK_1(D) + 288B]
	vstr	d24, [r0, #608]	@, MEM[(v16qu *)TK_1(D) + 608B]
	vstr	d25, [r0, #616]	@, MEM[(v16qu *)TK_1(D) + 608B]
	.loc 3 435 0
	cbnz	r1, .L327	@ tmp223,
.LVL659:
	.loc 3 436 0
	add	r2, r0, #1232	@ tmp225, TK,
	.loc 3 437 0
	add	ip, r0, #1168	@ tmp232, TK,
	.loc 3 436 0
	vldmia	r2, {d26-d27}	@ MEM[(v16qu *)TK_1(D) + 1232B],
	vadd.i8	q15, q13, q15	@ D.15125,, tmp198
	vstmia	r2, {d30-d31}	@ MEM[(v16qu *)TK_1(D) + 1232B], D.15125
	.loc 3 437 0
	vldr	d28, [r0, #976]	@, MEM[(v16qu *)TK_1(D) + 976B]
	vldr	d29, [r0, #984]	@, MEM[(v16qu *)TK_1(D) + 976B]
	vldr	d2, [r0, #912]	@, MEM[(v16qu *)TK_1(D) + 912B]
	vldr	d3, [r0, #920]	@, MEM[(v16qu *)TK_1(D) + 912B]
	veor	q8, q15, q14	@ tmp230, D.15125, D.15128
	veor	q2, q15, q1	@ tmp235, D.15125, D.15135
	vstr	d16, [r0, #208]	@, MEM[(v16qu *)TK_1(D) + 208B]
	vstr	d17, [r0, #216]	@, MEM[(v16qu *)TK_1(D) + 208B]
	vldmia	ip, {d0-d1}	@ MEM[(v16qu *)TK_1(D) + 1168B], MEM[(v16qu *)TK_1(D) + 1168B]
	vstr	d4, [r0, #656]	@, MEM[(v16qu *)TK_1(D) + 656B]
	vstr	d5, [r0, #664]	@, MEM[(v16qu *)TK_1(D) + 656B]
	veor	q9, q15, q0	@ D.15133, D.15125, MEM[(v16qu *)TK_1(D) + 1168B]
	veor	q10, q9, q1	@ tmp234, D.15133, D.15135
	veor	q3, q9, q14	@ tmp236, D.15133, D.15128
	vstr	d20, [r0, #400]	@, MEM[(v16qu *)TK_1(D) + 400B]
	vstr	d21, [r0, #408]	@, MEM[(v16qu *)TK_1(D) + 400B]
	vstr	d6, [r0, #720]	@, MEM[(v16qu *)TK_1(D) + 720B]
	vstr	d7, [r0, #728]	@, MEM[(v16qu *)TK_1(D) + 720B]
.LVL660:
.L327:
	bx	lr	@
	.cfi_endproc
.LFE1896:
	.size	tweakey_increment, .-tweakey_increment
	.align	2
	.global	tweakey_set
	.thumb
	.thumb_func
	.type	tweakey_set, %function
tweakey_set:
.LFB1897:
	.loc 3 443 0
	.cfi_startproc
	@ args = 0, pretend = 0, frame = 0
	@ frame_needed = 0, uses_anonymous_args = 0
	@ link register save eliminated.
.LVL661:
	push	{r4, r5, r6, r7, r8}	@
.LCFI14:
	.cfi_def_cfa_offset 20
	.cfi_offset 4, -20
	.cfi_offset 5, -16
	.cfi_offset 6, -12
	.cfi_offset 7, -8
	.cfi_offset 8, -4
	.loc 3 447 0
	and	r4, r2, #1	@ tmp183, j,
	lsl	r8, r4, #3	@ D.15023, tmp183,
	.loc 3 445 0
	add	ip, r0, #1024	@ T, TK,
	.loc 3 444 0
	add	r7, r0, #768	@ K, TK,
.LVL662:
	.loc 3 447 0
	add	r6, r8, r2, asr #1	@, D.15025, D.15023, j,
	.loc 3 448 0
	subs	r2, r2, #8	@ tmp190, j,
.LVL663:
	add	r2, r8, r2, asr #1	@, D.15038, D.15023, tmp190,
.LVL664:
	.loc 3 447 0
	lsls	r5, r6, #4	@ D.15026, D.15025,
	add	r4, ip, r5	@ D.15027, T, D.15026
	strb	r3, [r4, r1]	@ x, *D.15029_14
	.loc 3 448 0
	lsls	r1, r2, #4	@ D.15043, D.15038,
.LVL665:
	vldmia	r4, {d20-d21}	@ *D.15027_11,
	adds	r3, r7, r5	@ D.15032, K, D.15026
.LVL666:
	vldmia	r3, {d18-d19}	@ *D.15032_37,
	veor	q8, q9, q10	@ tmp187,,
	adds	r5, r0, r5	@ tmp186, TK, D.15026
	vstmia	r5, {d16-d17}	@ *D.15030_22, tmp187
	add	r2, r0, r2, lsl #4	@, tmp194, TK, D.15038,
	vldmia	r4, {d2-d3}	@ *D.15027_11,
	add	ip, ip, r1	@ D.15044, T, D.15043
.LVL667:
	vldmia	ip, {d0-d1}	@ *D.15044_64,
	adds	r7, r7, r1	@ D.15047, K, D.15043
.LVL668:
	veor	q2, q0, q1	@ tmp195,,
	vldmia	r7, {d6-d7}	@ *D.15047_74,
	veor	q11, q2, q3	@ tmp198, tmp195,
	vstr	d22, [r2, #256]	@, *D.15041_48
	vstr	d23, [r2, #264]	@, *D.15041_48
	add	r0, r0, r6, lsl #4	@, tmp208, TK, D.15025,
.LVL669:
	vldmia	r7, {d24-d25}	@ *D.15047_74, *D.15047_74
	vldmia	r4, {d26-d27}	@ *D.15027_11,
	veor	q14, q12, q13	@ tmp203, *D.15047_74,
	vstr	d28, [r2, #512]	@, *D.15052_85
	vstr	d29, [r2, #520]	@, *D.15052_85
	vldmia	ip, {d30-d31}	@ *D.15044_64, *D.15044_64
	vldmia	r4, {d18-d19}	@ *D.15027_11, *D.15027_11
	vldmia	r3, {d16-d17}	@ *D.15032_37, *D.15032_37
	veor	q10, q15, q9	@ tmp209, *D.15044_64, *D.15027_11
	veor	q0, q10, q8	@ tmp212, tmp209, *D.15032_37
	vstr	d0, [r0, #512]	@, *D.15057_111
	vstr	d1, [r0, #520]	@, *D.15057_111
	.loc 3 449 0
	pop	{r4, r5, r6, r7, r8}
	bx	lr
	.cfi_endproc
.LFE1897:
	.size	tweakey_set, .-tweakey_set
	.section	.rodata
	.align	3
.LANCHOR0 = . + 0
	.type	RC.14887, %object
	.size	RC.14887, 1024
RC.14887:
	.byte	0
	.byte	0
	.byte	0
	.byte	0
	.byte	0
	.byte	0
	.byte	0
	.byte	0
	.byte	0
	.byte	0
	.byte	0
	.byte	0
	.byte	0
	.byte	0
	.byte	0
	.byte	0
	.byte	27
	.byte	27
	.byte	27
	.byte	27
	.byte	27
	.byte	27
	.byte	27
	.byte	27
	.byte	27
	.byte	27
	.byte	27
	.byte	27
	.byte	27
	.byte	27
	.byte	27
	.byte	27
	.byte	54
	.byte	54
	.byte	54
	.byte	54
	.byte	54
	.byte	54
	.byte	54
	.byte	54
	.byte	54
	.byte	54
	.byte	54
	.byte	54
	.byte	54
	.byte	54
	.byte	54
	.byte	54
	.byte	81
	.byte	81
	.byte	81
	.byte	81
	.byte	81
	.byte	81
	.byte	81
	.byte	81
	.byte	81
	.byte	81
	.byte	81
	.byte	81
	.byte	81
	.byte	81
	.byte	81
	.byte	81
	.byte	108
	.byte	108
	.byte	108
	.byte	108
	.byte	108
	.byte	108
	.byte	108
	.byte	108
	.byte	108
	.byte	108
	.byte	108
	.byte	108
	.byte	108
	.byte	108
	.byte	108
	.byte	108
	.byte	-121
	.byte	-121
	.byte	-121
	.byte	-121
	.byte	-121
	.byte	-121
	.byte	-121
	.byte	-121
	.byte	-121
	.byte	-121
	.byte	-121
	.byte	-121
	.byte	-121
	.byte	-121
	.byte	-121
	.byte	-121
	.byte	-94
	.byte	-94
	.byte	-94
	.byte	-94
	.byte	-94
	.byte	-94
	.byte	-94
	.byte	-94
	.byte	-94
	.byte	-94
	.byte	-94
	.byte	-94
	.byte	-94
	.byte	-94
	.byte	-94
	.byte	-94
	.byte	-67
	.byte	-67
	.byte	-67
	.byte	-67
	.byte	-67
	.byte	-67
	.byte	-67
	.byte	-67
	.byte	-67
	.byte	-67
	.byte	-67
	.byte	-67
	.byte	-67
	.byte	-67
	.byte	-67
	.byte	-67
	.byte	-40
	.byte	-40
	.byte	-40
	.byte	-40
	.byte	-40
	.byte	-40
	.byte	-40
	.byte	-40
	.byte	-40
	.byte	-40
	.byte	-40
	.byte	-40
	.byte	-40
	.byte	-40
	.byte	-40
	.byte	-40
	.byte	-13
	.byte	-13
	.byte	-13
	.byte	-13
	.byte	-13
	.byte	-13
	.byte	-13
	.byte	-13
	.byte	-13
	.byte	-13
	.byte	-13
	.byte	-13
	.byte	-13
	.byte	-13
	.byte	-13
	.byte	-13
	.byte	14
	.byte	14
	.byte	14
	.byte	14
	.byte	14
	.byte	14
	.byte	14
	.byte	14
	.byte	14
	.byte	14
	.byte	14
	.byte	14
	.byte	14
	.byte	14
	.byte	14
	.byte	14
	.byte	41
	.byte	41
	.byte	41
	.byte	41
	.byte	41
	.byte	41
	.byte	41
	.byte	41
	.byte	41
	.byte	41
	.byte	41
	.byte	41
	.byte	41
	.byte	41
	.byte	41
	.byte	41
	.byte	68
	.byte	68
	.byte	68
	.byte	68
	.byte	68
	.byte	68
	.byte	68
	.byte	68
	.byte	68
	.byte	68
	.byte	68
	.byte	68
	.byte	68
	.byte	68
	.byte	68
	.byte	68
	.byte	95
	.byte	95
	.byte	95
	.byte	95
	.byte	95
	.byte	95
	.byte	95
	.byte	95
	.byte	95
	.byte	95
	.byte	95
	.byte	95
	.byte	95
	.byte	95
	.byte	95
	.byte	95
	.byte	122
	.byte	122
	.byte	122
	.byte	122
	.byte	122
	.byte	122
	.byte	122
	.byte	122
	.byte	122
	.byte	122
	.byte	122
	.byte	122
	.byte	122
	.byte	122
	.byte	122
	.byte	122
	.byte	-107
	.byte	-107
	.byte	-107
	.byte	-107
	.byte	-107
	.byte	-107
	.byte	-107
	.byte	-107
	.byte	-107
	.byte	-107
	.byte	-107
	.byte	-107
	.byte	-107
	.byte	-107
	.byte	-107
	.byte	-107
	.byte	-80
	.byte	-80
	.byte	-80
	.byte	-80
	.byte	-80
	.byte	-80
	.byte	-80
	.byte	-80
	.byte	-80
	.byte	-80
	.byte	-80
	.byte	-80
	.byte	-80
	.byte	-80
	.byte	-80
	.byte	-80
	.byte	-53
	.byte	-53
	.byte	-53
	.byte	-53
	.byte	-53
	.byte	-53
	.byte	-53
	.byte	-53
	.byte	-53
	.byte	-53
	.byte	-53
	.byte	-53
	.byte	-53
	.byte	-53
	.byte	-53
	.byte	-53
	.byte	-26
	.byte	-26
	.byte	-26
	.byte	-26
	.byte	-26
	.byte	-26
	.byte	-26
	.byte	-26
	.byte	-26
	.byte	-26
	.byte	-26
	.byte	-26
	.byte	-26
	.byte	-26
	.byte	-26
	.byte	-26
	.byte	1
	.byte	1
	.byte	1
	.byte	1
	.byte	1
	.byte	1
	.byte	1
	.byte	1
	.byte	1
	.byte	1
	.byte	1
	.byte	1
	.byte	1
	.byte	1
	.byte	1
	.byte	1
	.byte	28
	.byte	28
	.byte	28
	.byte	28
	.byte	28
	.byte	28
	.byte	28
	.byte	28
	.byte	28
	.byte	28
	.byte	28
	.byte	28
	.byte	28
	.byte	28
	.byte	28
	.byte	28
	.byte	55
	.byte	55
	.byte	55
	.byte	55
	.byte	55
	.byte	55
	.byte	55
	.byte	55
	.byte	55
	.byte	55
	.byte	55
	.byte	55
	.byte	55
	.byte	55
	.byte	55
	.byte	55
	.byte	82
	.byte	82
	.byte	82
	.byte	82
	.byte	82
	.byte	82
	.byte	82
	.byte	82
	.byte	82
	.byte	82
	.byte	82
	.byte	82
	.byte	82
	.byte	82
	.byte	82
	.byte	82
	.byte	109
	.byte	109
	.byte	109
	.byte	109
	.byte	109
	.byte	109
	.byte	109
	.byte	109
	.byte	109
	.byte	109
	.byte	109
	.byte	109
	.byte	109
	.byte	109
	.byte	109
	.byte	109
	.byte	-120
	.byte	-120
	.byte	-120
	.byte	-120
	.byte	-120
	.byte	-120
	.byte	-120
	.byte	-120
	.byte	-120
	.byte	-120
	.byte	-120
	.byte	-120
	.byte	-120
	.byte	-120
	.byte	-120
	.byte	-120
	.byte	-93
	.byte	-93
	.byte	-93
	.byte	-93
	.byte	-93
	.byte	-93
	.byte	-93
	.byte	-93
	.byte	-93
	.byte	-93
	.byte	-93
	.byte	-93
	.byte	-93
	.byte	-93
	.byte	-93
	.byte	-93
	.byte	-66
	.byte	-66
	.byte	-66
	.byte	-66
	.byte	-66
	.byte	-66
	.byte	-66
	.byte	-66
	.byte	-66
	.byte	-66
	.byte	-66
	.byte	-66
	.byte	-66
	.byte	-66
	.byte	-66
	.byte	-66
	.byte	-39
	.byte	-39
	.byte	-39
	.byte	-39
	.byte	-39
	.byte	-39
	.byte	-39
	.byte	-39
	.byte	-39
	.byte	-39
	.byte	-39
	.byte	-39
	.byte	-39
	.byte	-39
	.byte	-39
	.byte	-39
	.byte	-12
	.byte	-12
	.byte	-12
	.byte	-12
	.byte	-12
	.byte	-12
	.byte	-12
	.byte	-12
	.byte	-12
	.byte	-12
	.byte	-12
	.byte	-12
	.byte	-12
	.byte	-12
	.byte	-12
	.byte	-12
	.byte	15
	.byte	15
	.byte	15
	.byte	15
	.byte	15
	.byte	15
	.byte	15
	.byte	15
	.byte	15
	.byte	15
	.byte	15
	.byte	15
	.byte	15
	.byte	15
	.byte	15
	.byte	15
	.byte	42
	.byte	42
	.byte	42
	.byte	42
	.byte	42
	.byte	42
	.byte	42
	.byte	42
	.byte	42
	.byte	42
	.byte	42
	.byte	42
	.byte	42
	.byte	42
	.byte	42
	.byte	42
	.byte	69
	.byte	69
	.byte	69
	.byte	69
	.byte	69
	.byte	69
	.byte	69
	.byte	69
	.byte	69
	.byte	69
	.byte	69
	.byte	69
	.byte	69
	.byte	69
	.byte	69
	.byte	69
	.byte	96
	.byte	96
	.byte	96
	.byte	96
	.byte	96
	.byte	96
	.byte	96
	.byte	96
	.byte	96
	.byte	96
	.byte	96
	.byte	96
	.byte	96
	.byte	96
	.byte	96
	.byte	96
	.byte	123
	.byte	123
	.byte	123
	.byte	123
	.byte	123
	.byte	123
	.byte	123
	.byte	123
	.byte	123
	.byte	123
	.byte	123
	.byte	123
	.byte	123
	.byte	123
	.byte	123
	.byte	123
	.byte	-106
	.byte	-106
	.byte	-106
	.byte	-106
	.byte	-106
	.byte	-106
	.byte	-106
	.byte	-106
	.byte	-106
	.byte	-106
	.byte	-106
	.byte	-106
	.byte	-106
	.byte	-106
	.byte	-106
	.byte	-106
	.byte	-79
	.byte	-79
	.byte	-79
	.byte	-79
	.byte	-79
	.byte	-79
	.byte	-79
	.byte	-79
	.byte	-79
	.byte	-79
	.byte	-79
	.byte	-79
	.byte	-79
	.byte	-79
	.byte	-79
	.byte	-79
	.byte	-52
	.byte	-52
	.byte	-52
	.byte	-52
	.byte	-52
	.byte	-52
	.byte	-52
	.byte	-52
	.byte	-52
	.byte	-52
	.byte	-52
	.byte	-52
	.byte	-52
	.byte	-52
	.byte	-52
	.byte	-52
	.byte	-25
	.byte	-25
	.byte	-25
	.byte	-25
	.byte	-25
	.byte	-25
	.byte	-25
	.byte	-25
	.byte	-25
	.byte	-25
	.byte	-25
	.byte	-25
	.byte	-25
	.byte	-25
	.byte	-25
	.byte	-25
	.byte	2
	.byte	2
	.byte	2
	.byte	2
	.byte	2
	.byte	2
	.byte	2
	.byte	2
	.byte	2
	.byte	2
	.byte	2
	.byte	2
	.byte	2
	.byte	2
	.byte	2
	.byte	2
	.byte	29
	.byte	29
	.byte	29
	.byte	29
	.byte	29
	.byte	29
	.byte	29
	.byte	29
	.byte	29
	.byte	29
	.byte	29
	.byte	29
	.byte	29
	.byte	29
	.byte	29
	.byte	29
	.byte	56
	.byte	56
	.byte	56
	.byte	56
	.byte	56
	.byte	56
	.byte	56
	.byte	56
	.byte	56
	.byte	56
	.byte	56
	.byte	56
	.byte	56
	.byte	56
	.byte	56
	.byte	56
	.byte	83
	.byte	83
	.byte	83
	.byte	83
	.byte	83
	.byte	83
	.byte	83
	.byte	83
	.byte	83
	.byte	83
	.byte	83
	.byte	83
	.byte	83
	.byte	83
	.byte	83
	.byte	83
	.byte	110
	.byte	110
	.byte	110
	.byte	110
	.byte	110
	.byte	110
	.byte	110
	.byte	110
	.byte	110
	.byte	110
	.byte	110
	.byte	110
	.byte	110
	.byte	110
	.byte	110
	.byte	110
	.byte	-119
	.byte	-119
	.byte	-119
	.byte	-119
	.byte	-119
	.byte	-119
	.byte	-119
	.byte	-119
	.byte	-119
	.byte	-119
	.byte	-119
	.byte	-119
	.byte	-119
	.byte	-119
	.byte	-119
	.byte	-119
	.byte	-92
	.byte	-92
	.byte	-92
	.byte	-92
	.byte	-92
	.byte	-92
	.byte	-92
	.byte	-92
	.byte	-92
	.byte	-92
	.byte	-92
	.byte	-92
	.byte	-92
	.byte	-92
	.byte	-92
	.byte	-92
	.byte	-65
	.byte	-65
	.byte	-65
	.byte	-65
	.byte	-65
	.byte	-65
	.byte	-65
	.byte	-65
	.byte	-65
	.byte	-65
	.byte	-65
	.byte	-65
	.byte	-65
	.byte	-65
	.byte	-65
	.byte	-65
	.byte	-38
	.byte	-38
	.byte	-38
	.byte	-38
	.byte	-38
	.byte	-38
	.byte	-38
	.byte	-38
	.byte	-38
	.byte	-38
	.byte	-38
	.byte	-38
	.byte	-38
	.byte	-38
	.byte	-38
	.byte	-38
	.byte	-11
	.byte	-11
	.byte	-11
	.byte	-11
	.byte	-11
	.byte	-11
	.byte	-11
	.byte	-11
	.byte	-11
	.byte	-11
	.byte	-11
	.byte	-11
	.byte	-11
	.byte	-11
	.byte	-11
	.byte	-11
	.byte	16
	.byte	16
	.byte	16
	.byte	16
	.byte	16
	.byte	16
	.byte	16
	.byte	16
	.byte	16
	.byte	16
	.byte	16
	.byte	16
	.byte	16
	.byte	16
	.byte	16
	.byte	16
	.byte	43
	.byte	43
	.byte	43
	.byte	43
	.byte	43
	.byte	43
	.byte	43
	.byte	43
	.byte	43
	.byte	43
	.byte	43
	.byte	43
	.byte	43
	.byte	43
	.byte	43
	.byte	43
	.byte	70
	.byte	70
	.byte	70
	.byte	70
	.byte	70
	.byte	70
	.byte	70
	.byte	70
	.byte	70
	.byte	70
	.byte	70
	.byte	70
	.byte	70
	.byte	70
	.byte	70
	.byte	70
	.byte	97
	.byte	97
	.byte	97
	.byte	97
	.byte	97
	.byte	97
	.byte	97
	.byte	97
	.byte	97
	.byte	97
	.byte	97
	.byte	97
	.byte	97
	.byte	97
	.byte	97
	.byte	97
	.byte	124
	.byte	124
	.byte	124
	.byte	124
	.byte	124
	.byte	124
	.byte	124
	.byte	124
	.byte	124
	.byte	124
	.byte	124
	.byte	124
	.byte	124
	.byte	124
	.byte	124
	.byte	124
	.byte	-105
	.byte	-105
	.byte	-105
	.byte	-105
	.byte	-105
	.byte	-105
	.byte	-105
	.byte	-105
	.byte	-105
	.byte	-105
	.byte	-105
	.byte	-105
	.byte	-105
	.byte	-105
	.byte	-105
	.byte	-105
	.byte	-78
	.byte	-78
	.byte	-78
	.byte	-78
	.byte	-78
	.byte	-78
	.byte	-78
	.byte	-78
	.byte	-78
	.byte	-78
	.byte	-78
	.byte	-78
	.byte	-78
	.byte	-78
	.byte	-78
	.byte	-78
	.byte	-51
	.byte	-51
	.byte	-51
	.byte	-51
	.byte	-51
	.byte	-51
	.byte	-51
	.byte	-51
	.byte	-51
	.byte	-51
	.byte	-51
	.byte	-51
	.byte	-51
	.byte	-51
	.byte	-51
	.byte	-51
	.byte	-24
	.byte	-24
	.byte	-24
	.byte	-24
	.byte	-24
	.byte	-24
	.byte	-24
	.byte	-24
	.byte	-24
	.byte	-24
	.byte	-24
	.byte	-24
	.byte	-24
	.byte	-24
	.byte	-24
	.byte	-24
	.byte	3
	.byte	3
	.byte	3
	.byte	3
	.byte	3
	.byte	3
	.byte	3
	.byte	3
	.byte	3
	.byte	3
	.byte	3
	.byte	3
	.byte	3
	.byte	3
	.byte	3
	.byte	3
	.byte	30
	.byte	30
	.byte	30
	.byte	30
	.byte	30
	.byte	30
	.byte	30
	.byte	30
	.byte	30
	.byte	30
	.byte	30
	.byte	30
	.byte	30
	.byte	30
	.byte	30
	.byte	30
	.byte	57
	.byte	57
	.byte	57
	.byte	57
	.byte	57
	.byte	57
	.byte	57
	.byte	57
	.byte	57
	.byte	57
	.byte	57
	.byte	57
	.byte	57
	.byte	57
	.byte	57
	.byte	57
	.byte	84
	.byte	84
	.byte	84
	.byte	84
	.byte	84
	.byte	84
	.byte	84
	.byte	84
	.byte	84
	.byte	84
	.byte	84
	.byte	84
	.byte	84
	.byte	84
	.byte	84
	.byte	84
	.byte	111
	.byte	111
	.byte	111
	.byte	111
	.byte	111
	.byte	111
	.byte	111
	.byte	111
	.byte	111
	.byte	111
	.byte	111
	.byte	111
	.byte	111
	.byte	111
	.byte	111
	.byte	111
	.byte	-118
	.byte	-118
	.byte	-118
	.byte	-118
	.byte	-118
	.byte	-118
	.byte	-118
	.byte	-118
	.byte	-118
	.byte	-118
	.byte	-118
	.byte	-118
	.byte	-118
	.byte	-118
	.byte	-118
	.byte	-118
	.byte	-91
	.byte	-91
	.byte	-91
	.byte	-91
	.byte	-91
	.byte	-91
	.byte	-91
	.byte	-91
	.byte	-91
	.byte	-91
	.byte	-91
	.byte	-91
	.byte	-91
	.byte	-91
	.byte	-91
	.byte	-91
	.type	RC.14911, %object
	.size	RC.14911, 1024
RC.14911:
	.byte	0
	.byte	0
	.byte	0
	.byte	0
	.byte	0
	.byte	0
	.byte	0
	.byte	0
	.byte	0
	.byte	0
	.byte	0
	.byte	0
	.byte	0
	.byte	0
	.byte	0
	.byte	0
	.byte	27
	.byte	27
	.byte	27
	.byte	27
	.byte	27
	.byte	27
	.byte	27
	.byte	27
	.byte	27
	.byte	27
	.byte	27
	.byte	27
	.byte	27
	.byte	27
	.byte	27
	.byte	27
	.byte	54
	.byte	54
	.byte	54
	.byte	54
	.byte	54
	.byte	54
	.byte	54
	.byte	54
	.byte	54
	.byte	54
	.byte	54
	.byte	54
	.byte	54
	.byte	54
	.byte	54
	.byte	54
	.byte	81
	.byte	81
	.byte	81
	.byte	81
	.byte	81
	.byte	81
	.byte	81
	.byte	81
	.byte	81
	.byte	81
	.byte	81
	.byte	81
	.byte	81
	.byte	81
	.byte	81
	.byte	81
	.byte	108
	.byte	108
	.byte	108
	.byte	108
	.byte	108
	.byte	108
	.byte	108
	.byte	108
	.byte	108
	.byte	108
	.byte	108
	.byte	108
	.byte	108
